EXPORTS
 "_openmp"
 "_Z11IndependentN8tmbutils6vectorIdEE"
 "_Z12optimizeTapeIPN5CppAD5ADFunIdEEEvT_"
 "_Z14eigen_REprintfPKc"
 "_Z14getListElementP7SEXPRECPKcPF8RbooleanS0_E"
 "_Z14getListIntegerP7SEXPRECPKci"
 "_Z15isNumericScalarP7SEXPREC"
 "_Z16MakeADFunObject_P7SEXPRECS0_S0_S0_iRS0_"
 "_Z17MakeADGradObject_P7SEXPRECS0_S0_i"
 "_Z18MakeADHessObject2_P7SEXPRECS0_S0_S0_i"
 "_Z19isValidSparseMatrixP7SEXPREC"
 "_Z22HessianSparsityPatternIdEN8tmbutils6matrixIiEEPN5CppAD5ADFunIT_EE"
 "_Z23EvalADFunObjectTemplateI13parallelADFunIdEEP7SEXPRECS3_S3_S3_"
 "_Z23EvalADFunObjectTemplateIN5CppAD5ADFunIdEEEP7SEXPRECS4_S4_S4_"
 "_Z23RObjectTestExpectedTypeP7SEXPRECPF8RbooleanS0_EPKc"
 "_Z3logIdEN8tmbutils6vectorIT_EERKS3_"
 "_Z3logIN5CppAD2ADIdEEEN8tmbutils6vectorIT_EERKS6_"
 "_Z3logIN5CppAD2ADINS1_IdEEEEEN8tmbutils6vectorIT_EERKS7_"
 "_Z3logIN5CppAD2ADINS1_INS1_IdEEEEEEEN8tmbutils6vectorIT_EERKS8_"
 "_Z4isNAIdEbT_"
 "_Z4isNAIN5CppAD2ADIdEEEbT_"
 "_Z4isNAIN5CppAD2ADINS1_IdEEEEEbT_"
 "_Z4isNAIN5CppAD2ADINS1_INS1_IdEEEEEEEbT_"
 "_Z4LFPMIdET_P18objective_functionIS0_E"
 "_Z4LFPMIN5CppAD2ADIdEEET_P18objective_functionIS3_E"
 "_Z4LFPMIN5CppAD2ADINS1_IdEEEEET_P18objective_functionIS4_E"
 "_Z4LFPMIN5CppAD2ADINS1_INS1_IdEEEEEEET_P18objective_functionIS5_E"
 "_Z5dnormIdET_S0_S0_S0_i"
 "_Z5dnormIN5CppAD2ADIdEEET_S3_S3_S3_i"
 "_Z5dnormIN5CppAD2ADINS1_IdEEEEET_S4_S4_S4_i"
 "_Z5dnormIN5CppAD2ADINS1_INS1_IdEEEEEEET_S5_S5_S5_i"
 "_Z5NLFPMIdET_P18objective_functionIS0_E"
 "_Z5NLFPMIN5CppAD2ADIdEEET_P18objective_functionIS3_E"
 "_Z5NLFPMIN5CppAD2ADINS1_IdEEEEET_P18objective_functionIS4_E"
 "_Z5NLFPMIN5CppAD2ADINS1_INS1_IdEEEEEEET_P18objective_functionIS5_E"
 "_Z6asSEXPIdEP7SEXPRECRKN8tmbutils6matrixIT_EE"
 "_Z6asSEXPIiEP7SEXPRECRKN8tmbutils6matrixIT_EE"
 "_Z6asSEXPIN5CppAD5ADFunIdEEEP7SEXPRECRK8sphess_tIT_EPKc"
 "_Z6asSEXPIN8tmbutils6vectorIiEEEP7SEXPRECRKNS1_IT_EE"
 "_Z6asSEXPRKd"
 "_Z6asSEXPRKi"
 "_Z6asSEXPRKN8tmbutils6vectorIdEE"
 "_Z6asSEXPRKN8tmbutils6vectorIiEE"
 "_Z6dbinomIdET_S0_S0_S0_i"
 "_Z6dbinomIN5CppAD2ADIdEEET_S3_S3_S3_i"
 "_Z6dbinomIN5CppAD2ADINS1_IdEEEEET_S4_S4_S4_i"
 "_Z6dbinomIN5CppAD2ADINS1_INS1_IdEEEEEEET_S5_S5_S5_i"
 "_Z6lgammaIN5CppAD2ADIdEEET_S3_"
 "_Z6lgammaIN5CppAD2ADINS1_IdEEEEET_S4_"
 "_Z6lgammaIN5CppAD2ADINS1_INS1_IdEEEEEEET_S5_"
 "_Z7ptrListP7SEXPREC"
 "_Z8asDoubled"
 "_Z8asDoublei"
 "_Z8asDoubleN5CppAD2ADIdEE"
 "_Z8asDoubleN5CppAD2ADINS0_IdEEEE"
 "_Z8asDoubleN5CppAD2ADINS0_INS0_IdEEEEEE"
 "_Z8asMatrixIdEN8tmbutils6matrixIT_EERKNS0_6vectorIS2_EEii"
 "_Z8asMatrixIiEN8tmbutils6matrixIT_EERKNS0_6vectorIS2_EEii"
 "_Z8asVectorIdEN8tmbutils6vectorIT_EEP7SEXPREC"
 "_Z8asVectorIiEN8tmbutils6vectorIT_EEP7SEXPREC"
 "_Z8asVectorIN5CppAD2ADIdEEEN8tmbutils6vectorIT_EEP7SEXPREC"
 "_Z8asVectorIN5CppAD2ADINS1_IdEEEEEN8tmbutils6vectorIT_EEP7SEXPREC"
 "_Z8asVectorIN5CppAD2ADINS1_INS1_IdEEEEEEEN8tmbutils6vectorIT_EEP7SEXPREC"
 "_ZdlPvS_"
 "_ZGVZN5CppAD11atomic_baseIdE10class_nameEvE5list_"
 "_ZGVZN5CppAD11atomic_baseIdE12class_objectEvE5list_"
 "_ZGVZN5CppAD11atomic_baseINS_2ADIdEEE10class_nameEvE5list_"
 "_ZGVZN5CppAD11atomic_baseINS_2ADIdEEE12class_objectEvE5list_"
 "_ZGVZN5CppAD11atomic_baseINS_2ADINS1_IdEEEEE10class_nameEvE5list_"
 "_ZGVZN5CppAD11atomic_baseINS_2ADINS1_IdEEEEE12class_objectEvE5list_"
 "_ZGVZN5CppAD12thread_alloc11thread_infoEybE9zero_info"
 "_ZGVZN5CppAD12thread_alloc13capacity_infoEvE8capacity"
 "_ZGVZN5CppAD2ADIdE11tape_manageENS_15tape_manage_jobEE9tape_zero"
 "_ZGVZN5CppAD2ADINS0_IdEEE11tape_manageENS_15tape_manage_jobEE9tape_zero"
 "_ZGVZN5CppAD2ADINS0_INS0_IdEEEEE11tape_manageENS_15tape_manage_jobEE9tape_zero"
 "_ZGVZN5CppAD8discreteIdE4ListEvE4list"
 "_ZGVZN5CppAD8discreteINS_2ADIdEEE4ListEvE4list"
 "_ZGVZN5CppAD8discreteINS_2ADINS1_IdEEEEE4ListEvE4list"
 "_ZGVZN5Eigen8internal20manage_caching_sizesENS_6ActionEPxS2_S2_E12m_cacheSizes"
 "_ZGVZN6atomic8D_lgammaIdEEvRKN5CppAD6vectorINS1_2ADIT_EEEERS6_E12afunD_lgamma"
 "_ZGVZN6atomic8D_lgammaIN5CppAD2ADIdEEEEvRKNS1_6vectorINS2_IT_EEEERS7_E12afunD_lgamma"
 "_ZGVZN6atomic8D_lgammaIN5CppAD2ADINS2_IdEEEEEEvRKNS1_6vectorINS2_IT_EEEERS8_E12afunD_lgamma"
 "_ZN10RstreambufILb0EE4syncEv"
 "_ZN10RstreambufILb0EE6xsputnEPKcx"
 "_ZN10RstreambufILb0EE8overflowEi"
 "_ZN10RstreambufILb0EEC1Ev"
 "_ZN10RstreambufILb0EED0Ev"
 "_ZN10RstreambufILb0EED1Ev"
 "_ZN10RstreambufILb1EE4syncEv"
 "_ZN10RstreambufILb1EE6xsputnEPKcx"
 "_ZN10RstreambufILb1EE8overflowEi"
 "_ZN10RstreambufILb1EEC1Ev"
 "_ZN10RstreambufILb1EED0Ev"
 "_ZN10RstreambufILb1EED1Ev"
 "_ZN12report_stackIdE10reportdimsEv"
 "_ZN12report_stackIdE4pushIN8tmbutils6vectorIdEEEEvT_PKc"
 "_ZN12report_stackIdE4sizeEv"
 "_ZN12report_stackIdE5clearEv"
 "_ZN12report_stackIdE6getDimIN8tmbutils6vectorIdEEEENS3_IiEERKT_"
 "_ZN12report_stackIdE8increaseEN8tmbutils6vectorIiEEPKc"
 "_ZN12report_stackIdEC1Ev"
 "_ZN12report_stackIdED1Ev"
 "_ZN12report_stackIN5CppAD2ADIdEEE11reportnamesEv"
 "_ZN12report_stackIN5CppAD2ADIdEEE4pushIN8tmbutils6vectorIS2_EEEEvT_PKc"
 "_ZN12report_stackIN5CppAD2ADIdEEE6getDimIN8tmbutils6vectorIS2_EEEENS6_IiEERKT_"
 "_ZN12report_stackIN5CppAD2ADIdEEE8increaseEN8tmbutils6vectorIiEEPKc"
 "_ZN12report_stackIN5CppAD2ADIdEEEC1Ev"
 "_ZN12report_stackIN5CppAD2ADIdEEED1Ev"
 "_ZN12report_stackIN5CppAD2ADINS1_IdEEEEE4pushIN8tmbutils6vectorIS3_EEEEvT_PKc"
 "_ZN12report_stackIN5CppAD2ADINS1_IdEEEEE6getDimIN8tmbutils6vectorIS3_EEEENS7_IiEERKT_"
 "_ZN12report_stackIN5CppAD2ADINS1_IdEEEEE8increaseEN8tmbutils6vectorIiEEPKc"
 "_ZN12report_stackIN5CppAD2ADINS1_IdEEEEEC1Ev"
 "_ZN12report_stackIN5CppAD2ADINS1_IdEEEEED1Ev"
 "_ZN12report_stackIN5CppAD2ADINS1_INS1_IdEEEEEEE4pushIN8tmbutils6vectorIS4_EEEEvT_PKc"
 "_ZN12report_stackIN5CppAD2ADINS1_INS1_IdEEEEEEE6getDimIN8tmbutils6vectorIS4_EEEENS8_IiEERKT_"
 "_ZN12report_stackIN5CppAD2ADINS1_INS1_IdEEEEEEE8increaseEN8tmbutils6vectorIiEEPKc"
 "_ZN12report_stackIN5CppAD2ADINS1_INS1_IdEEEEEEEC1Ev"
 "_ZN12report_stackIN5CppAD2ADINS1_INS1_IdEEEEEEED1Ev"
 "_ZN13config_struct3setEPKcRbb"
 "_ZN13config_struct3setEv"
 "_ZN13config_structC1Ev"
 "_ZN13parallelADFunIdE5RangeEv"
 "_ZN13parallelADFunIdE6DomainEv"
 "_ZN13parallelADFunIdE6subsetIN5Eigen6MatrixIdLin1ELi1ELi0ELin1ELi1EEEEET_RKS5_yi"
 "_ZN13parallelADFunIdE6subsetIN8tmbutils6vectorIdEEEET_RKS5_yi"
 "_ZN13parallelADFunIdE7ForwardIN5Eigen6MatrixIdLin1ELi1ELi0ELin1ELi1EEEEET_yRKS5_RSo"
 "_ZN13parallelADFunIdE7ForwardIN8tmbutils6vectorIdEEEET_yRKS5_RSo"
 "_ZN13parallelADFunIdE7HessianIN8tmbutils6vectorIdEEEET_RKS5_y"
 "_ZN13parallelADFunIdE7ReverseIN5Eigen6MatrixIdLin1ELi1ELi0ELin1ELi1EEEEET_yRKS5_"
 "_ZN13parallelADFunIdE7ReverseIN8tmbutils6vectorIdEEEET_yRKS5_"
 "_ZN13parallelADFunIdE8optimizeEv"
 "_ZN13parallelADFunIdE9addinsertIN5Eigen6MatrixIdLin1ELi1ELi0ELin1ELi1EEEEEvRT_RKS5_yi"
 "_ZN13parallelADFunIdE9addinsertIN8tmbutils6vectorIdEEEEvRT_RKS5_yi"
 "_ZN13parallelADFunIdED1Ev"
 "_ZN18objective_functionIdE10defaultparEv"
 "_ZN18objective_functionIdE11pushParnameEPKc"
 "_ZN18objective_functionIdE12set_simulateEb"
 "_ZN18objective_functionIdE22count_parallel_regionsEv"
 "_ZN18objective_functionIdE4fillERN8tmbutils6vectorIdEEPKc"
 "_ZN18objective_functionIdE5valueEd"
 "_ZN18objective_functionIdE6nparmsEP7SEXPREC"
 "_ZN18objective_functionIdE7fillmapIN8tmbutils6vectorIdEEEEvRT_PKc"
 "_ZN18objective_functionIdE8getShapeEPKcPF8RbooleanP7SEXPRECE"
 "_ZN18objective_functionIdE8parNamesEv"
 "_ZN18objective_functionIdE9fillShapeIN8tmbutils6vectorIdEEEET_S5_PKc"
 "_ZN18objective_functionIdE9sync_dataEv"
 "_ZN18objective_functionIdEC1EP7SEXPRECS2_S2_"
 "_ZN18objective_functionIdEclEv"
 "_ZN18objective_functionIdED1Ev"
 "_ZN18objective_functionIN5CppAD2ADIdEEE11pushParnameEPKc"
 "_ZN18objective_functionIN5CppAD2ADIdEEE16evalUserTemplateEv"
 "_ZN18objective_functionIN5CppAD2ADIdEEE19set_parallel_regionEi"
 "_ZN18objective_functionIN5CppAD2ADIdEEE4fillERN8tmbutils6vectorIS2_EEPKc"
 "_ZN18objective_functionIN5CppAD2ADIdEEE6nparmsEP7SEXPREC"
 "_ZN18objective_functionIN5CppAD2ADIdEEE7fillmapIN8tmbutils6vectorIS2_EEEEvRT_PKc"
 "_ZN18objective_functionIN5CppAD2ADIdEEE8getShapeEPKcPF8RbooleanP7SEXPRECE"
 "_ZN18objective_functionIN5CppAD2ADIdEEE9fillShapeIN8tmbutils6vectorIS2_EEEET_S8_PKc"
 "_ZN18objective_functionIN5CppAD2ADIdEEEC1EP7SEXPRECS5_S5_"
 "_ZN18objective_functionIN5CppAD2ADIdEEEclEv"
 "_ZN18objective_functionIN5CppAD2ADIdEEED1Ev"
 "_ZN18objective_functionIN5CppAD2ADINS1_IdEEEEE11pushParnameEPKc"
 "_ZN18objective_functionIN5CppAD2ADINS1_IdEEEEE16evalUserTemplateEv"
 "_ZN18objective_functionIN5CppAD2ADINS1_IdEEEEE19set_parallel_regionEi"
 "_ZN18objective_functionIN5CppAD2ADINS1_IdEEEEE4fillERN8tmbutils6vectorIS3_EEPKc"
 "_ZN18objective_functionIN5CppAD2ADINS1_IdEEEEE6nparmsEP7SEXPREC"
 "_ZN18objective_functionIN5CppAD2ADINS1_IdEEEEE7fillmapIN8tmbutils6vectorIS3_EEEEvRT_PKc"
 "_ZN18objective_functionIN5CppAD2ADINS1_IdEEEEE8getShapeEPKcPF8RbooleanP7SEXPRECE"
 "_ZN18objective_functionIN5CppAD2ADINS1_IdEEEEE9fillShapeIN8tmbutils6vectorIS3_EEEET_S9_PKc"
 "_ZN18objective_functionIN5CppAD2ADINS1_IdEEEEEC1EP7SEXPRECS6_S6_"
 "_ZN18objective_functionIN5CppAD2ADINS1_IdEEEEEclEv"
 "_ZN18objective_functionIN5CppAD2ADINS1_IdEEEEED1Ev"
 "_ZN18objective_functionIN5CppAD2ADINS1_INS1_IdEEEEEEE11pushParnameEPKc"
 "_ZN18objective_functionIN5CppAD2ADINS1_INS1_IdEEEEEEE16evalUserTemplateEv"
 "_ZN18objective_functionIN5CppAD2ADINS1_INS1_IdEEEEEEE19set_parallel_regionEi"
 "_ZN18objective_functionIN5CppAD2ADINS1_INS1_IdEEEEEEE4fillERN8tmbutils6vectorIS4_EEPKc"
 "_ZN18objective_functionIN5CppAD2ADINS1_INS1_IdEEEEEEE6nparmsEP7SEXPREC"
 "_ZN18objective_functionIN5CppAD2ADINS1_INS1_IdEEEEEEE7fillmapIN8tmbutils6vectorIS4_EEEEvRT_PKc"
 "_ZN18objective_functionIN5CppAD2ADINS1_INS1_IdEEEEEEE8getShapeEPKcPF8RbooleanP7SEXPRECE"
 "_ZN18objective_functionIN5CppAD2ADINS1_INS1_IdEEEEEEE9fillShapeIN8tmbutils6vectorIS4_EEEET_SA_PKc"
 "_ZN18objective_functionIN5CppAD2ADINS1_INS1_IdEEEEEEEC1EP7SEXPRECS7_S7_"
 "_ZN18objective_functionIN5CppAD2ADINS1_INS1_IdEEEEEEEclEv"
 "_ZN18objective_functionIN5CppAD2ADINS1_INS1_IdEEEEEEED1Ev"
 "_ZN21memory_manager_struct14CallCFinalizerEP7SEXPREC"
 "_ZN21memory_manager_struct18RegisterCFinalizerEP7SEXPREC"
 "_ZN21memory_manager_struct5clearEv"
 "_ZN21memory_manager_structC1Ev"
 "_ZN21memory_manager_structC2Ev"
 "_ZN21memory_manager_structD1Ev"
 "_ZN5CppAD10index_sortINS_6vectorIyEES2_EEvRKT_RT0_"
 "_ZN5CppAD10pod_vectorIbE4dataEv"
 "_ZN5CppAD10pod_vectorIbE5eraseEv"
 "_ZN5CppAD10pod_vectorIbE6extendEy"
 "_ZN5CppAD10pod_vectorIbEC1Ey"
 "_ZN5CppAD10pod_vectorIbED1Ev"
 "_ZN5CppAD10pod_vectorIbEixEy"
 "_ZN5CppAD10pod_vectorIcE4freeEv"
 "_ZN5CppAD10pod_vectorIcE4swapERS1_"
 "_ZN5CppAD10pod_vectorIcEC1Ey"
 "_ZN5CppAD10pod_vectorIcED1Ev"
 "_ZN5CppAD10pod_vectorIdE4dataEv"
 "_ZN5CppAD10pod_vectorIdE4freeEv"
 "_ZN5CppAD10pod_vectorIdE4swapERS1_"
 "_ZN5CppAD10pod_vectorIdE5eraseEv"
 "_ZN5CppAD10pod_vectorIdE6extendEy"
 "_ZN5CppAD10pod_vectorIdEC1Ey"
 "_ZN5CppAD10pod_vectorIdED1Ev"
 "_ZN5CppAD10pod_vectorIdEixEy"
 "_ZN5CppAD10pod_vectorIhE4freeEv"
 "_ZN5CppAD10pod_vectorIhE4swapERS1_"
 "_ZN5CppAD10pod_vectorIhE6extendEy"
 "_ZN5CppAD10pod_vectorIhEC1Ey"
 "_ZN5CppAD10pod_vectorIhED1Ev"
 "_ZN5CppAD10pod_vectorIhEixEy"
 "_ZN5CppAD10pod_vectorIjE4dataEv"
 "_ZN5CppAD10pod_vectorIjE4freeEv"
 "_ZN5CppAD10pod_vectorIjE4swapERS1_"
 "_ZN5CppAD10pod_vectorIjE5eraseEv"
 "_ZN5CppAD10pod_vectorIjE6extendEy"
 "_ZN5CppAD10pod_vectorIjEC1Ey"
 "_ZN5CppAD10pod_vectorIjED1Ev"
 "_ZN5CppAD10pod_vectorIjEixEy"
 "_ZN5CppAD10pod_vectorINS_11sparse_list11pair_size_tEE4freeEv"
 "_ZN5CppAD10pod_vectorINS_11sparse_list11pair_size_tEE5eraseEv"
 "_ZN5CppAD10pod_vectorINS_11sparse_list11pair_size_tEE6extendEy"
 "_ZN5CppAD10pod_vectorINS_11sparse_list11pair_size_tEEC1Ey"
 "_ZN5CppAD10pod_vectorINS_11sparse_list11pair_size_tEED1Ev"
 "_ZN5CppAD10pod_vectorINS_11sparse_list11pair_size_tEEixEy"
 "_ZN5CppAD10pod_vectorINS_2ADIdEEE4dataEv"
 "_ZN5CppAD10pod_vectorINS_2ADIdEEE4freeEv"
 "_ZN5CppAD10pod_vectorINS_2ADIdEEE4swapERS3_"
 "_ZN5CppAD10pod_vectorINS_2ADIdEEE5eraseEv"
 "_ZN5CppAD10pod_vectorINS_2ADIdEEE6extendEy"
 "_ZN5CppAD10pod_vectorINS_2ADIdEEEC1Ey"
 "_ZN5CppAD10pod_vectorINS_2ADIdEEED1Ev"
 "_ZN5CppAD10pod_vectorINS_2ADIdEEEixEy"
 "_ZN5CppAD10pod_vectorINS_2ADINS1_IdEEEEE4dataEv"
 "_ZN5CppAD10pod_vectorINS_2ADINS1_IdEEEEE4freeEv"
 "_ZN5CppAD10pod_vectorINS_2ADINS1_IdEEEEE4swapERS4_"
 "_ZN5CppAD10pod_vectorINS_2ADINS1_IdEEEEE5eraseEv"
 "_ZN5CppAD10pod_vectorINS_2ADINS1_IdEEEEE6extendEy"
 "_ZN5CppAD10pod_vectorINS_2ADINS1_IdEEEEEC1Ey"
 "_ZN5CppAD10pod_vectorINS_2ADINS1_IdEEEEED1Ev"
 "_ZN5CppAD10pod_vectorINS_2ADINS1_IdEEEEEixEy"
 "_ZN5CppAD10pod_vectorIyE4dataEv"
 "_ZN5CppAD10pod_vectorIyE4freeEv"
 "_ZN5CppAD10pod_vectorIyE5eraseEv"
 "_ZN5CppAD10pod_vectorIyE6extendEy"
 "_ZN5CppAD10pod_vectorIyEC1Ey"
 "_ZN5CppAD10pod_vectorIyED1Ev"
 "_ZN5CppAD10pod_vectorIyEixEy"
 "_ZN5CppAD11atomic_baseIdE10class_nameEv"
 "_ZN5CppAD11atomic_baseIdE12class_objectEv"
 "_ZN5CppAD11atomic_baseIdE12class_objectEy"
 "_ZN5CppAD11atomic_baseIdE14for_sparse_jacEyRKNS_6vectorIbEERS3_"
 "_ZN5CppAD11atomic_baseIdE14for_sparse_jacEyRKNS_6vectorISt3setIySt4lessIyESaIyEEEERS8_"
 "_ZN5CppAD11atomic_baseIdE14rev_sparse_hesERKNS_6vectorIbEES5_RS3_yRKNS2_ISt3setIySt4lessIyESaIyEEEESE_RSC_"
 "_ZN5CppAD11atomic_baseIdE14rev_sparse_hesERKNS_6vectorIbEES5_RS3_yS5_S5_S6_"
 "_ZN5CppAD11atomic_baseIdE14rev_sparse_jacEyRKNS_6vectorIbEERS3_"
 "_ZN5CppAD11atomic_baseIdE14rev_sparse_jacEyRKNS_6vectorISt3setIySt4lessIyESaIyEEEERS8_"
 "_ZN5CppAD11atomic_baseIdE6optionENS1_11option_enumE"
 "_ZN5CppAD11atomic_baseIdE6set_idEy"
 "_ZN5CppAD11atomic_baseIdE7forwardEyyRKNS_6vectorIbEERS3_RKNS2_IdEERS7_"
 "_ZN5CppAD11atomic_baseIdE7reverseEyRKNS_6vectorIdEES5_RS3_S5_"
 "_ZN5CppAD11atomic_baseIdEC2ERKSs"
 "_ZN5CppAD11atomic_baseIdEclINS_6vectorINS_2ADIdEEEEEEvRKT_RS7_y"
 "_ZN5CppAD11atomic_baseIdED0Ev"
 "_ZN5CppAD11atomic_baseIdED1Ev"
 "_ZN5CppAD11atomic_baseIdED2Ev"
 "_ZN5CppAD11atomic_baseINS_2ADIdEEE10class_nameEv"
 "_ZN5CppAD11atomic_baseINS_2ADIdEEE12class_objectEv"
 "_ZN5CppAD11atomic_baseINS_2ADIdEEE12class_objectEy"
 "_ZN5CppAD11atomic_baseINS_2ADIdEEE14for_sparse_jacEyRKNS_6vectorIbEERS5_"
 "_ZN5CppAD11atomic_baseINS_2ADIdEEE14for_sparse_jacEyRKNS_6vectorISt3setIySt4lessIyESaIyEEEERSA_"
 "_ZN5CppAD11atomic_baseINS_2ADIdEEE14rev_sparse_hesERKNS_6vectorIbEES7_RS5_yRKNS4_ISt3setIySt4lessIyESaIyEEEESG_RSE_"
 "_ZN5CppAD11atomic_baseINS_2ADIdEEE14rev_sparse_hesERKNS_6vectorIbEES7_RS5_yS7_S7_S8_"
 "_ZN5CppAD11atomic_baseINS_2ADIdEEE14rev_sparse_jacEyRKNS_6vectorIbEERS5_"
 "_ZN5CppAD11atomic_baseINS_2ADIdEEE14rev_sparse_jacEyRKNS_6vectorISt3setIySt4lessIyESaIyEEEERSA_"
 "_ZN5CppAD11atomic_baseINS_2ADIdEEE6optionENS3_11option_enumE"
 "_ZN5CppAD11atomic_baseINS_2ADIdEEE6set_idEy"
 "_ZN5CppAD11atomic_baseINS_2ADIdEEE7forwardEyyRKNS_6vectorIbEERS5_RKNS4_IS2_EERS9_"
 "_ZN5CppAD11atomic_baseINS_2ADIdEEE7reverseEyRKNS_6vectorIS2_EES7_RS5_S7_"
 "_ZN5CppAD11atomic_baseINS_2ADIdEEEC2ERKSs"
 "_ZN5CppAD11atomic_baseINS_2ADIdEEEclINS_6vectorINS1_IS2_EEEEEEvRKT_RS8_y"
 "_ZN5CppAD11atomic_baseINS_2ADIdEEED0Ev"
 "_ZN5CppAD11atomic_baseINS_2ADIdEEED1Ev"
 "_ZN5CppAD11atomic_baseINS_2ADIdEEED2Ev"
 "_ZN5CppAD11atomic_baseINS_2ADINS1_IdEEEEE10class_nameEv"
 "_ZN5CppAD11atomic_baseINS_2ADINS1_IdEEEEE12class_objectEv"
 "_ZN5CppAD11atomic_baseINS_2ADINS1_IdEEEEE12class_objectEy"
 "_ZN5CppAD11atomic_baseINS_2ADINS1_IdEEEEE14for_sparse_jacEyRKNS_6vectorIbEERS6_"
 "_ZN5CppAD11atomic_baseINS_2ADINS1_IdEEEEE14for_sparse_jacEyRKNS_6vectorISt3setIySt4lessIyESaIyEEEERSB_"
 "_ZN5CppAD11atomic_baseINS_2ADINS1_IdEEEEE14rev_sparse_hesERKNS_6vectorIbEES8_RS6_yRKNS5_ISt3setIySt4lessIyESaIyEEEESH_RSF_"
 "_ZN5CppAD11atomic_baseINS_2ADINS1_IdEEEEE14rev_sparse_hesERKNS_6vectorIbEES8_RS6_yS8_S8_S9_"
 "_ZN5CppAD11atomic_baseINS_2ADINS1_IdEEEEE14rev_sparse_jacEyRKNS_6vectorIbEERS6_"
 "_ZN5CppAD11atomic_baseINS_2ADINS1_IdEEEEE14rev_sparse_jacEyRKNS_6vectorISt3setIySt4lessIyESaIyEEEERSB_"
 "_ZN5CppAD11atomic_baseINS_2ADINS1_IdEEEEE6optionENS4_11option_enumE"
 "_ZN5CppAD11atomic_baseINS_2ADINS1_IdEEEEE6set_idEy"
 "_ZN5CppAD11atomic_baseINS_2ADINS1_IdEEEEE7forwardEyyRKNS_6vectorIbEERS6_RKNS5_IS3_EERSA_"
 "_ZN5CppAD11atomic_baseINS_2ADINS1_IdEEEEE7reverseEyRKNS_6vectorIS3_EES8_RS6_S8_"
 "_ZN5CppAD11atomic_baseINS_2ADINS1_IdEEEEEC2ERKSs"
 "_ZN5CppAD11atomic_baseINS_2ADINS1_IdEEEEEclINS_6vectorINS1_IS3_EEEEEEvRKT_RS9_y"
 "_ZN5CppAD11atomic_baseINS_2ADINS1_IdEEEEED0Ev"
 "_ZN5CppAD11atomic_baseINS_2ADINS1_IdEEEEED1Ev"
 "_ZN5CppAD11atomic_baseINS_2ADINS1_IdEEEEED2Ev"
 "_ZN5CppAD11ForJacSweepIdNS_11sparse_packEEEvyyPNS_6playerIT_EERT0_"
 "_ZN5CppAD11IndependentIN8tmbutils6vectorINS_2ADIdEEEEEEvRT_"
 "_ZN5CppAD11IndependentIN8tmbutils6vectorINS_2ADIdEEEEEEvRT_y"
 "_ZN5CppAD11IndependentIN8tmbutils6vectorINS_2ADINS3_IdEEEEEEEEvRT_"
 "_ZN5CppAD11IndependentIN8tmbutils6vectorINS_2ADINS3_IdEEEEEEEEvRT_y"
 "_ZN5CppAD11IndependentIN8tmbutils6vectorINS_2ADINS3_INS3_IdEEEEEEEEEEvRT_"
 "_ZN5CppAD11IndependentIN8tmbutils6vectorINS_2ADINS3_INS3_IdEEEEEEEEEEvRT_y"
 "_ZN5CppAD11JacobianForINS_2ADIdEEN8tmbutils6vectorIS2_EEEEvRNS_5ADFunIT_EERKT0_RSA_"
 "_ZN5CppAD11JacobianForINS_2ADINS1_IdEEEEN8tmbutils6vectorIS3_EEEEvRNS_5ADFunIT_EERKT0_RSB_"
 "_ZN5CppAD11JacobianRevINS_2ADIdEEN8tmbutils6vectorIS2_EEEEvRNS_5ADFunIT_EERKT0_RSA_"
 "_ZN5CppAD11JacobianRevINS_2ADINS1_IdEEEEN8tmbutils6vectorIS3_EEEEvRNS_5ADFunIT_EERKT0_RSB_"
 "_ZN5CppAD11RevHesSweepIdNS_11sparse_packEEEvyyPNS_6playerIT_EERT0_PbS7_"
 "_ZN5CppAD11sparse_list6resizeEyy"
 "_ZN5CppAD11sparse_listC1Ev"
 "_ZN5CppAD11sparse_listD1Ev"
 "_ZN5CppAD11sparse_pack10assignmentEyyRKS0_"
 "_ZN5CppAD11sparse_pack11add_elementEyy"
 "_ZN5CppAD11sparse_pack12binary_unionEyyyRKS0_"
 "_ZN5CppAD11sparse_pack12next_elementEv"
 "_ZN5CppAD11sparse_pack5beginEy"
 "_ZN5CppAD11sparse_pack5clearEy"
 "_ZN5CppAD11sparse_pack6resizeEyy"
 "_ZN5CppAD11sparse_packC1Ev"
 "_ZN5CppAD11sparse_packD1Ev"
 "_ZN5CppAD12IdenticalOneERKd"
 "_ZN5CppAD12IdenticalOneIdEEbRKNS_2ADIT_EE"
 "_ZN5CppAD12IdenticalOneINS_2ADIdEEEEbRKNS1_IT_EE"
 "_ZN5CppAD12IdenticalParERKd"
 "_ZN5CppAD12IdenticalParIdEEbRKNS_2ADIT_EE"
 "_ZN5CppAD12IdenticalParINS_2ADIdEEEEbRKNS1_IT_EE"
 "_ZN5CppAD12IdenticalParINS_2ADINS1_IdEEEEEEbRKNS1_IT_EE"
 "_ZN5CppAD12LessThanZeroERKd"
 "_ZN5CppAD12LessThanZeroIdEEbRKNS_2ADIT_EE"
 "_ZN5CppAD12LessThanZeroINS_2ADIdEEEEbRKNS1_IT_EE"
 "_ZN5CppAD12ReverseSweepIdEEvyyyPNS_6playerIT_EEyPKS2_yPS2_PbRKNS_10pod_vectorIjEE"
 "_ZN5CppAD12ReverseSweepINS_2ADIdEEEEvyyyPNS_6playerIT_EEyPKS4_yPS4_PbRKNS_10pod_vectorIjEE"
 "_ZN5CppAD12ReverseSweepINS_2ADINS1_IdEEEEEEvyyyPNS_6playerIT_EEyPKS5_yPS5_PbRKNS_10pod_vectorIjEE"
 "_ZN5CppAD12thread_alloc10capacity_tC1Ev"
 "_ZN5CppAD12thread_alloc10get_memoryEyRy"
 "_ZN5CppAD12thread_alloc10thread_numEv"
 "_ZN5CppAD12thread_alloc11thread_infoEyb"
 "_ZN5CppAD12thread_alloc12create_arrayIbEEPT_yRy"
 "_ZN5CppAD12thread_alloc12create_arrayIdEEPT_yRy"
 "_ZN5CppAD12thread_alloc12create_arrayIiEEPT_yRy"
 "_ZN5CppAD12thread_alloc12create_arrayINS_10tape_pointEEEPT_yRy"
 "_ZN5CppAD12thread_alloc12create_arrayINS_18index_sort_elementIyEEEEPT_yRy"
 "_ZN5CppAD12thread_alloc12create_arrayINS_2ADIdEEEEPT_yRy"
 "_ZN5CppAD12thread_alloc12create_arrayINS_2ADINS2_IdEEEEEEPT_yRy"
 "_ZN5CppAD12thread_alloc12create_arrayINS_2ADINS2_INS2_IdEEEEEEEEPT_yRy"
 "_ZN5CppAD12thread_alloc12create_arrayINS_6vectorIiEEEEPT_yRy"
 "_ZN5CppAD12thread_alloc12create_arrayINS_8optimize16struct_user_infoEEEPT_yRy"
 "_ZN5CppAD12thread_alloc12create_arrayINS_8optimize17enum_connect_typeEEEPT_yRy"
 "_ZN5CppAD12thread_alloc12create_arrayINS_8optimize17struct_cskip_infoEEEPT_yRy"
 "_ZN5CppAD12thread_alloc12create_arrayINS_8optimize19class_set_cexp_pairEEEPT_yRy"
 "_ZN5CppAD12thread_alloc12create_arrayINS_8optimize19struct_old_variableEEEPT_yRy"
 "_ZN5CppAD12thread_alloc12create_arrayISt3setIySt4lessIyESaIyEEEEPT_yRy"
 "_ZN5CppAD12thread_alloc12create_arrayIyEEPT_yRy"
 "_ZN5CppAD12thread_alloc12delete_arrayIbEEvPT_"
 "_ZN5CppAD12thread_alloc12delete_arrayIdEEvPT_"
 "_ZN5CppAD12thread_alloc12delete_arrayIiEEvPT_"
 "_ZN5CppAD12thread_alloc12delete_arrayINS_10tape_pointEEEvPT_"
 "_ZN5CppAD12thread_alloc12delete_arrayINS_18index_sort_elementIyEEEEvPT_"
 "_ZN5CppAD12thread_alloc12delete_arrayINS_2ADIdEEEEvPT_"
 "_ZN5CppAD12thread_alloc12delete_arrayINS_2ADINS2_IdEEEEEEvPT_"
 "_ZN5CppAD12thread_alloc12delete_arrayINS_2ADINS2_INS2_IdEEEEEEEEvPT_"
 "_ZN5CppAD12thread_alloc12delete_arrayINS_6vectorIiEEEEvPT_"
 "_ZN5CppAD12thread_alloc12delete_arrayINS_8optimize16struct_user_infoEEEvPT_"
 "_ZN5CppAD12thread_alloc12delete_arrayINS_8optimize17enum_connect_typeEEEvPT_"
 "_ZN5CppAD12thread_alloc12delete_arrayINS_8optimize17struct_cskip_infoEEEvPT_"
 "_ZN5CppAD12thread_alloc12delete_arrayINS_8optimize19class_set_cexp_pairEEEvPT_"
 "_ZN5CppAD12thread_alloc12delete_arrayINS_8optimize19struct_old_variableEEEvPT_"
 "_ZN5CppAD12thread_alloc12delete_arrayISt3setIySt4lessIyESaIyEEEEvPT_"
 "_ZN5CppAD12thread_alloc12delete_arrayIyEEvPT_"
 "_ZN5CppAD12thread_alloc13capacity_infoEv"
 "_ZN5CppAD12thread_alloc13dec_availableEyy"
 "_ZN5CppAD12thread_alloc13inc_availableEyy"
 "_ZN5CppAD12thread_alloc13return_memoryEPv"
 "_ZN5CppAD12thread_alloc17thread_alloc_infoC1Ev"
 "_ZN5CppAD12thread_alloc18set_get_thread_numEPFyvEb"
 "_ZN5CppAD12thread_alloc19set_get_hold_memoryEbb"
 "_ZN5CppAD12thread_alloc7block_tC1Ev"
 "_ZN5CppAD12thread_alloc9dec_inuseEyy"
 "_ZN5CppAD12thread_alloc9inc_inuseEyy"
 "_ZN5CppAD13forward_pri_0IdEEvRSoPKjyPKcyPKT_yS8_"
 "_ZN5CppAD13forward_pri_0INS_2ADIdEEEEvRSoPKjyPKcyPKT_ySA_"
 "_ZN5CppAD13forward_pri_0INS_2ADINS1_IdEEEEEEvRSoPKjyPKcyPKT_ySB_"
 "_ZN5CppAD13forward0sweepIdEEvRSobyyPNS_6playerIT_EEyPS3_PbRNS_10pod_vectorIjEEyRySB_"
 "_ZN5CppAD13forward0sweepINS_2ADIdEEEEvRSobyyPNS_6playerIT_EEyPS5_PbRNS_10pod_vectorIjEEyRySD_"
 "_ZN5CppAD13forward0sweepINS_2ADINS1_IdEEEEEEvRSobyyPNS_6playerIT_EEyPS6_PbRNS_10pod_vectorIjEEyRySE_"
 "_ZN5CppAD13forward1sweepIdEEvRSobyyyyPNS_6playerIT_EEyPS3_PbRNS_10pod_vectorIjEEyRySB_"
 "_ZN5CppAD13forward1sweepINS_2ADIdEEEEvRSobyyyyPNS_6playerIT_EEyPS5_PbRNS_10pod_vectorIjEEyRySD_"
 "_ZN5CppAD13forward1sweepINS_2ADINS1_IdEEEEEEvRSobyyyyPNS_6playerIT_EEyPS6_PbRNS_10pod_vectorIjEEyRySE_"
 "_ZN5CppAD13IdenticalZeroERKd"
 "_ZN5CppAD13IdenticalZeroIdEEbRKNS_2ADIT_EE"
 "_ZN5CppAD13IdenticalZeroINS_2ADIdEEEEbRKNS1_IT_EE"
 "_ZN5CppAD14forward_abs_opIdEEvyyyyyPT_"
 "_ZN5CppAD14forward_abs_opINS_2ADIdEEEEvyyyyyPT_"
 "_ZN5CppAD14forward_abs_opINS_2ADINS1_IdEEEEEEvyyyyyPT_"
 "_ZN5CppAD14forward_cos_opIdEEvyyyyyPT_"
 "_ZN5CppAD14forward_cos_opINS_2ADIdEEEEvyyyyyPT_"
 "_ZN5CppAD14forward_cos_opINS_2ADINS1_IdEEEEEEvyyyyyPT_"
 "_ZN5CppAD14forward_dis_opIdEEvyyyyPKjyPT_"
 "_ZN5CppAD14forward_dis_opINS_2ADIdEEEEvyyyyPKjyPT_"
 "_ZN5CppAD14forward_dis_opINS_2ADINS1_IdEEEEEEvyyyyPKjyPT_"
 "_ZN5CppAD14forward_exp_opIdEEvyyyyyPT_"
 "_ZN5CppAD14forward_exp_opINS_2ADIdEEEEvyyyyyPT_"
 "_ZN5CppAD14forward_exp_opINS_2ADINS1_IdEEEEEEvyyyyyPT_"
 "_ZN5CppAD14forward_log_opIdEEvyyyyyPT_"
 "_ZN5CppAD14forward_log_opINS_2ADIdEEEEvyyyyyPT_"
 "_ZN5CppAD14forward_log_opINS_2ADINS1_IdEEEEEEvyyyyyPT_"
 "_ZN5CppAD14forward_sin_opIdEEvyyyyyPT_"
 "_ZN5CppAD14forward_sin_opINS_2ADIdEEEEvyyyyyPT_"
 "_ZN5CppAD14forward_sin_opINS_2ADINS1_IdEEEEEEvyyyyyPT_"
 "_ZN5CppAD14forward_tan_opIdEEvyyyyyPT_"
 "_ZN5CppAD14forward_tan_opINS_2ADIdEEEEvyyyyyPT_"
 "_ZN5CppAD14forward_tan_opINS_2ADINS1_IdEEEEEEvyyyyyPT_"
 "_ZN5CppAD14LessThanOrZeroERKd"
 "_ZN5CppAD14LessThanOrZeroIdEEbRKNS_2ADIT_EE"
 "_ZN5CppAD14LessThanOrZeroINS_2ADIdEEEEbRKNS1_IT_EE"
 "_ZN5CppAD14myReverseSweepINS_2ADIdEEEEvyyyPNS_6playerIT_EEyPKS4_yPS4_yPNS_5ADFunIS4_EERKNS_10pod_vectorIjEE"
 "_ZN5CppAD14reverse_abs_opIdEEvyyyyPKT_yPS1_"
 "_ZN5CppAD14reverse_abs_opINS_2ADIdEEEEvyyyyPKT_yPS3_"
 "_ZN5CppAD14reverse_abs_opINS_2ADINS1_IdEEEEEEvyyyyPKT_yPS4_"
 "_ZN5CppAD14reverse_cos_opIdEEvyyyyPKT_yPS1_"
 "_ZN5CppAD14reverse_cos_opINS_2ADIdEEEEvyyyyPKT_yPS3_"
 "_ZN5CppAD14reverse_cos_opINS_2ADINS1_IdEEEEEEvyyyyPKT_yPS4_"
 "_ZN5CppAD14reverse_exp_opIdEEvyyyyPKT_yPS1_"
 "_ZN5CppAD14reverse_exp_opINS_2ADIdEEEEvyyyyPKT_yPS3_"
 "_ZN5CppAD14reverse_exp_opINS_2ADINS1_IdEEEEEEvyyyyPKT_yPS4_"
 "_ZN5CppAD14reverse_log_opIdEEvyyyyPKT_yPS1_"
 "_ZN5CppAD14reverse_log_opINS_2ADIdEEEEvyyyyPKT_yPS3_"
 "_ZN5CppAD14reverse_log_opINS_2ADINS1_IdEEEEEEvyyyyPKT_yPS4_"
 "_ZN5CppAD14reverse_sin_opIdEEvyyyyPKT_yPS1_"
 "_ZN5CppAD14reverse_sin_opINS_2ADIdEEEEvyyyyPKT_yPS3_"
 "_ZN5CppAD14reverse_sin_opINS_2ADINS1_IdEEEEEEvyyyyPKT_yPS4_"
 "_ZN5CppAD14reverse_tan_opIdEEvyyyyPKT_yPS1_"
 "_ZN5CppAD14reverse_tan_opINS_2ADIdEEEEvyyyyPKT_yPS3_"
 "_ZN5CppAD14reverse_tan_opINS_2ADINS1_IdEEEEEEvyyyyPKT_yPS4_"
 "_ZN5CppAD15CondExpTemplateIddEET0_NS_9CompareOpERKT_S5_RKS1_S7_"
 "_ZN5CppAD15forward_acos_opIdEEvyyyyyPT_"
 "_ZN5CppAD15forward_acos_opINS_2ADIdEEEEvyyyyyPT_"
 "_ZN5CppAD15forward_acos_opINS_2ADINS1_IdEEEEEEvyyyyyPT_"
 "_ZN5CppAD15forward_asin_opIdEEvyyyyyPT_"
 "_ZN5CppAD15forward_asin_opINS_2ADIdEEEEvyyyyyPT_"
 "_ZN5CppAD15forward_asin_opINS_2ADINS1_IdEEEEEEvyyyyyPT_"
 "_ZN5CppAD15forward_atan_opIdEEvyyyyyPT_"
 "_ZN5CppAD15forward_atan_opINS_2ADIdEEEEvyyyyyPT_"
 "_ZN5CppAD15forward_atan_opINS_2ADINS1_IdEEEEEEvyyyyyPT_"
 "_ZN5CppAD15forward_cond_opIdEEvyyyPKjyPKT_yPS3_"
 "_ZN5CppAD15forward_cond_opINS_2ADIdEEEEvyyyPKjyPKT_yPS5_"
 "_ZN5CppAD15forward_cond_opINS_2ADINS1_IdEEEEEEvyyyPKjyPKT_yPS6_"
 "_ZN5CppAD15forward_cosh_opIdEEvyyyyyPT_"
 "_ZN5CppAD15forward_cosh_opINS_2ADIdEEEEvyyyyyPT_"
 "_ZN5CppAD15forward_cosh_opINS_2ADINS1_IdEEEEEEvyyyyyPT_"
 "_ZN5CppAD15forward_csum_opIdEEvyyyPKjyPKT_yPS3_"
 "_ZN5CppAD15forward_csum_opINS_2ADIdEEEEvyyyPKjyPKT_yPS5_"
 "_ZN5CppAD15forward_csum_opINS_2ADINS1_IdEEEEEEvyyyPKjyPKT_yPS6_"
 "_ZN5CppAD15forward_load_opIdEEvPKNS_6playerIT_EENS_6OpCodeEyyyyyPKjS8_PS2_"
 "_ZN5CppAD15forward_load_opINS_2ADIdEEEEvPKNS_6playerIT_EENS_6OpCodeEyyyyyPKjSA_PS4_"
 "_ZN5CppAD15forward_load_opINS_2ADINS1_IdEEEEEEvPKNS_6playerIT_EENS_6OpCodeEyyyyyPKjSB_PS5_"
 "_ZN5CppAD15forward_sign_opIdEEvyyyyyPT_"
 "_ZN5CppAD15forward_sign_opINS_2ADIdEEEEvyyyyyPT_"
 "_ZN5CppAD15forward_sign_opINS_2ADINS1_IdEEEEEEvyyyyyPT_"
 "_ZN5CppAD15forward_sinh_opIdEEvyyyyyPT_"
 "_ZN5CppAD15forward_sinh_opINS_2ADIdEEEEvyyyyyPT_"
 "_ZN5CppAD15forward_sinh_opINS_2ADINS1_IdEEEEEEvyyyyyPT_"
 "_ZN5CppAD15forward_sqrt_opIdEEvyyyyyPT_"
 "_ZN5CppAD15forward_sqrt_opINS_2ADIdEEEEvyyyyyPT_"
 "_ZN5CppAD15forward_sqrt_opINS_2ADINS1_IdEEEEEEvyyyyyPT_"
 "_ZN5CppAD15forward_tanh_opIdEEvyyyyyPT_"
 "_ZN5CppAD15forward_tanh_opINS_2ADIdEEEEvyyyyyPT_"
 "_ZN5CppAD15forward_tanh_opINS_2ADINS1_IdEEEEEEvyyyyyPT_"
 "_ZN5CppAD15GreaterThanZeroERKd"
 "_ZN5CppAD15GreaterThanZeroIdEEbRKNS_2ADIT_EE"
 "_ZN5CppAD15GreaterThanZeroINS_2ADIdEEEEbRKNS1_IT_EE"
 "_ZN5CppAD15reverse_acos_opIdEEvyyyyPKT_yPS1_"
 "_ZN5CppAD15reverse_acos_opINS_2ADIdEEEEvyyyyPKT_yPS3_"
 "_ZN5CppAD15reverse_acos_opINS_2ADINS1_IdEEEEEEvyyyyPKT_yPS4_"
 "_ZN5CppAD15reverse_asin_opIdEEvyyyyPKT_yPS1_"
 "_ZN5CppAD15reverse_asin_opINS_2ADIdEEEEvyyyyPKT_yPS3_"
 "_ZN5CppAD15reverse_asin_opINS_2ADINS1_IdEEEEEEvyyyyPKT_yPS4_"
 "_ZN5CppAD15reverse_atan_opIdEEvyyyyPKT_yPS1_"
 "_ZN5CppAD15reverse_atan_opINS_2ADIdEEEEvyyyyPKT_yPS3_"
 "_ZN5CppAD15reverse_atan_opINS_2ADINS1_IdEEEEEEvyyyyPKT_yPS4_"
 "_ZN5CppAD15reverse_cond_opIdEEvyyPKjyPKT_yS5_yPS3_"
 "_ZN5CppAD15reverse_cond_opINS_2ADIdEEEEvyyPKjyPKT_yS7_yPS5_"
 "_ZN5CppAD15reverse_cond_opINS_2ADINS1_IdEEEEEEvyyPKjyPKT_yS8_yPS6_"
 "_ZN5CppAD15reverse_cosh_opIdEEvyyyyPKT_yPS1_"
 "_ZN5CppAD15reverse_cosh_opINS_2ADIdEEEEvyyyyPKT_yPS3_"
 "_ZN5CppAD15reverse_cosh_opINS_2ADINS1_IdEEEEEEvyyyyPKT_yPS4_"
 "_ZN5CppAD15reverse_csum_opIdEEvyyPKjyPT_"
 "_ZN5CppAD15reverse_csum_opINS_2ADIdEEEEvyyPKjyPT_"
 "_ZN5CppAD15reverse_csum_opINS_2ADINS1_IdEEEEEEvyyPKjyPT_"
 "_ZN5CppAD15reverse_load_opIdEEvNS_6OpCodeEyyPKjyPKT_yPS4_S3_"
 "_ZN5CppAD15reverse_load_opINS_2ADIdEEEEvNS_6OpCodeEyyPKjyPKT_yPS6_S5_"
 "_ZN5CppAD15reverse_load_opINS_2ADINS1_IdEEEEEEvNS_6OpCodeEyyPKjyPKT_yPS7_S6_"
 "_ZN5CppAD15reverse_sign_opIdEEvyyyyPKT_yPS1_"
 "_ZN5CppAD15reverse_sign_opINS_2ADIdEEEEvyyyyPKT_yPS3_"
 "_ZN5CppAD15reverse_sign_opINS_2ADINS1_IdEEEEEEvyyyyPKT_yPS4_"
 "_ZN5CppAD15reverse_sinh_opIdEEvyyyyPKT_yPS1_"
 "_ZN5CppAD15reverse_sinh_opINS_2ADIdEEEEvyyyyPKT_yPS3_"
 "_ZN5CppAD15reverse_sinh_opINS_2ADINS1_IdEEEEEEvyyyyPKT_yPS4_"
 "_ZN5CppAD15reverse_sqrt_opIdEEvyyyyPKT_yPS1_"
 "_ZN5CppAD15reverse_sqrt_opINS_2ADIdEEEEvyyyyPKT_yPS3_"
 "_ZN5CppAD15reverse_sqrt_opINS_2ADINS1_IdEEEEEEvyyyyPKT_yPS4_"
 "_ZN5CppAD15reverse_tanh_opIdEEvyyyyPKT_yPS1_"
 "_ZN5CppAD15reverse_tanh_opINS_2ADIdEEEEvyyyyPKT_yPS3_"
 "_ZN5CppAD15reverse_tanh_opINS_2ADINS1_IdEEEEEEvyyyyPKT_yPS4_"
 "_ZN5CppAD16ForSparseJacBoolIdN8tmbutils6vectorIbEEEEvbyRKT0_RS4_yRNS_6vectorIyEESA_RNS_6playerIT_EERNS_11sparse_packE"
 "_ZN5CppAD16forward_abs_op_0IdEEvyyyPT_"
 "_ZN5CppAD16forward_abs_op_0INS_2ADIdEEEEvyyyPT_"
 "_ZN5CppAD16forward_abs_op_0INS_2ADINS1_IdEEEEEEvyyyPT_"
 "_ZN5CppAD16forward_addpv_opIdEEvyyyPKjPKT_yPS3_"
 "_ZN5CppAD16forward_addpv_opINS_2ADIdEEEEvyyyPKjPKT_yPS5_"
 "_ZN5CppAD16forward_addpv_opINS_2ADINS1_IdEEEEEEvyyyPKjPKT_yPS6_"
 "_ZN5CppAD16forward_addvv_opIdEEvyyyPKjPKT_yPS3_"
 "_ZN5CppAD16forward_addvv_opINS_2ADIdEEEEvyyyPKjPKT_yPS5_"
 "_ZN5CppAD16forward_addvv_opINS_2ADINS1_IdEEEEEEvyyyPKjPKT_yPS6_"
 "_ZN5CppAD16forward_cos_op_0IdEEvyyyPT_"
 "_ZN5CppAD16forward_cos_op_0INS_2ADIdEEEEvyyyPT_"
 "_ZN5CppAD16forward_cos_op_0INS_2ADINS1_IdEEEEEEvyyyPT_"
 "_ZN5CppAD16forward_divpv_opIdEEvyyyPKjPKT_yPS3_"
 "_ZN5CppAD16forward_divpv_opINS_2ADIdEEEEvyyyPKjPKT_yPS5_"
 "_ZN5CppAD16forward_divpv_opINS_2ADINS1_IdEEEEEEvyyyPKjPKT_yPS6_"
 "_ZN5CppAD16forward_divvp_opIdEEvyyyPKjPKT_yPS3_"
 "_ZN5CppAD16forward_divvp_opINS_2ADIdEEEEvyyyPKjPKT_yPS5_"
 "_ZN5CppAD16forward_divvp_opINS_2ADINS1_IdEEEEEEvyyyPKjPKT_yPS6_"
 "_ZN5CppAD16forward_divvv_opIdEEvyyyPKjPKT_yPS3_"
 "_ZN5CppAD16forward_divvv_opINS_2ADIdEEEEvyyyPKjPKT_yPS5_"
 "_ZN5CppAD16forward_divvv_opINS_2ADINS1_IdEEEEEEvyyyPKjPKT_yPS6_"
 "_ZN5CppAD16forward_exp_op_0IdEEvyyyPT_"
 "_ZN5CppAD16forward_exp_op_0INS_2ADIdEEEEvyyyPT_"
 "_ZN5CppAD16forward_exp_op_0INS_2ADINS1_IdEEEEEEvyyyPT_"
 "_ZN5CppAD16forward_log_op_0IdEEvyyyPT_"
 "_ZN5CppAD16forward_log_op_0INS_2ADIdEEEEvyyyPT_"
 "_ZN5CppAD16forward_log_op_0INS_2ADINS1_IdEEEEEEvyyyPT_"
 "_ZN5CppAD16forward_mulpv_opIdEEvyyyPKjPKT_yPS3_"
 "_ZN5CppAD16forward_mulpv_opINS_2ADIdEEEEvyyyPKjPKT_yPS5_"
 "_ZN5CppAD16forward_mulpv_opINS_2ADINS1_IdEEEEEEvyyyPKjPKT_yPS6_"
 "_ZN5CppAD16forward_mulvv_opIdEEvyyyPKjPKT_yPS3_"
 "_ZN5CppAD16forward_mulvv_opINS_2ADIdEEEEvyyyPKjPKT_yPS5_"
 "_ZN5CppAD16forward_mulvv_opINS_2ADINS1_IdEEEEEEvyyyPKjPKT_yPS6_"
 "_ZN5CppAD16forward_par_op_0IdEEvyPKjyPKT_yPS3_"
 "_ZN5CppAD16forward_par_op_0INS_2ADIdEEEEvyPKjyPKT_yPS5_"
 "_ZN5CppAD16forward_par_op_0INS_2ADINS1_IdEEEEEEvyPKjyPKT_yPS6_"
 "_ZN5CppAD16forward_powpv_opIdEEvyyyPKjPKT_yPS3_"
 "_ZN5CppAD16forward_powpv_opINS_2ADIdEEEEvyyyPKjPKT_yPS5_"
 "_ZN5CppAD16forward_powpv_opINS_2ADINS1_IdEEEEEEvyyyPKjPKT_yPS6_"
 "_ZN5CppAD16forward_powvp_opIdEEvyyyPKjPKT_yPS3_"
 "_ZN5CppAD16forward_powvp_opINS_2ADIdEEEEvyyyPKjPKT_yPS5_"
 "_ZN5CppAD16forward_powvp_opINS_2ADINS1_IdEEEEEEvyyyPKjPKT_yPS6_"
 "_ZN5CppAD16forward_powvv_opIdEEvyyyPKjPKT_yPS3_"
 "_ZN5CppAD16forward_powvv_opINS_2ADIdEEEEvyyyPKjPKT_yPS5_"
 "_ZN5CppAD16forward_powvv_opINS_2ADINS1_IdEEEEEEvyyyPKjPKT_yPS6_"
 "_ZN5CppAD16forward_sin_op_0IdEEvyyyPT_"
 "_ZN5CppAD16forward_sin_op_0INS_2ADIdEEEEvyyyPT_"
 "_ZN5CppAD16forward_sin_op_0INS_2ADINS1_IdEEEEEEvyyyPT_"
 "_ZN5CppAD16forward_subpv_opIdEEvyyyPKjPKT_yPS3_"
 "_ZN5CppAD16forward_subpv_opINS_2ADIdEEEEvyyyPKjPKT_yPS5_"
 "_ZN5CppAD16forward_subpv_opINS_2ADINS1_IdEEEEEEvyyyPKjPKT_yPS6_"
 "_ZN5CppAD16forward_subvp_opIdEEvyyyPKjPKT_yPS3_"
 "_ZN5CppAD16forward_subvp_opINS_2ADIdEEEEvyyyPKjPKT_yPS5_"
 "_ZN5CppAD16forward_subvp_opINS_2ADINS1_IdEEEEEEvyyyPKjPKT_yPS6_"
 "_ZN5CppAD16forward_subvv_opIdEEvyyyPKjPKT_yPS3_"
 "_ZN5CppAD16forward_subvv_opINS_2ADIdEEEEvyyyPKjPKT_yPS5_"
 "_ZN5CppAD16forward_subvv_opINS_2ADINS1_IdEEEEEEvyyyPKjPKT_yPS6_"
 "_ZN5CppAD16forward_tan_op_0IdEEvyyyPT_"
 "_ZN5CppAD16forward_tan_op_0INS_2ADIdEEEEvyyyPT_"
 "_ZN5CppAD16forward_tan_op_0INS_2ADINS1_IdEEEEEEvyyyPT_"
 "_ZN5CppAD16reverse_addpv_opIdEEvyyPKjPKT_yS5_yPS3_"
 "_ZN5CppAD16reverse_addpv_opINS_2ADIdEEEEvyyPKjPKT_yS7_yPS5_"
 "_ZN5CppAD16reverse_addpv_opINS_2ADINS1_IdEEEEEEvyyPKjPKT_yS8_yPS6_"
 "_ZN5CppAD16reverse_addvv_opIdEEvyyPKjPKT_yS5_yPS3_"
 "_ZN5CppAD16reverse_addvv_opINS_2ADIdEEEEvyyPKjPKT_yS7_yPS5_"
 "_ZN5CppAD16reverse_addvv_opINS_2ADINS1_IdEEEEEEvyyPKjPKT_yS8_yPS6_"
 "_ZN5CppAD16reverse_divpv_opIdEEvyyPKjPKT_yS5_yPS3_"
 "_ZN5CppAD16reverse_divpv_opINS_2ADIdEEEEvyyPKjPKT_yS7_yPS5_"
 "_ZN5CppAD16reverse_divpv_opINS_2ADINS1_IdEEEEEEvyyPKjPKT_yS8_yPS6_"
 "_ZN5CppAD16reverse_divvp_opIdEEvyyPKjPKT_yS5_yPS3_"
 "_ZN5CppAD16reverse_divvp_opINS_2ADIdEEEEvyyPKjPKT_yS7_yPS5_"
 "_ZN5CppAD16reverse_divvp_opINS_2ADINS1_IdEEEEEEvyyPKjPKT_yS8_yPS6_"
 "_ZN5CppAD16reverse_divvv_opIdEEvyyPKjPKT_yS5_yPS3_"
 "_ZN5CppAD16reverse_divvv_opINS_2ADIdEEEEvyyPKjPKT_yS7_yPS5_"
 "_ZN5CppAD16reverse_divvv_opINS_2ADINS1_IdEEEEEEvyyPKjPKT_yS8_yPS6_"
 "_ZN5CppAD16reverse_mulpv_opIdEEvyyPKjPKT_yS5_yPS3_"
 "_ZN5CppAD16reverse_mulpv_opINS_2ADIdEEEEvyyPKjPKT_yS7_yPS5_"
 "_ZN5CppAD16reverse_mulpv_opINS_2ADINS1_IdEEEEEEvyyPKjPKT_yS8_yPS6_"
 "_ZN5CppAD16reverse_mulvv_opIdEEvyyPKjPKT_yS5_yPS3_"
 "_ZN5CppAD16reverse_mulvv_opINS_2ADIdEEEEvyyPKjPKT_yS7_yPS5_"
 "_ZN5CppAD16reverse_mulvv_opINS_2ADINS1_IdEEEEEEvyyPKjPKT_yS8_yPS6_"
 "_ZN5CppAD16reverse_powpv_opIdEEvyyPKjPKT_yS5_yPS3_"
 "_ZN5CppAD16reverse_powpv_opINS_2ADIdEEEEvyyPKjPKT_yS7_yPS5_"
 "_ZN5CppAD16reverse_powpv_opINS_2ADINS1_IdEEEEEEvyyPKjPKT_yS8_yPS6_"
 "_ZN5CppAD16reverse_powvp_opIdEEvyyPKjPKT_yS5_yPS3_"
 "_ZN5CppAD16reverse_powvp_opINS_2ADIdEEEEvyyPKjPKT_yS7_yPS5_"
 "_ZN5CppAD16reverse_powvp_opINS_2ADINS1_IdEEEEEEvyyPKjPKT_yS8_yPS6_"
 "_ZN5CppAD16reverse_powvv_opIdEEvyyPKjPKT_yS5_yPS3_"
 "_ZN5CppAD16reverse_powvv_opINS_2ADIdEEEEvyyPKjPKT_yS7_yPS5_"
 "_ZN5CppAD16reverse_powvv_opINS_2ADINS1_IdEEEEEEvyyPKjPKT_yS8_yPS6_"
 "_ZN5CppAD16reverse_subpv_opIdEEvyyPKjPKT_yS5_yPS3_"
 "_ZN5CppAD16reverse_subpv_opINS_2ADIdEEEEvyyPKjPKT_yS7_yPS5_"
 "_ZN5CppAD16reverse_subpv_opINS_2ADINS1_IdEEEEEEvyyPKjPKT_yS8_yPS6_"
 "_ZN5CppAD16reverse_subvp_opIdEEvyyPKjPKT_yS5_yPS3_"
 "_ZN5CppAD16reverse_subvp_opINS_2ADIdEEEEvyyPKjPKT_yS7_yPS5_"
 "_ZN5CppAD16reverse_subvp_opINS_2ADINS1_IdEEEEEEvyyPKjPKT_yS8_yPS6_"
 "_ZN5CppAD16reverse_subvv_opIdEEvyyPKjPKT_yS5_yPS3_"
 "_ZN5CppAD16reverse_subvv_opINS_2ADIdEEEEvyyPKjPKT_yS7_yPS5_"
 "_ZN5CppAD16reverse_subvv_opINS_2ADINS1_IdEEEEEEvyyPKjPKT_yS8_yPS6_"
 "_ZN5CppAD16RevSparseHesBoolIdN8tmbutils6vectorIbEEEEvbyRKT0_RS4_yRNS_6vectorIyEESA_RNS_6playerIT_EERNS_11sparse_packE"
 "_ZN5CppAD17CheckSimpleVectorIbN8tmbutils6vectorIbEEEEvv"
 "_ZN5CppAD17CheckSimpleVectorIdN5Eigen6MatrixIdLin1ELi1ELi0ELin1ELi1EEEEEvv"
 "_ZN5CppAD17CheckSimpleVectorIdN8tmbutils6vectorIdEEEEvv"
 "_ZN5CppAD17CheckSimpleVectorINS_2ADIdEEN8tmbutils6vectorIS2_EEEEvv"
 "_ZN5CppAD17CheckSimpleVectorINS_2ADINS1_IdEEEEN8tmbutils6vectorIS3_EEEEvv"
 "_ZN5CppAD17CheckSimpleVectorINS_2ADINS1_INS1_IdEEEEEEN8tmbutils6vectorIS4_EEEEvv"
 "_ZN5CppAD17CheckSimpleVectorIyN8tmbutils6vectorIyEEEEvv"
 "_ZN5CppAD17CheckSimpleVectorIyNS_6vectorIyEEEEvv"
 "_ZN5CppAD17forward_acos_op_0IdEEvyyyPT_"
 "_ZN5CppAD17forward_acos_op_0INS_2ADIdEEEEvyyyPT_"
 "_ZN5CppAD17forward_acos_op_0INS_2ADINS1_IdEEEEEEvyyyPT_"
 "_ZN5CppAD17forward_asin_op_0IdEEvyyyPT_"
 "_ZN5CppAD17forward_asin_op_0INS_2ADIdEEEEvyyyPT_"
 "_ZN5CppAD17forward_asin_op_0INS_2ADINS1_IdEEEEEEvyyyPT_"
 "_ZN5CppAD17forward_atan_op_0IdEEvyyyPT_"
 "_ZN5CppAD17forward_atan_op_0INS_2ADIdEEEEvyyyPT_"
 "_ZN5CppAD17forward_atan_op_0INS_2ADINS1_IdEEEEEEvyyyPT_"
 "_ZN5CppAD17forward_cond_op_0IdEEvyPKjyPKT_yPS3_"
 "_ZN5CppAD17forward_cond_op_0INS_2ADIdEEEEvyPKjyPKT_yPS5_"
 "_ZN5CppAD17forward_cond_op_0INS_2ADINS1_IdEEEEEEvyPKjyPKT_yPS6_"
 "_ZN5CppAD17forward_cosh_op_0IdEEvyyyPT_"
 "_ZN5CppAD17forward_cosh_op_0INS_2ADIdEEEEvyyyPT_"
 "_ZN5CppAD17forward_cosh_op_0INS_2ADINS1_IdEEEEEEvyyyPT_"
 "_ZN5CppAD17forward_eqpv_op_0IdEEvRyPKjPKT_yPS4_"
 "_ZN5CppAD17forward_eqpv_op_0INS_2ADIdEEEEvRyPKjPKT_yPS6_"
 "_ZN5CppAD17forward_eqpv_op_0INS_2ADINS1_IdEEEEEEvRyPKjPKT_yPS7_"
 "_ZN5CppAD17forward_eqvv_op_0IdEEvRyPKjPKT_yPS4_"
 "_ZN5CppAD17forward_eqvv_op_0INS_2ADIdEEEEvRyPKjPKT_yPS6_"
 "_ZN5CppAD17forward_eqvv_op_0INS_2ADINS1_IdEEEEEEvRyPKjPKT_yPS7_"
 "_ZN5CppAD17forward_lepv_op_0IdEEvRyPKjPKT_yPS4_"
 "_ZN5CppAD17forward_lepv_op_0INS_2ADIdEEEEvRyPKjPKT_yPS6_"
 "_ZN5CppAD17forward_lepv_op_0INS_2ADINS1_IdEEEEEEvRyPKjPKT_yPS7_"
 "_ZN5CppAD17forward_levp_op_0IdEEvRyPKjPKT_yPS4_"
 "_ZN5CppAD17forward_levp_op_0INS_2ADIdEEEEvRyPKjPKT_yPS6_"
 "_ZN5CppAD17forward_levp_op_0INS_2ADINS1_IdEEEEEEvRyPKjPKT_yPS7_"
 "_ZN5CppAD17forward_levv_op_0IdEEvRyPKjPKT_yPS4_"
 "_ZN5CppAD17forward_levv_op_0INS_2ADIdEEEEvRyPKjPKT_yPS6_"
 "_ZN5CppAD17forward_levv_op_0INS_2ADINS1_IdEEEEEEvRyPKjPKT_yPS7_"
 "_ZN5CppAD17forward_ltpv_op_0IdEEvRyPKjPKT_yPS4_"
 "_ZN5CppAD17forward_ltpv_op_0INS_2ADIdEEEEvRyPKjPKT_yPS6_"
 "_ZN5CppAD17forward_ltpv_op_0INS_2ADINS1_IdEEEEEEvRyPKjPKT_yPS7_"
 "_ZN5CppAD17forward_ltvp_op_0IdEEvRyPKjPKT_yPS4_"
 "_ZN5CppAD17forward_ltvp_op_0INS_2ADIdEEEEvRyPKjPKT_yPS6_"
 "_ZN5CppAD17forward_ltvp_op_0INS_2ADINS1_IdEEEEEEvRyPKjPKT_yPS7_"
 "_ZN5CppAD17forward_ltvv_op_0IdEEvRyPKjPKT_yPS4_"
 "_ZN5CppAD17forward_ltvv_op_0INS_2ADIdEEEEvRyPKjPKT_yPS6_"
 "_ZN5CppAD17forward_ltvv_op_0INS_2ADINS1_IdEEEEEEvRyPKjPKT_yPS7_"
 "_ZN5CppAD17forward_nepv_op_0IdEEvRyPKjPKT_yPS4_"
 "_ZN5CppAD17forward_nepv_op_0INS_2ADIdEEEEvRyPKjPKT_yPS6_"
 "_ZN5CppAD17forward_nepv_op_0INS_2ADINS1_IdEEEEEEvRyPKjPKT_yPS7_"
 "_ZN5CppAD17forward_nevv_op_0IdEEvRyPKjPKT_yPS4_"
 "_ZN5CppAD17forward_nevv_op_0INS_2ADIdEEEEvRyPKjPKT_yPS6_"
 "_ZN5CppAD17forward_nevv_op_0INS_2ADINS1_IdEEEEEEvRyPKjPKT_yPS7_"
 "_ZN5CppAD17forward_sign_op_0IdEEvyyyPT_"
 "_ZN5CppAD17forward_sign_op_0INS_2ADIdEEEEvyyyPT_"
 "_ZN5CppAD17forward_sign_op_0INS_2ADINS1_IdEEEEEEvyyyPT_"
 "_ZN5CppAD17forward_sinh_op_0IdEEvyyyPT_"
 "_ZN5CppAD17forward_sinh_op_0INS_2ADIdEEEEvyyyPT_"
 "_ZN5CppAD17forward_sinh_op_0INS_2ADINS1_IdEEEEEEvyyyPT_"
 "_ZN5CppAD17forward_sqrt_op_0IdEEvyyyPT_"
 "_ZN5CppAD17forward_sqrt_op_0INS_2ADIdEEEEvyyyPT_"
 "_ZN5CppAD17forward_sqrt_op_0INS_2ADINS1_IdEEEEEEvyyyPT_"
 "_ZN5CppAD17forward_tanh_op_0IdEEvyyyPT_"
 "_ZN5CppAD17forward_tanh_op_0INS_2ADIdEEEEvyyyPT_"
 "_ZN5CppAD17forward_tanh_op_0INS_2ADINS1_IdEEEEEEvyyyPT_"
 "_ZN5CppAD17GreaterThanOrZeroERKd"
 "_ZN5CppAD17GreaterThanOrZeroIdEEbRKNS_2ADIT_EE"
 "_ZN5CppAD17GreaterThanOrZeroINS_2ADIdEEEEbRKNS1_IT_EE"
 "_ZN5CppAD17IdenticalEqualParERKdS1_"
 "_ZN5CppAD17IdenticalEqualParIdEEbRKNS_2ADIT_EES5_"
 "_ZN5CppAD17IdenticalEqualParINS_2ADIdEEEEbRKNS1_IT_EES6_"
 "_ZN5CppAD18forward_addpv_op_0IdEEvyPKjPKT_yPS3_"
 "_ZN5CppAD18forward_addpv_op_0INS_2ADIdEEEEvyPKjPKT_yPS5_"
 "_ZN5CppAD18forward_addpv_op_0INS_2ADINS1_IdEEEEEEvyPKjPKT_yPS6_"
 "_ZN5CppAD18forward_addvv_op_0IdEEvyPKjPKT_yPS3_"
 "_ZN5CppAD18forward_addvv_op_0INS_2ADIdEEEEvyPKjPKT_yPS5_"
 "_ZN5CppAD18forward_addvv_op_0INS_2ADINS1_IdEEEEEEvyPKjPKT_yPS6_"
 "_ZN5CppAD18forward_cskip_op_0IdEEvyPKjyPKT_yPS3_Pb"
 "_ZN5CppAD18forward_cskip_op_0INS_2ADIdEEEEvyPKjyPKT_yPS5_Pb"
 "_ZN5CppAD18forward_cskip_op_0INS_2ADINS1_IdEEEEEEvyPKjyPKT_yPS6_Pb"
 "_ZN5CppAD18forward_divpv_op_0IdEEvyPKjPKT_yPS3_"
 "_ZN5CppAD18forward_divpv_op_0INS_2ADIdEEEEvyPKjPKT_yPS5_"
 "_ZN5CppAD18forward_divpv_op_0INS_2ADINS1_IdEEEEEEvyPKjPKT_yPS6_"
 "_ZN5CppAD18forward_divvp_op_0IdEEvyPKjPKT_yPS3_"
 "_ZN5CppAD18forward_divvp_op_0INS_2ADIdEEEEvyPKjPKT_yPS5_"
 "_ZN5CppAD18forward_divvp_op_0INS_2ADINS1_IdEEEEEEvyPKjPKT_yPS6_"
 "_ZN5CppAD18forward_divvv_op_0IdEEvyPKjPKT_yPS3_"
 "_ZN5CppAD18forward_divvv_op_0INS_2ADIdEEEEvyPKjPKT_yPS5_"
 "_ZN5CppAD18forward_divvv_op_0INS_2ADINS1_IdEEEEEEvyPKjPKT_yPS6_"
 "_ZN5CppAD18forward_mulpv_op_0IdEEvyPKjPKT_yPS3_"
 "_ZN5CppAD18forward_mulpv_op_0INS_2ADIdEEEEvyPKjPKT_yPS5_"
 "_ZN5CppAD18forward_mulpv_op_0INS_2ADINS1_IdEEEEEEvyPKjPKT_yPS6_"
 "_ZN5CppAD18forward_mulvv_op_0IdEEvyPKjPKT_yPS3_"
 "_ZN5CppAD18forward_mulvv_op_0INS_2ADIdEEEEvyPKjPKT_yPS5_"
 "_ZN5CppAD18forward_mulvv_op_0INS_2ADINS1_IdEEEEEEvyPKjPKT_yPS6_"
 "_ZN5CppAD18forward_powpv_op_0IdEEvyPKjPKT_yPS3_"
 "_ZN5CppAD18forward_powpv_op_0INS_2ADIdEEEEvyPKjPKT_yPS5_"
 "_ZN5CppAD18forward_powpv_op_0INS_2ADINS1_IdEEEEEEvyPKjPKT_yPS6_"
 "_ZN5CppAD18forward_powvp_op_0IdEEvyPKjPKT_yPS3_"
 "_ZN5CppAD18forward_powvp_op_0INS_2ADIdEEEEvyPKjPKT_yPS5_"
 "_ZN5CppAD18forward_powvp_op_0INS_2ADINS1_IdEEEEEEvyPKjPKT_yPS6_"
 "_ZN5CppAD18forward_powvv_op_0IdEEvyPKjPKT_yPS3_"
 "_ZN5CppAD18forward_powvv_op_0INS_2ADIdEEEEvyPKjPKT_yPS5_"
 "_ZN5CppAD18forward_powvv_op_0INS_2ADINS1_IdEEEEEEvyPKjPKT_yPS6_"
 "_ZN5CppAD18forward_subpv_op_0IdEEvyPKjPKT_yPS3_"
 "_ZN5CppAD18forward_subpv_op_0INS_2ADIdEEEEvyPKjPKT_yPS5_"
 "_ZN5CppAD18forward_subpv_op_0INS_2ADINS1_IdEEEEEEvyPKjPKT_yPS6_"
 "_ZN5CppAD18forward_subvp_op_0IdEEvyPKjPKT_yPS3_"
 "_ZN5CppAD18forward_subvp_op_0INS_2ADIdEEEEvyPKjPKT_yPS5_"
 "_ZN5CppAD18forward_subvp_op_0INS_2ADINS1_IdEEEEEEvyPKjPKT_yPS6_"
 "_ZN5CppAD18forward_subvv_op_0IdEEvyPKjPKT_yPS3_"
 "_ZN5CppAD18forward_subvv_op_0INS_2ADIdEEEEvyPKjPKT_yPS5_"
 "_ZN5CppAD18forward_subvv_op_0INS_2ADINS1_IdEEEEEEvyPKjPKT_yPS6_"
 "_ZN5CppAD18index_sort_elementIyE7set_keyERKy"
 "_ZN5CppAD18index_sort_elementIyE9set_indexERKy"
 "_ZN5CppAD18traceforward0sweepEi"
 "_ZN5CppAD19forward_load_p_op_0IdEEvPNS_6playerIT_EEyPKjPKS2_yPS2_PbPyPj"
 "_ZN5CppAD19forward_load_p_op_0INS_2ADIdEEEEvPNS_6playerIT_EEyPKjPKS4_yPS4_PbPyPj"
 "_ZN5CppAD19forward_load_p_op_0INS_2ADINS1_IdEEEEEEvPNS_6playerIT_EEyPKjPKS5_yPS5_PbPyPj"
 "_ZN5CppAD19forward_load_v_op_0IdEEvPNS_6playerIT_EEyPKjPKS2_yPS2_PbPyPj"
 "_ZN5CppAD19forward_load_v_op_0INS_2ADIdEEEEvPNS_6playerIT_EEyPKjPKS4_yPS4_PbPyPj"
 "_ZN5CppAD19forward_load_v_op_0INS_2ADINS1_IdEEEEEEvPNS_6playerIT_EEyPKjPKS5_yPS5_PbPyPj"
 "_ZN5CppAD21forward_store_pp_op_0IdEEvyPKjyyPT_PbPy"
 "_ZN5CppAD21forward_store_pp_op_0INS_2ADIdEEEEvyPKjyyPT_PbPy"
 "_ZN5CppAD21forward_store_pp_op_0INS_2ADINS1_IdEEEEEEvyPKjyyPT_PbPy"
 "_ZN5CppAD21forward_store_pv_op_0IdEEvyPKjyyPT_PbPy"
 "_ZN5CppAD21forward_store_pv_op_0INS_2ADIdEEEEvyPKjyyPT_PbPy"
 "_ZN5CppAD21forward_store_pv_op_0INS_2ADINS1_IdEEEEEEvyPKjyyPT_PbPy"
 "_ZN5CppAD21forward_store_vp_op_0IdEEvyPKjyyPT_PbPy"
 "_ZN5CppAD21forward_store_vp_op_0INS_2ADIdEEEEvyPKjyyPT_PbPy"
 "_ZN5CppAD21forward_store_vp_op_0INS_2ADINS1_IdEEEEEEvyPKjyyPT_PbPy"
 "_ZN5CppAD21forward_store_vv_op_0IdEEvyPKjyyPT_PbPy"
 "_ZN5CppAD21forward_store_vv_op_0INS_2ADIdEEEEvyPKjyyPT_PbPy"
 "_ZN5CppAD21forward_store_vv_op_0INS_2ADINS1_IdEEEEEEvyPKjyyPT_PbPy"
 "_ZN5CppAD22forward_sparse_load_opINS_11sparse_packEEEvNS_6OpCodeEyPKjyPKyRT_S8_"
 "_ZN5CppAD23forward_sparse_store_opINS_11sparse_packEEEvNS_6OpCodeEPKjyPKyRT_S8_"
 "_ZN5CppAD29reverse_sparse_hessian_div_opINS_11sparse_packEEEvyPKjPbRT_S6_"
 "_ZN5CppAD29reverse_sparse_hessian_mul_opINS_11sparse_packEEEvyPKjPbRT_S6_"
 "_ZN5CppAD29reverse_sparse_hessian_pow_opINS_11sparse_packEEEvyPKjPbRT_S6_"
 "_ZN5CppAD2ADIdE11tape_handleEy"
 "_ZN5CppAD2ADIdE11tape_id_ptrEy"
 "_ZN5CppAD2ADIdE11tape_manageENS_15tape_manage_jobE"
 "_ZN5CppAD2ADIdE13make_variableEyy"
 "_ZN5CppAD2ADIdE14make_parameterEv"
 "_ZN5CppAD2ADIdE14tape_id_handleEy"
 "_ZN5CppAD2ADIdE8tape_ptrEj"
 "_ZN5CppAD2ADIdE8tape_ptrEv"
 "_ZN5CppAD2ADIdEaSERKd"
 "_ZN5CppAD2ADIdEaSIiEERS1_RKT_"
 "_ZN5CppAD2ADIdEC1ERKd"
 "_ZN5CppAD2ADIdEC1Ev"
 "_ZN5CppAD2ADIdEC1IiEERKT_"
 "_ZN5CppAD2ADIdEC1IyEERKT_"
 "_ZN5CppAD2ADIdED1Ev"
 "_ZN5CppAD2ADIdEdVERKS1_"
 "_ZN5CppAD2ADIdEmIERKS1_"
 "_ZN5CppAD2ADIdEmLERKS1_"
 "_ZN5CppAD2ADIdEpLERKS1_"
 "_ZN5CppAD2ADINS0_IdEEE11tape_handleEy"
 "_ZN5CppAD2ADINS0_IdEEE11tape_id_ptrEy"
 "_ZN5CppAD2ADINS0_IdEEE11tape_manageENS_15tape_manage_jobE"
 "_ZN5CppAD2ADINS0_IdEEE13make_variableEyy"
 "_ZN5CppAD2ADINS0_IdEEE14make_parameterEv"
 "_ZN5CppAD2ADINS0_IdEEE14tape_id_handleEy"
 "_ZN5CppAD2ADINS0_IdEEE8tape_ptrEj"
 "_ZN5CppAD2ADINS0_IdEEE8tape_ptrEv"
 "_ZN5CppAD2ADINS0_IdEEEC1ERKd"
 "_ZN5CppAD2ADINS0_IdEEEC1Ev"
 "_ZN5CppAD2ADINS0_IdEEEC1IiEERKT_"
 "_ZN5CppAD2ADINS0_IdEEEC1IyEERKT_"
 "_ZN5CppAD2ADINS0_IdEEED1Ev"
 "_ZN5CppAD2ADINS0_IdEEEdVERKS2_"
 "_ZN5CppAD2ADINS0_IdEEEmIERKS2_"
 "_ZN5CppAD2ADINS0_IdEEEmLERKS2_"
 "_ZN5CppAD2ADINS0_IdEEEpLERKS2_"
 "_ZN5CppAD2ADINS0_INS0_IdEEEEE11tape_handleEy"
 "_ZN5CppAD2ADINS0_INS0_IdEEEEE11tape_id_ptrEy"
 "_ZN5CppAD2ADINS0_INS0_IdEEEEE11tape_manageENS_15tape_manage_jobE"
 "_ZN5CppAD2ADINS0_INS0_IdEEEEE13make_variableEyy"
 "_ZN5CppAD2ADINS0_INS0_IdEEEEE14tape_id_handleEy"
 "_ZN5CppAD2ADINS0_INS0_IdEEEEE8tape_ptrEj"
 "_ZN5CppAD2ADINS0_INS0_IdEEEEE8tape_ptrEv"
 "_ZN5CppAD2ADINS0_INS0_IdEEEEEC1ERKd"
 "_ZN5CppAD2ADINS0_INS0_IdEEEEEC1Ev"
 "_ZN5CppAD2ADINS0_INS0_IdEEEEEC1IiEERKT_"
 "_ZN5CppAD2ADINS0_INS0_IdEEEEED1Ev"
 "_ZN5CppAD2ADINS0_INS0_IdEEEEEmIERKS3_"
 "_ZN5CppAD2ADINS0_INS0_IdEEEEEpLERKS3_"
 "_ZN5CppAD30reverse_sparse_hessian_cond_opINS_11sparse_packEEEvyPKjyPbRT_"
 "_ZN5CppAD30reverse_sparse_hessian_csum_opINS_11sparse_packEEEvyPKjPbRT_"
 "_ZN5CppAD30reverse_sparse_hessian_load_opINS_11sparse_packEEEvNS_6OpCodeEyPKjyPKyRT_S8_PbS9_"
 "_ZN5CppAD31forward_sparse_jacobian_cond_opINS_11sparse_packEEEvyPKjyRT_"
 "_ZN5CppAD31forward_sparse_jacobian_csum_opINS_11sparse_packEEEvyPKjRT_"
 "_ZN5CppAD31reverse_sparse_hessian_store_opINS_11sparse_packEEEvNS_6OpCodeEPKjyPKyRT_S8_PbS9_"
 "_ZN5CppAD32forward_sparse_jacobian_unary_opINS_11sparse_packEEEvyyRT_"
 "_ZN5CppAD32reverse_sparse_hessian_addsub_opINS_11sparse_packEEEvyPKjPbRT_S6_"
 "_ZN5CppAD33forward_sparse_jacobian_binary_opINS_11sparse_packEEEvyPKjRT_"
 "_ZN5CppAD38reverse_sparse_hessian_linear_unary_opINS_11sparse_packEEEvyyPbRT_S4_"
 "_ZN5CppAD3absERKd"
 "_ZN5CppAD3absIdEENS_2ADIT_EERKS3_"
 "_ZN5CppAD3absINS_2ADIdEEEENS1_IT_EERKS4_"
 "_ZN5CppAD3cosERKd"
 "_ZN5CppAD3cosIdEENS_2ADIT_EERKS3_"
 "_ZN5CppAD3cosINS_2ADIdEEEENS1_IT_EERKS4_"
 "_ZN5CppAD3expERKd"
 "_ZN5CppAD3expIdEENS_2ADIT_EERKS3_"
 "_ZN5CppAD3expINS_2ADIdEEEENS1_IT_EERKS4_"
 "_ZN5CppAD3expINS_2ADINS1_IdEEEEEENS1_IT_EERKS5_"
 "_ZN5CppAD3logERKd"
 "_ZN5CppAD3logIdEENS_2ADIT_EERKS3_"
 "_ZN5CppAD3logINS_2ADIdEEEENS1_IT_EERKS4_"
 "_ZN5CppAD3logINS_2ADINS1_IdEEEEEENS1_IT_EERKS5_"
 "_ZN5CppAD3nanIdEET_RKS1_"
 "_ZN5CppAD3nanINS_2ADIdEEEET_RKS3_"
 "_ZN5CppAD3powERKdS1_"
 "_ZN5CppAD3powIdEENS_2ADIT_EERKS3_S5_"
 "_ZN5CppAD3powINS_2ADIdEEEENS1_IT_EERKS4_S6_"
 "_ZN5CppAD3powINS_2ADINS1_IdEEEEEENS1_IT_EERKS5_S7_"
 "_ZN5CppAD3sinERKd"
 "_ZN5CppAD3sinIdEENS_2ADIT_EERKS3_"
 "_ZN5CppAD3sinINS_2ADIdEEEENS1_IT_EERKS4_"
 "_ZN5CppAD3tanERKd"
 "_ZN5CppAD3tanIdEENS_2ADIT_EERKS3_"
 "_ZN5CppAD3tanINS_2ADIdEEEENS1_IT_EERKS4_"
 "_ZN5CppAD41reverse_sparse_hessian_nonlinear_unary_opINS_11sparse_packEEEvyyPbRT_S4_"
 "_ZN5CppAD4acosERKd"
 "_ZN5CppAD4acosIdEENS_2ADIT_EERKS3_"
 "_ZN5CppAD4acosINS_2ADIdEEEENS1_IT_EERKS4_"
 "_ZN5CppAD4asinERKd"
 "_ZN5CppAD4asinIdEENS_2ADIT_EERKS3_"
 "_ZN5CppAD4asinINS_2ADIdEEEENS1_IT_EERKS4_"
 "_ZN5CppAD4atanERKd"
 "_ZN5CppAD4atanIdEENS_2ADIT_EERKS3_"
 "_ZN5CppAD4atanINS_2ADIdEEEENS1_IT_EERKS4_"
 "_ZN5CppAD4coshERKd"
 "_ZN5CppAD4coshIdEENS_2ADIT_EERKS3_"
 "_ZN5CppAD4coshINS_2ADIdEEEENS1_IT_EERKS4_"
 "_ZN5CppAD4signERKd"
 "_ZN5CppAD4signIdEENS_2ADIT_EERKS3_"
 "_ZN5CppAD4signINS_2ADIdEEEENS1_IT_EERKS4_"
 "_ZN5CppAD4sinhERKd"
 "_ZN5CppAD4sinhIdEENS_2ADIT_EERKS3_"
 "_ZN5CppAD4sinhINS_2ADIdEEEENS1_IT_EERKS4_"
 "_ZN5CppAD4sqrtERKd"
 "_ZN5CppAD4sqrtIdEENS_2ADIT_EERKS3_"
 "_ZN5CppAD4sqrtINS_2ADIdEEEENS1_IT_EERKS4_"
 "_ZN5CppAD4tanhERKd"
 "_ZN5CppAD4tanhIdEENS_2ADIT_EERKS3_"
 "_ZN5CppAD4tanhINS_2ADIdEEEENS1_IT_EERKS4_"
 "_ZN5CppAD5ADFunIdE12ForSparseJacIN8tmbutils6vectorIbEEEET_yRKS6_b"
 "_ZN5CppAD5ADFunIdE12RevSparseHesIN8tmbutils6vectorIbEEEET_yRKS6_b"
 "_ZN5CppAD5ADFunIdE14capacity_orderEyy"
 "_ZN5CppAD5ADFunIdE16ForSparseJacCaseIN8tmbutils6vectorIbEEEEvbbyRKT_RS6_"
 "_ZN5CppAD5ADFunIdE16RevSparseHesCaseIN8tmbutils6vectorIbEEEEvbbyRKT_RS6_"
 "_ZN5CppAD5ADFunIdE6ForTwoIN8tmbutils6vectorIdEENS4_IyEEEET_RKS7_RKT0_SC_"
 "_ZN5CppAD5ADFunIdE6RevTwoIN8tmbutils6vectorIdEENS4_IyEEEET_RKS7_RKT0_SC_"
 "_ZN5CppAD5ADFunIdE7ForwardIN5Eigen6MatrixIdLin1ELi1ELi0ELin1ELi1EEEEET_yRKS6_RSo"
 "_ZN5CppAD5ADFunIdE7ForwardIN8tmbutils6vectorIdEEEET_yRKS6_RSo"
 "_ZN5CppAD5ADFunIdE7HessianIN8tmbutils6vectorIdEEEET_RKS6_S8_"
 "_ZN5CppAD5ADFunIdE7HessianIN8tmbutils6vectorIdEEEET_RKS6_y"
 "_ZN5CppAD5ADFunIdE7ReverseIN5Eigen6MatrixIdLin1ELi1ELi0ELin1ELi1EEEEET_yRKS6_"
 "_ZN5CppAD5ADFunIdE7ReverseIN8tmbutils6vectorIdEEEET_yRKS6_"
 "_ZN5CppAD5ADFunIdE8optimizeERKSs"
 "_ZN5CppAD5ADFunIdE9DependentIN8tmbutils6vectorINS_2ADIdEEEEEEvPNS_6ADTapeIdEERKT_"
 "_ZN5CppAD5ADFunIdE9DependentIN8tmbutils6vectorINS_2ADIdEEEEEEvRKT_SA_"
 "_ZN5CppAD5ADFunIdEC1Ev"
 "_ZN5CppAD5ADFunIdEC1IN8tmbutils6vectorINS_2ADIdEEEEEERKT_SA_"
 "_ZN5CppAD5ADFunIdED1Ev"
 "_ZN5CppAD5ADFunIdED2Ev"
 "_ZN5CppAD5ADFunINS_2ADIdEEE10my_patternEi"
 "_ZN5CppAD5ADFunINS_2ADIdEEE11markOpFieldEPvPKcPKjy"
 "_ZN5CppAD5ADFunINS_2ADIdEEE14capacity_orderEyy"
 "_ZN5CppAD5ADFunINS_2ADIdEEE21prepare_reverse_sweepEi"
 "_ZN5CppAD5ADFunINS_2ADIdEEE22is_tape_point_constantEy"
 "_ZN5CppAD5ADFunINS_2ADIdEEE26mark_tape_point_args_indexEyy"
 "_ZN5CppAD5ADFunINS_2ADIdEEE26mark_user_tape_point_indexEyy"
 "_ZN5CppAD5ADFunINS_2ADIdEEE7ForwardIN8tmbutils6vectorIS2_EEEET_yRKS8_RSo"
 "_ZN5CppAD5ADFunINS_2ADIdEEE7my_initENS_6vectorIbEE"
 "_ZN5CppAD5ADFunINS_2ADIdEEE7ReverseIN8tmbutils6vectorIS2_EEEET_yRKS8_"
 "_ZN5CppAD5ADFunINS_2ADIdEEE8isDepArgEPKj"
 "_ZN5CppAD5ADFunINS_2ADIdEEE8JacobianIN8tmbutils6vectorIS2_EEEET_RKS8_"
 "_ZN5CppAD5ADFunINS_2ADIdEEE8markArgsERNS_10tape_pointE"
 "_ZN5CppAD5ADFunINS_2ADIdEEE8optimizeERKSs"
 "_ZN5CppAD5ADFunINS_2ADIdEEE9DependentIN8tmbutils6vectorINS1_IS2_EEEEEEvPNS_6ADTapeIS2_EERKT_"
 "_ZN5CppAD5ADFunINS_2ADIdEEE9myReverseIN8tmbutils6vectorIS2_EEEEvyRKT_yRS8_"
 "_ZN5CppAD5ADFunINS_2ADIdEEE9ParameterEy"
 "_ZN5CppAD5ADFunINS_2ADIdEEEC1IN8tmbutils6vectorINS1_IS2_EEEEEERKT_SB_"
 "_ZN5CppAD5ADFunINS_2ADIdEEED1Ev"
 "_ZN5CppAD5ADFunINS_2ADINS1_IdEEEEE14capacity_orderEyy"
 "_ZN5CppAD5ADFunINS_2ADINS1_IdEEEEE7ForwardIN8tmbutils6vectorIS3_EEEET_yRKS9_RSo"
 "_ZN5CppAD5ADFunINS_2ADINS1_IdEEEEE7ReverseIN8tmbutils6vectorIS3_EEEET_yRKS9_"
 "_ZN5CppAD5ADFunINS_2ADINS1_IdEEEEE8JacobianIN8tmbutils6vectorIS3_EEEET_RKS9_"
 "_ZN5CppAD5ADFunINS_2ADINS1_IdEEEEE9DependentIN8tmbutils6vectorINS1_IS3_EEEEEEvPNS_6ADTapeIS3_EERKT_"
 "_ZN5CppAD5ADFunINS_2ADINS1_IdEEEEE9ParameterEy"
 "_ZN5CppAD5ADFunINS_2ADINS1_IdEEEEEC1IN8tmbutils6vectorINS1_IS3_EEEEEERKT_SC_"
 "_ZN5CppAD5ADFunINS_2ADINS1_IdEEEEED1Ev"
 "_ZN5CppAD5ValueIdEET_RKNS_2ADIS1_EE"
 "_ZN5CppAD5ValueINS_2ADIdEEEET_RKNS1_IS3_EE"
 "_ZN5CppAD5ValueINS_2ADINS1_IdEEEEEET_RKNS1_IS4_EE"
 "_ZN5CppAD6ADTapeIdE11IndependentIN8tmbutils6vectorINS_2ADIdEEEEEEvRT_y"
 "_ZN5CppAD6ADTapeIdE11RecordParOpERKd"
 "_ZN5CppAD6ADTapeIdE13RecordCondExpENS_9CompareOpERNS_2ADIdEERKS4_S7_S7_S7_"
 "_ZN5CppAD6ADTapeIdEC1Ev"
 "_ZN5CppAD6ADTapeIdED1Ev"
 "_ZN5CppAD6ADTapeINS_2ADIdEEE11IndependentIN8tmbutils6vectorINS1_IS2_EEEEEEvRT_y"
 "_ZN5CppAD6ADTapeINS_2ADIdEEE11RecordParOpERKS2_"
 "_ZN5CppAD6ADTapeINS_2ADIdEEE13RecordCondExpENS_9CompareOpERNS1_IS2_EERKS5_S8_S8_S8_"
 "_ZN5CppAD6ADTapeINS_2ADIdEEEC1Ev"
 "_ZN5CppAD6ADTapeINS_2ADIdEEED1Ev"
 "_ZN5CppAD6ADTapeINS_2ADINS1_IdEEEEE11IndependentIN8tmbutils6vectorINS1_IS3_EEEEEEvRT_y"
 "_ZN5CppAD6ADTapeINS_2ADINS1_IdEEEEE11RecordParOpERKS3_"
 "_ZN5CppAD6ADTapeINS_2ADINS1_IdEEEEE13RecordCondExpENS_9CompareOpERNS1_IS3_EERKS6_S9_S9_S9_"
 "_ZN5CppAD6ADTapeINS_2ADINS1_IdEEEEEC1Ev"
 "_ZN5CppAD6ADTapeINS_2ADINS1_IdEEEEED1Ev"
 "_ZN5CppAD6is_podIbEEbv"
 "_ZN5CppAD6is_podIcEEbv"
 "_ZN5CppAD6is_podIdEEbv"
 "_ZN5CppAD6is_podIhEEbv"
 "_ZN5CppAD6is_podIjEEbv"
 "_ZN5CppAD6is_podINS_11sparse_list11pair_size_tEEEbv"
 "_ZN5CppAD6is_podINS_2ADIdEEEEbv"
 "_ZN5CppAD6is_podINS_2ADINS1_IdEEEEEEbv"
 "_ZN5CppAD6is_podIyEEbv"
 "_ZN5CppAD6NumArgENS_6OpCodeE"
 "_ZN5CppAD6NumResENS_6OpCodeE"
 "_ZN5CppAD6playerIdE12forward_csumERNS_6OpCodeERPKjRyS7_"
 "_ZN5CppAD6playerIdE12forward_nextERNS_6OpCodeERPKjRyS7_"
 "_ZN5CppAD6playerIdE12reverse_csumERNS_6OpCodeERPKjRyS7_"
 "_ZN5CppAD6playerIdE12reverse_nextERNS_6OpCodeERPKjRyS7_"
 "_ZN5CppAD6playerIdE13forward_cskipERNS_6OpCodeERPKjRyS7_"
 "_ZN5CppAD6playerIdE13forward_startERNS_6OpCodeERPKjRyS7_"
 "_ZN5CppAD6playerIdE13reverse_cskipERNS_6OpCodeERPKjRyS7_"
 "_ZN5CppAD6playerIdE13reverse_startERNS_6OpCodeERPKjRyS7_"
 "_ZN5CppAD6playerIdE3getERNS_8recorderIdEE"
 "_ZN5CppAD6playerIdEC1Ev"
 "_ZN5CppAD6playerIdED1Ev"
 "_ZN5CppAD6playerINS_2ADIdEEE12forward_csumERNS_6OpCodeERPKjRyS9_"
 "_ZN5CppAD6playerINS_2ADIdEEE12forward_nextERNS_6OpCodeERPKjRyS9_"
 "_ZN5CppAD6playerINS_2ADIdEEE12reverse_csumERNS_6OpCodeERPKjRyS9_"
 "_ZN5CppAD6playerINS_2ADIdEEE12reverse_nextERNS_6OpCodeERPKjRyS9_"
 "_ZN5CppAD6playerINS_2ADIdEEE13forward_cskipERNS_6OpCodeERPKjRyS9_"
 "_ZN5CppAD6playerINS_2ADIdEEE13forward_startERNS_6OpCodeERPKjRyS9_"
 "_ZN5CppAD6playerINS_2ADIdEEE13reverse_cskipERNS_6OpCodeERPKjRyS9_"
 "_ZN5CppAD6playerINS_2ADIdEEE13reverse_startERNS_6OpCodeERPKjRyS9_"
 "_ZN5CppAD6playerINS_2ADIdEEE3getERNS_8recorderIS2_EE"
 "_ZN5CppAD6playerINS_2ADIdEEEC1Ev"
 "_ZN5CppAD6playerINS_2ADIdEEED1Ev"
 "_ZN5CppAD6playerINS_2ADINS1_IdEEEEE12forward_csumERNS_6OpCodeERPKjRySA_"
 "_ZN5CppAD6playerINS_2ADINS1_IdEEEEE12forward_nextERNS_6OpCodeERPKjRySA_"
 "_ZN5CppAD6playerINS_2ADINS1_IdEEEEE12reverse_csumERNS_6OpCodeERPKjRySA_"
 "_ZN5CppAD6playerINS_2ADINS1_IdEEEEE12reverse_nextERNS_6OpCodeERPKjRySA_"
 "_ZN5CppAD6playerINS_2ADINS1_IdEEEEE13forward_cskipERNS_6OpCodeERPKjRySA_"
 "_ZN5CppAD6playerINS_2ADINS1_IdEEEEE13forward_startERNS_6OpCodeERPKjRySA_"
 "_ZN5CppAD6playerINS_2ADINS1_IdEEEEE13reverse_cskipERNS_6OpCodeERPKjRySA_"
 "_ZN5CppAD6playerINS_2ADINS1_IdEEEEE13reverse_startERNS_6OpCodeERPKjRySA_"
 "_ZN5CppAD6playerINS_2ADINS1_IdEEEEE3getERNS_8recorderIS3_EE"
 "_ZN5CppAD6playerINS_2ADINS1_IdEEEEEC1Ev"
 "_ZN5CppAD6playerINS_2ADINS1_IdEEEEED1Ev"
 "_ZN5CppAD6vectorIbE6resizeEy"
 "_ZN5CppAD6vectorIbEC1Ev"
 "_ZN5CppAD6vectorIbEC1Ey"
 "_ZN5CppAD6vectorIbED1Ev"
 "_ZN5CppAD6vectorIbEixEy"
 "_ZN5CppAD6vectorIdE6resizeEy"
 "_ZN5CppAD6vectorIdEC1Ev"
 "_ZN5CppAD6vectorIdEC1Ey"
 "_ZN5CppAD6vectorIdED1Ev"
 "_ZN5CppAD6vectorIdEixEy"
 "_ZN5CppAD6vectorIiE6resizeEy"
 "_ZN5CppAD6vectorIiEC1Ev"
 "_ZN5CppAD6vectorIiED1Ev"
 "_ZN5CppAD6vectorIiEixEy"
 "_ZN5CppAD6vectorINS_10tape_pointEE6resizeEy"
 "_ZN5CppAD6vectorINS_10tape_pointEEC1Ev"
 "_ZN5CppAD6vectorINS_10tape_pointEED1Ev"
 "_ZN5CppAD6vectorINS_10tape_pointEEixEy"
 "_ZN5CppAD6vectorINS_2ADIdEEE6resizeEy"
 "_ZN5CppAD6vectorINS_2ADIdEEEC1Ev"
 "_ZN5CppAD6vectorINS_2ADIdEEEC1Ey"
 "_ZN5CppAD6vectorINS_2ADIdEEED1Ev"
 "_ZN5CppAD6vectorINS_2ADIdEEEixEy"
 "_ZN5CppAD6vectorINS_2ADINS1_IdEEEEE6resizeEy"
 "_ZN5CppAD6vectorINS_2ADINS1_IdEEEEEC1Ev"
 "_ZN5CppAD6vectorINS_2ADINS1_IdEEEEEC1Ey"
 "_ZN5CppAD6vectorINS_2ADINS1_IdEEEEED1Ev"
 "_ZN5CppAD6vectorINS_2ADINS1_IdEEEEEixEy"
 "_ZN5CppAD6vectorINS_2ADINS1_INS1_IdEEEEEEEC1Ey"
 "_ZN5CppAD6vectorINS_2ADINS1_INS1_IdEEEEEEED1Ev"
 "_ZN5CppAD6vectorINS_2ADINS1_INS1_IdEEEEEEEixEy"
 "_ZN5CppAD6vectorINS_8optimize16struct_user_infoEE9push_backERKS2_"
 "_ZN5CppAD6vectorINS_8optimize16struct_user_infoEEC1Ev"
 "_ZN5CppAD6vectorINS_8optimize16struct_user_infoEED1Ev"
 "_ZN5CppAD6vectorINS_8optimize16struct_user_infoEEixEy"
 "_ZN5CppAD6vectorINS_8optimize17enum_connect_typeEEC1Ey"
 "_ZN5CppAD6vectorINS_8optimize17enum_connect_typeEED1Ev"
 "_ZN5CppAD6vectorINS_8optimize17enum_connect_typeEEixEy"
 "_ZN5CppAD6vectorINS_8optimize17struct_cskip_infoEE9push_backERKS2_"
 "_ZN5CppAD6vectorINS_8optimize17struct_cskip_infoEEC1Ev"
 "_ZN5CppAD6vectorINS_8optimize17struct_cskip_infoEED1Ev"
 "_ZN5CppAD6vectorINS_8optimize17struct_cskip_infoEEixEy"
 "_ZN5CppAD6vectorINS_8optimize19class_set_cexp_pairEE6resizeEy"
 "_ZN5CppAD6vectorINS_8optimize19class_set_cexp_pairEEC1Ev"
 "_ZN5CppAD6vectorINS_8optimize19class_set_cexp_pairEED1Ev"
 "_ZN5CppAD6vectorINS_8optimize19class_set_cexp_pairEEixEy"
 "_ZN5CppAD6vectorINS_8optimize19struct_old_variableEEC1Ey"
 "_ZN5CppAD6vectorINS_8optimize19struct_old_variableEED1Ev"
 "_ZN5CppAD6vectorINS_8optimize19struct_old_variableEEixEy"
 "_ZN5CppAD6vectorINS0_IiEEE6resizeEy"
 "_ZN5CppAD6vectorINS0_IiEEEC1Ev"
 "_ZN5CppAD6vectorINS0_IiEEED1Ev"
 "_ZN5CppAD6vectorINS0_IiEEEixEy"
 "_ZN5CppAD6vectorISt3setIySt4lessIyESaIyEEE6resizeEy"
 "_ZN5CppAD6vectorISt3setIySt4lessIyESaIyEEEC1Ev"
 "_ZN5CppAD6vectorISt3setIySt4lessIyESaIyEEED1Ev"
 "_ZN5CppAD6vectorISt3setIySt4lessIyESaIyEEEixEy"
 "_ZN5CppAD6vectorIyE6resizeEy"
 "_ZN5CppAD6vectorIyE9push_backERKy"
 "_ZN5CppAD6vectorIyEaSERKS1_"
 "_ZN5CppAD6vectorIyEC1ERKS1_"
 "_ZN5CppAD6vectorIyEC1Ev"
 "_ZN5CppAD6vectorIyEC1Ey"
 "_ZN5CppAD6vectorIyED1Ev"
 "_ZN5CppAD6vectorIyEixEy"
 "_ZN5CppAD7IntegerERKd"
 "_ZN5CppAD7IntegerIdEEiRKNS_2ADIT_EE"
 "_ZN5CppAD7IntegerINS_2ADIdEEEEiRKNS1_IT_EE"
 "_ZN5CppAD7IntegerINS_2ADINS1_IdEEEEEEiRKNS1_IT_EE"
 "_ZN5CppAD8discreteIdE4evalEyRKd"
 "_ZN5CppAD8discreteIdE4ListEv"
 "_ZN5CppAD8discreteINS_2ADIdEEE4evalEyRKS2_"
 "_ZN5CppAD8discreteINS_2ADIdEEE4ListEv"
 "_ZN5CppAD8discreteINS_2ADINS1_IdEEEEE4evalEyRKS3_"
 "_ZN5CppAD8discreteINS_2ADINS1_IdEEEEE4ListEv"
 "_ZN5CppAD8optimize11record_csumIdEENS0_16struct_size_pairERKNS_6vectorINS0_19struct_old_variableEEEyyPKT_PNS_8recorderIS8_EERNS0_18struct_csum_stacksE"
 "_ZN5CppAD8optimize11record_csumINS_2ADIdEEEENS0_16struct_size_pairERKNS_6vectorINS0_19struct_old_variableEEEyyPKT_PNS_8recorderISA_EERNS0_18struct_csum_stacksE"
 "_ZN5CppAD8optimize11unary_matchIdEEjRKNS_6vectorINS0_19struct_old_variableEEEyyPKT_RKNS2_IyEERt"
 "_ZN5CppAD8optimize11unary_matchINS_2ADIdEEEEjRKNS_6vectorINS0_19struct_old_variableEEEyyPKT_RKNS4_IyEERt"
 "_ZN5CppAD8optimize12binary_matchIdEEjRKNS_6vectorINS0_19struct_old_variableEEEyyPKT_RKNS2_IyEERt"
 "_ZN5CppAD8optimize12binary_matchINS_2ADIdEEEEjRKNS_6vectorINS0_19struct_old_variableEEEyyPKT_RKNS4_IyEERt"
 "_ZN5CppAD8optimize12optimize_runIdEEvRKSsyRNS_6vectorIyEEPNS_6playerIT_EEPNS_8recorderIS8_EE"
 "_ZN5CppAD8optimize12optimize_runINS_2ADIdEEEEvRKSsyRNS_6vectorIyEEPNS_6playerIT_EEPNS_8recorderISA_EE"
 "_ZN5CppAD8optimize15class_cexp_pairC1ERKbRKy"
 "_ZN5CppAD8optimize16struct_user_infoaSERKS1_"
 "_ZN5CppAD8optimize16struct_user_infoC1Ev"
 "_ZN5CppAD8optimize16struct_user_infoD1Ev"
 "_ZN5CppAD8optimize17struct_cskip_infoaSERKS1_"
 "_ZN5CppAD8optimize17struct_cskip_infoC1ERKS1_"
 "_ZN5CppAD8optimize17struct_cskip_infoC1Ev"
 "_ZN5CppAD8optimize17struct_cskip_infoD1Ev"
 "_ZN5CppAD8optimize18struct_csum_stacksC1Ev"
 "_ZN5CppAD8optimize18struct_csum_stacksD1Ev"
 "_ZN5CppAD8optimize19class_set_cexp_pair10delete_ptrEv"
 "_ZN5CppAD8optimize19class_set_cexp_pair12intersectionERKS1_"
 "_ZN5CppAD8optimize19class_set_cexp_pair3endEv"
 "_ZN5CppAD8optimize19class_set_cexp_pair5beginEv"
 "_ZN5CppAD8optimize19class_set_cexp_pair5clearEv"
 "_ZN5CppAD8optimize19class_set_cexp_pair6insertERKNS0_15class_cexp_pairE"
 "_ZN5CppAD8optimize19class_set_cexp_pair7new_ptrEv"
 "_ZN5CppAD8optimize19class_set_cexp_pairaSERKS1_"
 "_ZN5CppAD8optimize19class_set_cexp_pairC1Ev"
 "_ZN5CppAD8optimize19class_set_cexp_pairD1Ev"
 "_ZN5CppAD8optimize9record_pvIdEENS0_16struct_size_pairERKNS_6vectorINS0_19struct_old_variableEEEyyPKT_PNS_8recorderIS8_EENS_6OpCodeEPKj"
 "_ZN5CppAD8optimize9record_pvINS_2ADIdEEEENS0_16struct_size_pairERKNS_6vectorINS0_19struct_old_variableEEEyyPKT_PNS_8recorderISA_EENS_6OpCodeEPKj"
 "_ZN5CppAD8optimize9record_vpIdEENS0_16struct_size_pairERKNS_6vectorINS0_19struct_old_variableEEEyyPKT_PNS_8recorderIS8_EENS_6OpCodeEPKj"
 "_ZN5CppAD8optimize9record_vpINS_2ADIdEEEENS0_16struct_size_pairERKNS_6vectorINS0_19struct_old_variableEEEyyPKT_PNS_8recorderISA_EENS_6OpCodeEPKj"
 "_ZN5CppAD8optimize9record_vvIdEENS0_16struct_size_pairERKNS_6vectorINS0_19struct_old_variableEEEyyPKT_PNS_8recorderIS8_EENS_6OpCodeEPKj"
 "_ZN5CppAD8optimize9record_vvINS_2ADIdEEEENS0_16struct_size_pairERKNS_6vectorINS0_19struct_old_variableEEEyyPKT_PNS_8recorderISA_EENS_6OpCodeEPKj"
 "_ZN5CppAD8recorderIdE10ReplaceArgEyy"
 "_ZN5CppAD8recorderIdE10ReserveArgEy"
 "_ZN5CppAD8recorderIdE18set_abort_op_indexEy"
 "_ZN5CppAD8recorderIdE4freeEv"
 "_ZN5CppAD8recorderIdE5PutOpENS_6OpCodeE"
 "_ZN5CppAD8recorderIdE6PutArgEj"
 "_ZN5CppAD8recorderIdE6PutArgEjj"
 "_ZN5CppAD8recorderIdE6PutArgEjjj"
 "_ZN5CppAD8recorderIdE6PutArgEjjjj"
 "_ZN5CppAD8recorderIdE6PutArgEjjjjjj"
 "_ZN5CppAD8recorderIdE6PutParERKd"
 "_ZN5CppAD8recorderIdE9PutLoadOpENS_6OpCodeE"
 "_ZN5CppAD8recorderIdE9PutVecIndEy"
 "_ZN5CppAD8recorderIdEC1Ev"
 "_ZN5CppAD8recorderIdED1Ev"
 "_ZN5CppAD8recorderINS_2ADIdEEE10ReplaceArgEyy"
 "_ZN5CppAD8recorderINS_2ADIdEEE10ReserveArgEy"
 "_ZN5CppAD8recorderINS_2ADIdEEE18set_abort_op_indexEy"
 "_ZN5CppAD8recorderINS_2ADIdEEE4freeEv"
 "_ZN5CppAD8recorderINS_2ADIdEEE5PutOpENS_6OpCodeE"
 "_ZN5CppAD8recorderINS_2ADIdEEE6PutArgEj"
 "_ZN5CppAD8recorderINS_2ADIdEEE6PutArgEjj"
 "_ZN5CppAD8recorderINS_2ADIdEEE6PutArgEjjj"
 "_ZN5CppAD8recorderINS_2ADIdEEE6PutArgEjjjj"
 "_ZN5CppAD8recorderINS_2ADIdEEE6PutArgEjjjjjj"
 "_ZN5CppAD8recorderINS_2ADIdEEE6PutParERKS2_"
 "_ZN5CppAD8recorderINS_2ADIdEEE9PutLoadOpENS_6OpCodeE"
 "_ZN5CppAD8recorderINS_2ADIdEEE9PutVecIndEy"
 "_ZN5CppAD8recorderINS_2ADIdEEEC1Ev"
 "_ZN5CppAD8recorderINS_2ADIdEEED1Ev"
 "_ZN5CppAD8recorderINS_2ADINS1_IdEEEEE18set_abort_op_indexEy"
 "_ZN5CppAD8recorderINS_2ADINS1_IdEEEEE4freeEv"
 "_ZN5CppAD8recorderINS_2ADINS1_IdEEEEE5PutOpENS_6OpCodeE"
 "_ZN5CppAD8recorderINS_2ADINS1_IdEEEEE6PutArgEj"
 "_ZN5CppAD8recorderINS_2ADINS1_IdEEEEE6PutArgEjj"
 "_ZN5CppAD8recorderINS_2ADINS1_IdEEEEE6PutArgEjjjj"
 "_ZN5CppAD8recorderINS_2ADINS1_IdEEEEE6PutArgEjjjjjj"
 "_ZN5CppAD8recorderINS_2ADINS1_IdEEEEE6PutParERKS3_"
 "_ZN5CppAD8recorderINS_2ADINS1_IdEEEEEC1Ev"
 "_ZN5CppAD8recorderINS_2ADINS1_IdEEEEED1Ev"
 "_ZN5CppAD8VariableEd"
 "_ZN5CppAD8VariableIdEEbRKNS_2ADIT_EE"
 "_ZN5CppAD8VariableINS_2ADIdEEEEbRKNS1_IT_EE"
 "_ZN5CppAD8VariableINS_2ADINS1_IdEEEEEEbRKNS1_IT_EE"
 "_ZN5CppAD9CondExpGtERKdS1_S1_S1_"
 "_ZN5CppAD9CondExpGtIdEENS_2ADIT_EERKS3_S5_S5_S5_"
 "_ZN5CppAD9CondExpGtINS_2ADIdEEEENS1_IT_EERKS4_S6_S6_S6_"
 "_ZN5CppAD9CondExpGtINS_2ADINS1_IdEEEEEENS1_IT_EERKS5_S7_S7_S7_"
 "_ZN5CppAD9CondExpOpENS_9CompareOpERKdS2_S2_S2_"
 "_ZN5CppAD9CondExpOpIdEENS_2ADIT_EENS_9CompareOpERKS3_S6_S6_S6_"
 "_ZN5CppAD9CondExpOpINS_2ADIdEEEENS1_IT_EENS_9CompareOpERKS4_S7_S7_S7_"
 "_ZN5CppAD9CondExpOpINS_2ADINS1_IdEEEEEENS1_IT_EENS_9CompareOpERKS5_S8_S8_S8_"
 "_ZN5CppAD9hash_codeIdEEtNS_6OpCodeEPKjyPKT_"
 "_ZN5CppAD9hash_codeIdEEtRKT_"
 "_ZN5CppAD9hash_codeINS_2ADIdEEEEtNS_6OpCodeEPKjyPKT_"
 "_ZN5CppAD9hash_codeINS_2ADIdEEEEtRKT_"
 "_ZN5CppAD9hash_codeINS_2ADINS1_IdEEEEEEtRKT_"
 "_ZN5CppAD9ParameterIdEEbRKNS_2ADIT_EE"
 "_ZN5CppAD9ParameterINS_2ADIdEEEEbRKNS1_IT_EE"
 "_ZN5CppAD9ParameterINS_2ADINS1_IdEEEEEEbRKNS1_IT_EE"
 "_ZN5CppADdvIdEENS_2ADIT_EERKS3_S5_"
 "_ZN5CppADdvINS_2ADIdEEEENS1_IT_EERKS4_S6_"
 "_ZN5CppADdvINS_2ADINS1_IdEEEEEENS1_IT_EERKS5_S7_"
 "_ZN5CppADeqIdEEbRKNS_2ADIT_EES5_"
 "_ZN5CppADeqINS_2ADIdEEEEbRKNS1_IT_EES6_"
 "_ZN5CppADgeIdEEbRKNS_2ADIT_EES5_"
 "_ZN5CppADgeINS_2ADIdEEEEbRKNS1_IT_EES6_"
 "_ZN5CppADgtIdEEbRKNS_2ADIT_EES5_"
 "_ZN5CppADgtINS_2ADIdEEEEbRKNS1_IT_EES6_"
 "_ZN5CppADleIdEEbRKNS_2ADIT_EES5_"
 "_ZN5CppADleINS_2ADIdEEEEbRKNS1_IT_EES6_"
 "_ZN5CppADlsIdEERSoS1_RKNS_2ADIT_EE"
 "_ZN5CppADlsINS_2ADIdEEEERSoS3_RKNS1_IT_EE"
 "_ZN5CppADltIdEEbRKNS_2ADIT_EES5_"
 "_ZN5CppADltINS_2ADIdEEEEbRKNS1_IT_EES6_"
 "_ZN5CppADmiERKdRKNS_2ADIdEE"
 "_ZN5CppADmiIdEENS_2ADIT_EERKS3_S5_"
 "_ZN5CppADmiINS_2ADIdEEEENS1_IT_EERKdRKS4_"
 "_ZN5CppADmiINS_2ADIdEEEENS1_IT_EERKS4_S6_"
 "_ZN5CppADmiINS_2ADINS1_IdEEEEEENS1_IT_EERKdRKS5_"
 "_ZN5CppADmiINS_2ADINS1_IdEEEEEENS1_IT_EERKS5_S7_"
 "_ZN5CppADmlIdEENS_2ADIT_EERKS3_S5_"
 "_ZN5CppADmlINS_2ADIdEEEENS1_IT_EERKS4_S6_"
 "_ZN5CppADmlINS_2ADINS1_IdEEEEEENS1_IT_EERKS5_S7_"
 "_ZN5CppADneIdEEbRKNS_2ADIT_EES5_"
 "_ZN5CppADneINS_2ADIdEEEEbRKNS1_IT_EES6_"
 "_ZN5CppADplERKNS_2ADIdEERKd"
 "_ZN5CppADplIdEENS_2ADIT_EERKS3_S5_"
 "_ZN5CppADplINS_2ADIdEEEENS1_IT_EERKS4_RKd"
 "_ZN5CppADplINS_2ADIdEEEENS1_IT_EERKS4_S6_"
 "_ZN5CppADplINS_2ADINS1_IdEEEEEENS1_IT_EERKS5_RKd"
 "_ZN5CppADplINS_2ADINS1_IdEEEEEENS1_IT_EERKS5_S7_"
 "_ZN5Eigen10MatrixBaseINS_12CwiseUnaryOpINS_8internal13scalar_abs_opIdEEKNS_6MatrixIdLin1ELin1ELi0ELin1ELin1EEEEEEC2Ev"
 "_ZN5Eigen10MatrixBaseINS_12CwiseUnaryOpINS_8internal14scalar_cast_opIdiEEKNS_3MapINS_6MatrixIdLin1ELi1ELi0ELin1ELi1EEELi0ENS_6StrideILi0ELi0EEEEEEEEC2Ev"
 "_ZN5Eigen10MatrixBaseINS_12CwiseUnaryOpINS_8internal14scalar_cast_opIdN5CppAD2ADIdEEEEKNS_3MapINS_6MatrixIdLin1ELi1ELi0ELin1ELi1EEELi0ENS_6StrideILi0ELi0EEEEEEEEC2Ev"
 "_ZN5Eigen10MatrixBaseINS_12CwiseUnaryOpINS_8internal14scalar_cast_opIdN5CppAD2ADINS5_IdEEEEEEKNS_3MapINS_6MatrixIdLin1ELi1ELi0ELin1ELi1EEELi0ENS_6StrideILi0ELi0EEEEEEEEC2Ev"
 "_ZN5Eigen10MatrixBaseINS_12CwiseUnaryOpINS_8internal14scalar_cast_opIdN5CppAD2ADINS5_INS5_IdEEEEEEEEKNS_3MapINS_6MatrixIdLin1ELi1ELi0ELin1ELi1EEELi0ENS_6StrideILi0ELi0EEEEEEEEC2Ev"
 "_ZN5Eigen10MatrixBaseINS_12CwiseUnaryOpINS_8internal21scalar_score_coeff_opIdEEKNS_5BlockINS5_INS5_INS_3MapINS_6MatrixIdLin1ELin1ELi0ELin1ELin1EEELi0ENS_6StrideILi0ELi0EEEEELin1ELin1ELb0EEELin1ELi1ELb1EEELin1ELi1ELb0EEEEEEC2Ev"
 "_ZN5Eigen10MatrixBaseINS_13CwiseBinaryOpINS_8internal13scalar_sum_opIddEEKNS_6MatrixIdLin1ELi1ELi0ELin1ELi1EEES7_EEEC2Ev"
 "_ZN5Eigen10MatrixBaseINS_13CwiseBinaryOpINS_8internal13scalar_sum_opIddEEKNS_6MatrixIdLin1ELin1ELi0ELin1ELin1EEES7_EEEC2Ev"
 "_ZN5Eigen10MatrixBaseINS_13CwiseBinaryOpINS_8internal17scalar_product_opIddEEKNS_14CwiseNullaryOpINS2_18scalar_constant_opIdEEKNS_6MatrixIdLin1ELi1ELi0ELin1ELi1EEEEEKNS_5BlockINSD_INSD_INS_3MapINS8_IdLin1ELin1ELi0ELin1ELin1EEELi0ENS_6StrideILi0ELi0EEEEELin1ELin1ELb0EEELin1ELi1ELb1EEELin1ELi1ELb0EEEEEEC2Ev"
 "_ZN5Eigen10MatrixBaseINS_13CwiseBinaryOpINS_8internal17scalar_product_opIddEEKNS_14CwiseNullaryOpINS2_18scalar_constant_opIdEEKNS_6MatrixIdLin1ELin1ELi0ELin1ELin1EEEEESA_EEEC2Ev"
 "_ZN5Eigen10MatrixBaseINS_13CwiseBinaryOpINS_8internal17scalar_product_opIddEEKNS_6MatrixIdLin1ELin1ELi0ELin1ELin1EEEKNS_14CwiseNullaryOpINS2_18scalar_constant_opIdEES7_EEEEEC2Ev"
 "_ZN5Eigen10MatrixBaseINS_13CwiseBinaryOpINS_8internal17scalar_product_opIddEEKNS_9TransposeIKNS_5BlockIKNS_6MatrixIdLin1ELin1ELi0ELin1ELin1EEELi1ELin1ELb0EEEEEKNS6_IS9_Lin1ELi1ELb1EEEEEEC2Ev"
 "_ZN5Eigen10MatrixBaseINS_13CwiseBinaryOpINS_8internal17scalar_product_opIddEEKNS_9TransposeIKNS_5BlockIKNS6_INS6_INS_3MapINS_6MatrixIdLin1ELin1ELi0ELin1ELin1EEELi0ENS_6StrideILi0ELi0EEEEELin1ELin1ELb0EEELin1ELin1ELb0EEELi1ELin1ELb0EEEEEKNS6_ISF_Lin1ELi1ELb1EEEEEEC2Ev"
 "_ZN5Eigen10MatrixBaseINS_13MatrixWrapperIKNS_5ArrayIdLin1ELi1ELi0ELin1ELi1EEEEEEC2Ev"
 "_ZN5Eigen10MatrixBaseINS_13MatrixWrapperIKNS_5ArrayIiLin1ELi1ELi0ELin1ELi1EEEEEEC2Ev"
 "_ZN5Eigen10MatrixBaseINS_14CwiseNullaryOpINS_8internal18scalar_constant_opIbEENS_6MatrixIbLin1ELi1ELi0ELin1ELi1EEEEEEC2Ev"
 "_ZN5Eigen10MatrixBaseINS_14CwiseNullaryOpINS_8internal18scalar_constant_opIdEEKNS_6MatrixIdLin1ELi1ELi0ELin1ELi1EEEEEEC2Ev"
 "_ZN5Eigen10MatrixBaseINS_14CwiseNullaryOpINS_8internal18scalar_constant_opIdEEKNS_6MatrixIdLin1ELin1ELi0ELin1ELin1EEEEEEC2Ev"
 "_ZN5Eigen10MatrixBaseINS_14CwiseNullaryOpINS_8internal18scalar_constant_opIdEENS_6MatrixIdLin1ELi1ELi0ELin1ELi1EEEEEEC2Ev"
 "_ZN5Eigen10MatrixBaseINS_14CwiseNullaryOpINS_8internal18scalar_constant_opIdEENS_6MatrixIdLin1ELin1ELi0ELin1ELin1EEEEEEC2Ev"
 "_ZN5Eigen10MatrixBaseINS_14CwiseNullaryOpINS_8internal18scalar_identity_opIdEENS_6MatrixIdLin1ELin1ELi0ELin1ELin1EEEEEEC2Ev"
 "_ZN5Eigen10MatrixBaseINS_16PartialReduxExprIKNS_12CwiseUnaryOpINS_8internal13scalar_abs_opIdEEKNS_6MatrixIdLin1ELin1ELi0ELin1ELin1EEEEENS3_10member_sumIdEELi0EEEEC2Ev"
 "_ZN5Eigen10MatrixBaseINS_16PartialReduxExprINS_6MatrixIdLin1ELin1ELi0ELin1ELin1EEENS_8internal10member_sumIdEELi1EEEEC2Ev"
 "_ZN5Eigen10MatrixBaseINS_3MapINS_6MatrixIdLin1ELi1ELi0ELin1ELi1EEELi0ENS_6StrideILi0ELi0EEEEEEC2Ev"
 "_ZN5Eigen10MatrixBaseINS_3MapINS_6MatrixIdLin1ELin1ELi0ELin1ELin1EEELi0ENS_6StrideILi0ELi0EEEEEEC2Ev"
 "_ZN5Eigen10MatrixBaseINS_5BlockIKNS_12CwiseUnaryOpINS_8internal13scalar_abs_opIdEEKNS_6MatrixIdLin1ELin1ELi0ELin1ELin1EEEEELin1ELi1ELb1EEEEC2Ev"
 "_ZN5Eigen10MatrixBaseINS_5BlockIKNS_14CwiseNullaryOpINS_8internal18scalar_identity_opIdEENS_6MatrixIdLin1ELin1ELi0ELin1ELin1EEEEELi1ELin1ELb0EEEEC2Ev"
 "_ZN5Eigen10MatrixBaseINS_5BlockIKNS_6MatrixIdLin1ELin1ELi0ELin1ELin1EEELi1ELin1ELb0EEEEC2Ev"
 "_ZN5Eigen10MatrixBaseINS_5BlockIKNS_6MatrixIdLin1ELin1ELi0ELin1ELin1EEELin1ELi1ELb1EEEEC2Ev"
 "_ZN5Eigen10MatrixBaseINS_5BlockIKNS_6MatrixIdLin1ELin1ELi0ELin1ELin1EEELin1ELin1ELb0EEEEC2Ev"
 "_ZN5Eigen10MatrixBaseINS_5BlockIKNS1_INS1_INS_3MapINS_6MatrixIdLin1ELin1ELi0ELin1ELin1EEELi0ENS_6StrideILi0ELi0EEEEELin1ELin1ELb0EEELin1ELin1ELb0EEELi1ELin1ELb0EEEEC2Ev"
 "_ZN5Eigen10MatrixBaseINS_5BlockIKNS1_INS1_INS_3MapINS_6MatrixIdLin1ELin1ELi0ELin1ELin1EEELi0ENS_6StrideILi0ELi0EEEEELin1ELin1ELb0EEELin1ELin1ELb0EEELin1ELi1ELb1EEEEC2Ev"
 "_ZN5Eigen10MatrixBaseINS_5BlockINS_3MapINS_6MatrixIdLin1ELin1ELi0ELin1ELin1EEELi0ENS_6StrideILi0ELi0EEEEELin1ELin1ELb0EEEEC2Ev"
 "_ZN5Eigen10MatrixBaseINS_5BlockINS_6MatrixIdLin1ELin1ELi0ELin1ELin1EEELi1ELin1ELb0EEEEaSINS_5ArrayIdLin1ELi1ELi0ELin1ELi1EEEEERS4_RKNS_9DenseBaseIT_EE"
 "_ZN5Eigen10MatrixBaseINS_5BlockINS_6MatrixIdLin1ELin1ELi0ELin1ELin1EEELi1ELin1ELb0EEEEaSINS1_IKNS_14CwiseNullaryOpINS_8internal18scalar_identity_opIdEES3_EELi1ELin1ELb0EEEEERS4_RKNS_9DenseBaseIT_EE"
 "_ZN5Eigen10MatrixBaseINS_5BlockINS_6MatrixIdLin1ELin1ELi0ELin1ELin1EEELi1ELin1ELb0EEEEC2Ev"
 "_ZN5Eigen10MatrixBaseINS_5BlockINS1_INS_3MapINS_6MatrixIdLin1ELin1ELi0ELin1ELin1EEELi0ENS_6StrideILi0ELi0EEEEELin1ELin1ELb0EEELi1ELin1ELb0EEEEC2Ev"
 "_ZN5Eigen10MatrixBaseINS_5BlockINS1_INS_3MapINS_6MatrixIdLin1ELin1ELi0ELin1ELin1EEELi0ENS_6StrideILi0ELi0EEEEELin1ELin1ELb0EEELin1ELi1ELb1EEEEC2Ev"
 "_ZN5Eigen10MatrixBaseINS_5BlockINS1_INS_3MapINS_6MatrixIdLin1ELin1ELi0ELin1ELin1EEELi0ENS_6StrideILi0ELi0EEEEELin1ELin1ELb0EEELin1ELin1ELb0EEEE14triangularViewILj5EEENSA_24TriangularViewReturnTypeIXT_EE4TypeEv"
 "_ZN5Eigen10MatrixBaseINS_5BlockINS1_INS_3MapINS_6MatrixIdLin1ELin1ELi0ELin1ELin1EEELi0ENS_6StrideILi0ELi0EEEEELin1ELin1ELb0EEELin1ELin1ELb0EEEE7noaliasEv"
 "_ZN5Eigen10MatrixBaseINS_5BlockINS1_INS_3MapINS_6MatrixIdLin1ELin1ELi0ELin1ELin1EEELi0ENS_6StrideILi0ELi0EEEEELin1ELin1ELb0EEELin1ELin1ELb0EEEEC2Ev"
 "_ZN5Eigen10MatrixBaseINS_5BlockINS1_INS1_INS_3MapINS_6MatrixIdLin1ELin1ELi0ELin1ELin1EEELi0ENS_6StrideILi0ELi0EEEEELin1ELin1ELb0EEELi1ELin1ELb0EEELi1ELin1ELb0EEEEC2Ev"
 "_ZN5Eigen10MatrixBaseINS_5BlockINS1_INS1_INS_3MapINS_6MatrixIdLin1ELin1ELi0ELin1ELin1EEELi0ENS_6StrideILi0ELi0EEEEELin1ELin1ELb0EEELin1ELi1ELb1EEELin1ELi1ELb0EEEEC2Ev"
 "_ZN5Eigen10MatrixBaseINS_5BlockINS1_INS1_INS_3MapINS_6MatrixIdLin1ELin1ELi0ELin1ELin1EEELi0ENS_6StrideILi0ELi0EEEEELin1ELin1ELb0EEELin1ELin1ELb0EEELi1ELin1ELb0EEEEC2Ev"
 "_ZN5Eigen10MatrixBaseINS_5BlockINS1_INS1_INS_3MapINS_6MatrixIdLin1ELin1ELi0ELin1ELin1EEELi0ENS_6StrideILi0ELi0EEEEELin1ELin1ELb0EEELin1ELin1ELb0EEELin1ELi1ELb1EEEEC2Ev"
 "_ZN5Eigen10MatrixBaseINS_5BlockINS1_INS1_INS_3MapINS_6MatrixIdLin1ELin1ELi0ELin1ELin1EEELi0ENS_6StrideILi0ELi0EEEEELin1ELin1ELb0EEELin1ELin1ELb0EEELin1ELi1ELb1EEEEmIINS_13CwiseBinaryOpINS_8internal17scalar_product_opIddEEKNS_14CwiseNullaryOpINSE_18scalar_constant_opIdEEKNS3_IdLin1ELi1ELi0ELin1ELi1EEEEEKNS1_INS1_IS8_Lin1ELi1ELb1EEELin1ELi1ELb0EEEEEEERSA_RKNS0_IT_EE"
 "_ZN5Eigen10MatrixBaseINS_5SolveINS_12PartialPivLUINS_6MatrixIdLin1ELin1ELi0ELin1ELin1EEEEENS_14CwiseNullaryOpINS_8internal18scalar_identity_opIdEES4_EEEEEC2Ev"
 "_ZN5Eigen10MatrixBaseINS_6MatrixIbLin1ELi1ELi0ELin1ELi1EEEEC2Ev"
 "_ZN5Eigen10MatrixBaseINS_6MatrixIdLin1ELi1ELi0ELin1ELi1EEEEC2Ev"
 "_ZN5Eigen10MatrixBaseINS_6MatrixIdLin1ELin1ELi0ELin1ELin1EEEE11setIdentityEv"
 "_ZN5Eigen10MatrixBaseINS_6MatrixIdLin1ELin1ELi0ELin1ELin1EEEE5arrayEv"
 "_ZN5Eigen10MatrixBaseINS_6MatrixIdLin1ELin1ELi0ELin1ELin1EEEE8IdentityExx"
 "_ZN5Eigen10MatrixBaseINS_6MatrixIdLin1ELin1ELi0ELin1ELin1EEEEC2Ev"
 "_ZN5Eigen10MatrixBaseINS_6MatrixIdLin1ELin1ELi0ELin1ELin1EEEEmIIS2_EERS2_RKNS0_IT_EE"
 "_ZN5Eigen10MatrixBaseINS_6MatrixIdLin1ELin1ELi0ELin1ELin1EEEEpLIS2_EERS2_RKNS0_IT_EE"
 "_ZN5Eigen10MatrixBaseINS_6MatrixIiLin1ELi1ELi0ELin1ELi1EEEEC2Ev"
 "_ZN5Eigen10MatrixBaseINS_6MatrixIiLin1ELin1ELi0ELin1ELin1EEEEC2Ev"
 "_ZN5Eigen10MatrixBaseINS_6MatrixIN5CppAD2ADIdEELin1ELin1ELi0ELin1ELin1EEEEC2Ev"
 "_ZN5Eigen10MatrixBaseINS_6MatrixIN5CppAD2ADINS3_IdEEEELin1ELin1ELi0ELin1ELin1EEEEC2Ev"
 "_ZN5Eigen10MatrixBaseINS_6MatrixIN5CppAD2ADINS3_INS3_IdEEEEEELin1ELin1ELi0ELin1ELin1EEEEC2Ev"
 "_ZN5Eigen10MatrixBaseINS_7InverseINS_12PartialPivLUINS_6MatrixIdLin1ELin1ELi0ELin1ELin1EEEEEEEEC2Ev"
 "_ZN5Eigen10MatrixBaseINS_7InverseINS_6MatrixIdLin1ELin1ELi0ELin1ELin1EEEEEEC2Ev"
 "_ZN5Eigen10MatrixBaseINS_7ProductINS_17PermutationMatrixILin1ELin1EiEENS_14CwiseNullaryOpINS_8internal18scalar_identity_opIdEENS_6MatrixIdLin1ELin1ELi0ELin1ELin1EEEEELi2EEEEC2Ev"
 "_ZN5Eigen10MatrixBaseINS_7ProductINS_5BlockINS2_INS_3MapINS_6MatrixIdLin1ELin1ELi0ELin1ELin1EEELi0ENS_6StrideILi0ELi0EEEEELin1ELin1ELb0EEELin1ELin1ELb0EEESA_Li0EEEEC2Ev"
 "_ZN5Eigen10MatrixBaseINS_7ProductINS_5BlockINS2_INS_3MapINS_6MatrixIdLin1ELin1ELi0ELin1ELin1EEELi0ENS_6StrideILi0ELi0EEEEELin1ELin1ELb0EEELin1ELin1ELb0EEESA_Li1EEEEC2Ev"
 "_ZN5Eigen10MatrixBaseINS_7ProductINS_5BlockINS2_INS2_INS_3MapINS_6MatrixIdLin1ELin1ELi0ELin1ELin1EEELi0ENS_6StrideILi0ELi0EEEEELin1ELin1ELb0EEELin1ELi1ELb1EEELin1ELi1ELb0EEENS2_INS2_IS9_Li1ELin1ELb0EEELi1ELin1ELb0EEELi0EEEEC2Ev"
 "_ZN5Eigen10MatrixBaseINS_7ProductINS_6MatrixIdLin1ELin1ELi0ELin1ELin1EEES3_Li0EEEEC2Ev"
 "_ZN5Eigen10MatrixBaseINS_7ProductINS_6MatrixIdLin1ELin1ELi0ELin1ELin1EEES3_Li1EEEEC2Ev"
 "_ZN5Eigen10MatrixBaseINS_9TransposeIKNS_5BlockIKNS_6MatrixIdLin1ELin1ELi0ELin1ELin1EEELi1ELin1ELb0EEEEEEC2Ev"
 "_ZN5Eigen10MatrixBaseINS_9TransposeIKNS_5BlockIKNS2_INS2_INS_3MapINS_6MatrixIdLin1ELin1ELi0ELin1ELin1EEELi0ENS_6StrideILi0ELi0EEEEELin1ELin1ELb0EEELin1ELin1ELb0EEELi1ELin1ELb0EEEEEEC2Ev"
 "_ZN5Eigen10MatrixBaseINS_9TransposeINS_5BlockINS_6MatrixIdLin1ELin1ELi0ELin1ELin1EEELi1ELin1ELb0EEEEEEC2Ev"
 "_ZN5Eigen10SolverBaseINS_12PartialPivLUINS_6MatrixIdLin1ELin1ELi0ELin1ELin1EEEEEEC2Ev"
 "_ZN5Eigen10SolverBaseINS_12PartialPivLUINS_6MatrixIdLin1ELin1ELi0ELin1ELin1EEEEEED2Ev"
 "_ZN5Eigen11InverseImplINS_12PartialPivLUINS_6MatrixIdLin1ELin1ELi0ELin1ELin1EEEEENS_13SolverStorageEEC2Ev"
 "_ZN5Eigen11InverseImplINS_6MatrixIdLin1ELin1ELi0ELin1ELin1EEENS_5DenseEEC2Ev"
 "_ZN5Eigen11ProductImplINS_17PermutationMatrixILin1ELin1EiEENS_14CwiseNullaryOpINS_8internal18scalar_identity_opIdEENS_6MatrixIdLin1ELin1ELi0ELin1ELin1EEEEELi2ENS_5DenseEEC2Ev"
 "_ZN5Eigen11ProductImplINS_5BlockINS1_INS_3MapINS_6MatrixIdLin1ELin1ELi0ELin1ELin1EEELi0ENS_6StrideILi0ELi0EEEEELin1ELin1ELb0EEELin1ELin1ELb0EEES9_Li0ENS_5DenseEEC2Ev"
 "_ZN5Eigen11ProductImplINS_5BlockINS1_INS_3MapINS_6MatrixIdLin1ELin1ELi0ELin1ELin1EEELi0ENS_6StrideILi0ELi0EEEEELin1ELin1ELb0EEELin1ELin1ELb0EEES9_Li1ENS_5DenseEEC2Ev"
 "_ZN5Eigen11ProductImplINS_5BlockINS1_INS1_INS_3MapINS_6MatrixIdLin1ELin1ELi0ELin1ELin1EEELi0ENS_6StrideILi0ELi0EEEEELin1ELin1ELb0EEELin1ELi1ELb1EEELin1ELi1ELb0EEENS1_INS1_IS8_Li1ELin1ELb0EEELi1ELin1ELb0EEELi0ENS_5DenseEEC2Ev"
 "_ZN5Eigen11ProductImplINS_6MatrixIdLin1ELin1ELi0ELin1ELin1EEES2_Li0ENS_5DenseEEC2Ev"
 "_ZN5Eigen11ProductImplINS_6MatrixIdLin1ELin1ELi0ELin1ELin1EEES2_Li1ENS_5DenseEEC2Ev"
 "_ZN5Eigen11VectorBlockINS_5ArrayIdLin1ELi1ELi0ELin1ELi1EEELin1EEC1ERS2_xx"
 "_ZN5Eigen11VectorBlockINS_5ArrayIN5CppAD2ADIdEELin1ELi1ELi0ELin1ELi1EEELin1EEC1ERS5_xx"
 "_ZN5Eigen11VectorBlockINS_5ArrayIN5CppAD2ADINS3_IdEEEELin1ELi1ELi0ELin1ELi1EEELin1EEC1ERS6_xx"
 "_ZN5Eigen11VectorBlockINS_5ArrayIN5CppAD2ADINS3_INS3_IdEEEEEELin1ELi1ELi0ELin1ELi1EEELin1EEC1ERS7_xx"
 "_ZN5Eigen11VectorBlockINS_5ArrayIN8tmbutils6matrixIdEELin1ELi1ELi0ELin1ELi1EEELin1EEC1ERS5_xx"
 "_ZN5Eigen11VectorBlockINS_5BlockINS1_INS_3MapINS_6MatrixIdLin1ELin1ELi0ELin1ELin1EEELi0ENS_6StrideILi0ELi0EEEEELin1ELin1ELb0EEELi1ELin1ELb0EEELin1EEC1ERS9_xx"
 "_ZN5Eigen11VectorBlockINS_5BlockINS1_INS_3MapINS_6MatrixIdLin1ELin1ELi0ELin1ELin1EEELi0ENS_6StrideILi0ELi0EEEEELin1ELin1ELb0EEELin1ELi1ELb1EEELin1EEC1ERS9_xx"
 "_ZN5Eigen12ArrayWrapperIKNS_5BlockIKNS_6MatrixIdLin1ELin1ELi0ELin1ELin1EEELin1ELin1ELb0EEEEC1ERS6_"
 "_ZN5Eigen12ArrayWrapperIKNS_6MatrixIdLin1ELin1ELi0ELin1ELin1EEEEC1ERS3_"
 "_ZN5Eigen12ArrayWrapperINS_6MatrixIdLin1ELin1ELi0ELin1ELin1EEEEC1ERS2_"
 "_ZN5Eigen12CwiseUnaryOpINS_8internal13scalar_abs_opIdEEKNS_12ArrayWrapperINS_6MatrixIdLin1ELin1ELi0ELin1ELin1EEEEEEC1ERS8_RKS3_"
 "_ZN5Eigen12CwiseUnaryOpINS_8internal13scalar_abs_opIdEEKNS_6MatrixIdLin1ELin1ELi0ELin1ELin1EEEEC1ERKS7_"
 "_ZN5Eigen12CwiseUnaryOpINS_8internal13scalar_abs_opIdEEKNS_6MatrixIdLin1ELin1ELi0ELin1ELin1EEEEC1ERS6_RKS3_"
 "_ZN5Eigen12CwiseUnaryOpINS_8internal14scalar_cast_opIbiEEKNS_5ArrayIbLin1ELi1ELi0ELin1ELi1EEEEC1ERS6_RKS3_"
 "_ZN5Eigen12CwiseUnaryOpINS_8internal14scalar_cast_opIdiEEKNS_3MapINS_6MatrixIdLin1ELi1ELi0ELin1ELi1EEELi0ENS_6StrideILi0ELi0EEEEEEC1ERSA_RKS3_"
 "_ZN5Eigen12CwiseUnaryOpINS_8internal14scalar_cast_opIdN5CppAD2ADIdEEEEKNS_3MapINS_6MatrixIdLin1ELi1ELi0ELin1ELi1EEELi0ENS_6StrideILi0ELi0EEEEEEC1ERSD_RKS6_"
 "_ZN5Eigen12CwiseUnaryOpINS_8internal14scalar_cast_opIdN5CppAD2ADINS4_IdEEEEEEKNS_3MapINS_6MatrixIdLin1ELi1ELi0ELin1ELi1EEELi0ENS_6StrideILi0ELi0EEEEEEC1ERSE_RKS7_"
 "_ZN5Eigen12CwiseUnaryOpINS_8internal14scalar_cast_opIdN5CppAD2ADINS4_INS4_IdEEEEEEEEKNS_3MapINS_6MatrixIdLin1ELi1ELi0ELin1ELi1EEELi0ENS_6StrideILi0ELi0EEEEEEC1ERSF_RKS8_"
 "_ZN5Eigen12CwiseUnaryOpINS_8internal21scalar_score_coeff_opIdEEKNS_5BlockINS4_INS4_INS_3MapINS_6MatrixIdLin1ELin1ELi0ELin1ELin1EEELi0ENS_6StrideILi0ELi0EEEEELin1ELin1ELb0EEELin1ELi1ELb1EEELin1ELi1ELb0EEEEC1ERSE_RKS3_"
 "_ZN5Eigen12DenseStorageIbLin1ELin1ELi1ELi0EE4colsEv"
 "_ZN5Eigen12DenseStorageIbLin1ELin1ELi1ELi0EE4dataEv"
 "_ZN5Eigen12DenseStorageIbLin1ELin1ELi1ELi0EE6resizeExxx"
 "_ZN5Eigen12DenseStorageIbLin1ELin1ELi1ELi0EEC1Ev"
 "_ZN5Eigen12DenseStorageIbLin1ELin1ELi1ELi0EED1Ev"
 "_ZN5Eigen12DenseStorageIdLin1ELin1ELi1ELi0EE18conservativeResizeExxx"
 "_ZN5Eigen12DenseStorageIdLin1ELin1ELi1ELi0EE4colsEv"
 "_ZN5Eigen12DenseStorageIdLin1ELin1ELi1ELi0EE4dataEv"
 "_ZN5Eigen12DenseStorageIdLin1ELin1ELi1ELi0EE4swapERS1_"
 "_ZN5Eigen12DenseStorageIdLin1ELin1ELi1ELi0EE6resizeExxx"
 "_ZN5Eigen12DenseStorageIdLin1ELin1ELi1ELi0EEC1EOS1_"
 "_ZN5Eigen12DenseStorageIdLin1ELin1ELi1ELi0EEC1ERKS1_"
 "_ZN5Eigen12DenseStorageIdLin1ELin1ELi1ELi0EEC1Ev"
 "_ZN5Eigen12DenseStorageIdLin1ELin1ELi1ELi0EED1Ev"
 "_ZN5Eigen12DenseStorageIdLin1ELin1ELin1ELi0EE4dataEv"
 "_ZN5Eigen12DenseStorageIdLin1ELin1ELin1ELi0EE4swapERS1_"
 "_ZN5Eigen12DenseStorageIdLin1ELin1ELin1ELi0EE6resizeExxx"
 "_ZN5Eigen12DenseStorageIdLin1ELin1ELin1ELi0EEC1ERKS1_"
 "_ZN5Eigen12DenseStorageIdLin1ELin1ELin1ELi0EEC1Ev"
 "_ZN5Eigen12DenseStorageIdLin1ELin1ELin1ELi0EED1Ev"
 "_ZN5Eigen12DenseStorageIiLin1ELin1ELi1ELi0EE4colsEv"
 "_ZN5Eigen12DenseStorageIiLin1ELin1ELi1ELi0EE4dataEv"
 "_ZN5Eigen12DenseStorageIiLin1ELin1ELi1ELi0EE6resizeExxx"
 "_ZN5Eigen12DenseStorageIiLin1ELin1ELi1ELi0EEC1ERKS1_"
 "_ZN5Eigen12DenseStorageIiLin1ELin1ELi1ELi0EEC1Ev"
 "_ZN5Eigen12DenseStorageIiLin1ELin1ELi1ELi0EED1Ev"
 "_ZN5Eigen12DenseStorageIiLin1ELin1ELin1ELi0EE6resizeExxx"
 "_ZN5Eigen12DenseStorageIiLin1ELin1ELin1ELi0EEC1Ev"
 "_ZN5Eigen12DenseStorageIiLin1ELin1ELin1ELi0EED1Ev"
 "_ZN5Eigen12DenseStorageIN5CppAD2ADIdEELin1ELin1ELi1ELi0EE18conservativeResizeExxx"
 "_ZN5Eigen12DenseStorageIN5CppAD2ADIdEELin1ELin1ELi1ELi0EE4colsEv"
 "_ZN5Eigen12DenseStorageIN5CppAD2ADIdEELin1ELin1ELi1ELi0EE4dataEv"
 "_ZN5Eigen12DenseStorageIN5CppAD2ADIdEELin1ELin1ELi1ELi0EE4swapERS4_"
 "_ZN5Eigen12DenseStorageIN5CppAD2ADIdEELin1ELin1ELi1ELi0EE6resizeExxx"
 "_ZN5Eigen12DenseStorageIN5CppAD2ADIdEELin1ELin1ELi1ELi0EEC1EOS4_"
 "_ZN5Eigen12DenseStorageIN5CppAD2ADIdEELin1ELin1ELi1ELi0EEC1ERKS4_"
 "_ZN5Eigen12DenseStorageIN5CppAD2ADIdEELin1ELin1ELi1ELi0EEC1Ev"
 "_ZN5Eigen12DenseStorageIN5CppAD2ADIdEELin1ELin1ELi1ELi0EED1Ev"
 "_ZN5Eigen12DenseStorageIN5CppAD2ADIdEELin1ELin1ELin1ELi0EE6resizeExxx"
 "_ZN5Eigen12DenseStorageIN5CppAD2ADIdEELin1ELin1ELin1ELi0EEC1Ev"
 "_ZN5Eigen12DenseStorageIN5CppAD2ADIdEELin1ELin1ELin1ELi0EED1Ev"
 "_ZN5Eigen12DenseStorageIN5CppAD2ADINS2_IdEEEELin1ELin1ELi1ELi0EE18conservativeResizeExxx"
 "_ZN5Eigen12DenseStorageIN5CppAD2ADINS2_IdEEEELin1ELin1ELi1ELi0EE4colsEv"
 "_ZN5Eigen12DenseStorageIN5CppAD2ADINS2_IdEEEELin1ELin1ELi1ELi0EE4dataEv"
 "_ZN5Eigen12DenseStorageIN5CppAD2ADINS2_IdEEEELin1ELin1ELi1ELi0EE4swapERS5_"
 "_ZN5Eigen12DenseStorageIN5CppAD2ADINS2_IdEEEELin1ELin1ELi1ELi0EE6resizeExxx"
 "_ZN5Eigen12DenseStorageIN5CppAD2ADINS2_IdEEEELin1ELin1ELi1ELi0EEC1EOS5_"
 "_ZN5Eigen12DenseStorageIN5CppAD2ADINS2_IdEEEELin1ELin1ELi1ELi0EEC1ERKS5_"
 "_ZN5Eigen12DenseStorageIN5CppAD2ADINS2_IdEEEELin1ELin1ELi1ELi0EEC1Ev"
 "_ZN5Eigen12DenseStorageIN5CppAD2ADINS2_IdEEEELin1ELin1ELi1ELi0EED1Ev"
 "_ZN5Eigen12DenseStorageIN5CppAD2ADINS2_IdEEEELin1ELin1ELin1ELi0EE6resizeExxx"
 "_ZN5Eigen12DenseStorageIN5CppAD2ADINS2_IdEEEELin1ELin1ELin1ELi0EEC1Ev"
 "_ZN5Eigen12DenseStorageIN5CppAD2ADINS2_IdEEEELin1ELin1ELin1ELi0EED1Ev"
 "_ZN5Eigen12DenseStorageIN5CppAD2ADINS2_INS2_IdEEEEEELin1ELin1ELi1ELi0EE18conservativeResizeExxx"
 "_ZN5Eigen12DenseStorageIN5CppAD2ADINS2_INS2_IdEEEEEELin1ELin1ELi1ELi0EE4colsEv"
 "_ZN5Eigen12DenseStorageIN5CppAD2ADINS2_INS2_IdEEEEEELin1ELin1ELi1ELi0EE4dataEv"
 "_ZN5Eigen12DenseStorageIN5CppAD2ADINS2_INS2_IdEEEEEELin1ELin1ELi1ELi0EE4swapERS6_"
 "_ZN5Eigen12DenseStorageIN5CppAD2ADINS2_INS2_IdEEEEEELin1ELin1ELi1ELi0EE6resizeExxx"
 "_ZN5Eigen12DenseStorageIN5CppAD2ADINS2_INS2_IdEEEEEELin1ELin1ELi1ELi0EEC1EOS6_"
 "_ZN5Eigen12DenseStorageIN5CppAD2ADINS2_INS2_IdEEEEEELin1ELin1ELi1ELi0EEC1ERKS6_"
 "_ZN5Eigen12DenseStorageIN5CppAD2ADINS2_INS2_IdEEEEEELin1ELin1ELi1ELi0EEC1Ev"
 "_ZN5Eigen12DenseStorageIN5CppAD2ADINS2_INS2_IdEEEEEELin1ELin1ELi1ELi0EED1Ev"
 "_ZN5Eigen12DenseStorageIN5CppAD2ADINS2_INS2_IdEEEEEELin1ELin1ELin1ELi0EE6resizeExxx"
 "_ZN5Eigen12DenseStorageIN5CppAD2ADINS2_INS2_IdEEEEEELin1ELin1ELin1ELi0EEC1Ev"
 "_ZN5Eigen12DenseStorageIN5CppAD2ADINS2_INS2_IdEEEEEELin1ELin1ELin1ELi0EED1Ev"
 "_ZN5Eigen12DenseStorageIN8tmbutils6matrixIdEELin1ELin1ELi1ELi0EE4colsEv"
 "_ZN5Eigen12DenseStorageIN8tmbutils6matrixIdEELin1ELin1ELi1ELi0EE4dataEv"
 "_ZN5Eigen12DenseStorageIN8tmbutils6matrixIdEELin1ELin1ELi1ELi0EE6resizeExxx"
 "_ZN5Eigen12DenseStorageIN8tmbutils6matrixIdEELin1ELin1ELi1ELi0EEC1ERKS4_"
 "_ZN5Eigen12DenseStorageIN8tmbutils6matrixIdEELin1ELin1ELi1ELi0EEC1Ev"
 "_ZN5Eigen12DenseStorageIN8tmbutils6matrixIdEELin1ELin1ELi1ELi0EED1Ev"
 "_ZN5Eigen12DenseStorageIN8tmbutils6vectorIdEELin1ELin1ELi1ELi0EE6resizeExxx"
 "_ZN5Eigen12DenseStorageIN8tmbutils6vectorIdEELin1ELin1ELi1ELi0EEC1Ev"
 "_ZN5Eigen12DenseStorageIN8tmbutils6vectorIdEELin1ELin1ELi1ELi0EED1Ev"
 "_ZN5Eigen12DenseStorageIN8tmbutils6vectorIiEELin1ELin1ELi1ELi0EE18conservativeResizeExxx"
 "_ZN5Eigen12DenseStorageIN8tmbutils6vectorIiEELin1ELin1ELi1ELi0EE4colsEv"
 "_ZN5Eigen12DenseStorageIN8tmbutils6vectorIiEELin1ELin1ELi1ELi0EE6resizeExxx"
 "_ZN5Eigen12DenseStorageIN8tmbutils6vectorIiEELin1ELin1ELi1ELi0EEC1Ev"
 "_ZN5Eigen12DenseStorageIN8tmbutils6vectorIiEELin1ELin1ELi1ELi0EED1Ev"
 "_ZN5Eigen12DenseStorageIN8tmbutils6vectorIyEELin1ELin1ELi1ELi0EED1Ev"
 "_ZN5Eigen12DenseStorageINS_6MatrixIdLin1ELi1ELi0ELin1ELi1EEELin1ELin1ELi1ELi0EE6resizeExxx"
 "_ZN5Eigen12DenseStorageINS_6MatrixIdLin1ELi1ELi0ELin1ELi1EEELin1ELin1ELi1ELi0EEC1Ev"
 "_ZN5Eigen12DenseStorageINS_6MatrixIdLin1ELi1ELi0ELin1ELi1EEELin1ELin1ELi1ELi0EED1Ev"
 "_ZN5Eigen12DenseStorageIP8sphess_tIN5CppAD5ADFunIdEEELin1ELin1ELi1ELi0EED1Ev"
 "_ZN5Eigen12DenseStorageIPKcLin1ELin1ELi1ELi0EE18conservativeResizeExxx"
 "_ZN5Eigen12DenseStorageIPKcLin1ELin1ELi1ELi0EE4colsEv"
 "_ZN5Eigen12DenseStorageIPKcLin1ELin1ELi1ELi0EE6resizeExxx"
 "_ZN5Eigen12DenseStorageIPKcLin1ELin1ELi1ELi0EEC1Ev"
 "_ZN5Eigen12DenseStorageIPKcLin1ELin1ELi1ELi0EED1Ev"
 "_ZN5Eigen12DenseStorageIPN5CppAD5ADFunIdEELin1ELin1ELi1ELi0EE4colsEv"
 "_ZN5Eigen12DenseStorageIPN5CppAD5ADFunIdEELin1ELin1ELi1ELi0EED1Ev"
 "_ZN5Eigen12DenseStorageIyLin1ELin1ELi1ELi0EE4colsEv"
 "_ZN5Eigen12DenseStorageIyLin1ELin1ELi1ELi0EE6resizeExxx"
 "_ZN5Eigen12DenseStorageIyLin1ELin1ELi1ELi0EEC1Ev"
 "_ZN5Eigen12DenseStorageIyLin1ELin1ELi1ELi0EED1Ev"
 "_ZN5Eigen12PartialPivLUINS_6MatrixIdLin1ELin1ELi0ELin1ELin1EEEE25check_template_parametersEv"
 "_ZN5Eigen12PartialPivLUINS_6MatrixIdLin1ELin1ELi0ELin1ELin1EEEE7computeEv"
 "_ZN5Eigen12PartialPivLUINS_6MatrixIdLin1ELin1ELi0ELin1ELin1EEEE7computeIS2_EERS3_RKNS_9EigenBaseIT_EE"
 "_ZN5Eigen12PartialPivLUINS_6MatrixIdLin1ELin1ELi0ELin1ELin1EEEEC1ERKS3_"
 "_ZN5Eigen12PartialPivLUINS_6MatrixIdLin1ELin1ELi0ELin1ELin1EEEEC1IS2_EERKNS_9EigenBaseIT_EE"
 "_ZN5Eigen12PartialPivLUINS_6MatrixIdLin1ELin1ELi0ELin1ELin1EEEED1Ev"
 "_ZN5Eigen12VectorwiseOpIKNS_12CwiseUnaryOpINS_8internal13scalar_abs_opIdEEKNS_6MatrixIdLin1ELin1ELi0ELin1ELin1EEEEELi0EEC1ERS9_"
 "_ZN5Eigen12VectorwiseOpINS_6MatrixIdLin1ELin1ELi0ELin1ELin1EEELi1EEC1ERS2_"
 "_ZN5Eigen13CwiseBinaryOpINS_8internal13scalar_sum_opIddEEKNS_5ArrayIdLin1ELi1ELi0ELin1ELi1EEES6_EC1ERS6_S8_RKS3_"
 "_ZN5Eigen13CwiseBinaryOpINS_8internal13scalar_sum_opIddEEKNS_6MatrixIdLin1ELi1ELi0ELin1ELi1EEES6_EC1ERS6_S8_RKS3_"
 "_ZN5Eigen13CwiseBinaryOpINS_8internal13scalar_sum_opIddEEKNS_6MatrixIdLin1ELin1ELi0ELin1ELin1EEES6_EC1ERS6_S8_RKS3_"
 "_ZN5Eigen13CwiseBinaryOpINS_8internal17scalar_product_opIddEEKNS_12ArrayWrapperIKNS_5BlockIKNS_6MatrixIdLin1ELin1ELi0ELin1ELin1EEELin1ELin1ELb0EEEEEKNS4_IS8_EEEC1ERSC_RSE_RKS3_"
 "_ZN5Eigen13CwiseBinaryOpINS_8internal17scalar_product_opIddEEKNS_14CwiseNullaryOpINS1_18scalar_constant_opIdEEKNS_6MatrixIdLin1ELi1ELi0ELin1ELi1EEEEEKNS_5BlockINSC_INSC_INS_3MapINS7_IdLin1ELin1ELi0ELin1ELin1EEELi0ENS_6StrideILi0ELi0EEEEELin1ELin1ELb0EEELin1ELi1ELb1EEELin1ELi1ELb0EEEEC1ERSB_RSL_RKS3_"
 "_ZN5Eigen13CwiseBinaryOpINS_8internal17scalar_product_opIddEEKNS_14CwiseNullaryOpINS1_18scalar_constant_opIdEEKNS_6MatrixIdLin1ELin1ELi0ELin1ELin1EEEEES9_EC1ERSB_RS9_RKS3_"
 "_ZN5Eigen13CwiseBinaryOpINS_8internal17scalar_product_opIddEEKNS_6MatrixIdLin1ELin1ELi0ELin1ELin1EEEKNS_14CwiseNullaryOpINS1_18scalar_constant_opIdEES6_EEEC1ERS6_RSB_RKS3_"
 "_ZN5Eigen13CwiseBinaryOpINS_8internal17scalar_product_opIddEEKNS_9TransposeIKNS_5BlockIKNS_6MatrixIdLin1ELin1ELi0ELin1ELin1EEELi1ELin1ELb0EEEEEKNS5_IS8_Lin1ELi1ELb1EEEEC1ERSC_RSE_RKS3_"
 "_ZN5Eigen13CwiseBinaryOpINS_8internal17scalar_product_opIddEEKNS_9TransposeIKNS_5BlockIKNS5_INS5_INS_3MapINS_6MatrixIdLin1ELin1ELi0ELin1ELin1EEELi0ENS_6StrideILi0ELi0EEEEELin1ELin1ELb0EEELin1ELin1ELb0EEELi1ELin1ELb0EEEEEKNS5_ISE_Lin1ELi1ELb1EEEEC1ERSI_RSK_RKS3_"
 "_ZN5Eigen13CwiseBinaryOpINS_8internal17scalar_product_opIN5CppAD2ADIdEES5_EEKNS_5ArrayIS5_Lin1ELi1ELi0ELin1ELi1EEES9_EC1ERS9_SB_RKS6_"
 "_ZN5Eigen13CwiseBinaryOpINS_8internal17scalar_product_opIN5CppAD2ADINS4_IdEEEES6_EEKNS_5ArrayIS6_Lin1ELi1ELi0ELin1ELi1EEESA_EC1ERSA_SC_RKS7_"
 "_ZN5Eigen13CwiseBinaryOpINS_8internal17scalar_product_opIN5CppAD2ADINS4_INS4_IdEEEEEES7_EEKNS_5ArrayIS7_Lin1ELi1ELi0ELin1ELi1EEESB_EC1ERSB_SD_RKS8_"
 "_ZN5Eigen13MatrixWrapperIKNS_5ArrayIdLin1ELi1ELi0ELin1ELi1EEEEC1ERS3_"
 "_ZN5Eigen13MatrixWrapperIKNS_5ArrayIiLin1ELi1ELi0ELin1ELi1EEEEC1ERS3_"
 "_ZN5Eigen13TransposeImplIKNS_5BlockIKNS_6MatrixIdLin1ELin1ELi0ELin1ELin1EEELi1ELin1ELb0EEENS_5DenseEEC2Ev"
 "_ZN5Eigen13TransposeImplIKNS_5BlockIKNS1_INS1_INS_3MapINS_6MatrixIdLin1ELin1ELi0ELin1ELin1EEELi0ENS_6StrideILi0ELi0EEEEELin1ELin1ELb0EEELin1ELin1ELb0EEELi1ELin1ELb0EEENS_5DenseEEC2Ev"
 "_ZN5Eigen13TransposeImplINS_5BlockINS_6MatrixIdLin1ELin1ELi0ELin1ELin1EEELi1ELin1ELb0EEENS_5DenseEEC2Ev"
 "_ZN5Eigen14CwiseNullaryOpINS_8internal18scalar_constant_opIbEENS_6MatrixIbLin1ELi1ELi0ELin1ELi1EEEEC1ExxRKS3_"
 "_ZN5Eigen14CwiseNullaryOpINS_8internal18scalar_constant_opIdEEKNS_6MatrixIdLin1ELi1ELi0ELin1ELi1EEEEC1ERKS7_"
 "_ZN5Eigen14CwiseNullaryOpINS_8internal18scalar_constant_opIdEEKNS_6MatrixIdLin1ELi1ELi0ELin1ELi1EEEEC1ExxRKS3_"
 "_ZN5Eigen14CwiseNullaryOpINS_8internal18scalar_constant_opIdEEKNS_6MatrixIdLin1ELin1ELi0ELin1ELin1EEEEC1ERKS7_"
 "_ZN5Eigen14CwiseNullaryOpINS_8internal18scalar_constant_opIdEEKNS_6MatrixIdLin1ELin1ELi0ELin1ELin1EEEEC1ExxRKS3_"
 "_ZN5Eigen14CwiseNullaryOpINS_8internal18scalar_constant_opIdEENS_5ArrayIdLin1ELi1ELi0ELin1ELi1EEEEC1ExxRKS3_"
 "_ZN5Eigen14CwiseNullaryOpINS_8internal18scalar_constant_opIdEENS_6MatrixIdLin1ELi1ELi0ELin1ELi1EEEEC1ExxRKS3_"
 "_ZN5Eigen14CwiseNullaryOpINS_8internal18scalar_constant_opIdEENS_6MatrixIdLin1ELin1ELi0ELin1ELin1EEEEC1ExxRKS3_"
 "_ZN5Eigen14CwiseNullaryOpINS_8internal18scalar_identity_opIdEENS_6MatrixIdLin1ELin1ELi0ELin1ELin1EEEEC1ERKS6_"
 "_ZN5Eigen14CwiseNullaryOpINS_8internal18scalar_identity_opIdEENS_6MatrixIdLin1ELin1ELi0ELin1ELin1EEEEC1ExxRKS3_"
 "_ZN5Eigen14TranspositionsILin1ELin1EiE7indicesEv"
 "_ZN5Eigen14TranspositionsILin1ELin1EiEC1ERKS1_"
 "_ZN5Eigen14TranspositionsILin1ELin1EiEC1Ex"
 "_ZN5Eigen14TranspositionsILin1ELin1EiED1Ev"
 "_ZN5Eigen14TriangularBaseINS_14TriangularViewIKNS_6MatrixIdLin1ELin1ELi0ELin1ELin1EEELj2EEEEC2Ev"
 "_ZN5Eigen14TriangularBaseINS_14TriangularViewIKNS_6MatrixIdLin1ELin1ELi0ELin1ELin1EEELj5EEEEC2Ev"
 "_ZN5Eigen14TriangularBaseINS_14TriangularViewINS_5BlockINS2_INS_3MapINS_6MatrixIdLin1ELin1ELi0ELin1ELin1EEELi0ENS_6StrideILi0ELi0EEEEELin1ELin1ELb0EEELin1ELin1ELb0EEELj5EEEEC2Ev"
 "_ZN5Eigen14TriangularViewIKNS_6MatrixIdLin1ELin1ELi0ELin1ELin1EEELj2EEC1ERS3_"
 "_ZN5Eigen14TriangularViewIKNS_6MatrixIdLin1ELin1ELi0ELin1ELin1EEELj5EEC1ERS3_"
 "_ZN5Eigen14TriangularViewINS_5BlockINS1_INS_3MapINS_6MatrixIdLin1ELin1ELi0ELin1ELin1EEELi0ENS_6StrideILi0ELi0EEEEELin1ELin1ELb0EEELin1ELin1ELb0EEELj5EEC1ERS9_"
 "_ZN5Eigen15DenseCoeffsBaseINS_12ArrayWrapperIKNS_5BlockIKNS_6MatrixIdLin1ELin1ELi0ELin1ELin1EEELin1ELin1ELb0EEEEELi0EEC2Ev"
 "_ZN5Eigen15DenseCoeffsBaseINS_12ArrayWrapperIKNS_5BlockIKNS_6MatrixIdLin1ELin1ELi0ELin1ELin1EEELin1ELin1ELb0EEEEELi2EEC2Ev"
 "_ZN5Eigen15DenseCoeffsBaseINS_12ArrayWrapperIKNS_6MatrixIdLin1ELin1ELi0ELin1ELin1EEEEELi0EEC2Ev"
 "_ZN5Eigen15DenseCoeffsBaseINS_12ArrayWrapperIKNS_6MatrixIdLin1ELin1ELi0ELin1ELin1EEEEELi2EEC2Ev"
 "_ZN5Eigen15DenseCoeffsBaseINS_12ArrayWrapperINS_6MatrixIdLin1ELin1ELi0ELin1ELin1EEEEELi0EEC2Ev"
 "_ZN5Eigen15DenseCoeffsBaseINS_12ArrayWrapperINS_6MatrixIdLin1ELin1ELi0ELin1ELin1EEEEELi1EEC2Ev"
 "_ZN5Eigen15DenseCoeffsBaseINS_12ArrayWrapperINS_6MatrixIdLin1ELin1ELi0ELin1ELin1EEEEELi3EEC2Ev"
 "_ZN5Eigen15DenseCoeffsBaseINS_12CwiseUnaryOpINS_8internal13scalar_abs_opIdEEKNS_12ArrayWrapperINS_6MatrixIdLin1ELin1ELi0ELin1ELin1EEEEEEELi0EEC2Ev"
 "_ZN5Eigen15DenseCoeffsBaseINS_12CwiseUnaryOpINS_8internal13scalar_abs_opIdEEKNS_6MatrixIdLin1ELin1ELi0ELin1ELin1EEEEELi0EEC2Ev"
 "_ZN5Eigen15DenseCoeffsBaseINS_12CwiseUnaryOpINS_8internal14scalar_cast_opIbiEEKNS_5ArrayIbLin1ELi1ELi0ELin1ELi1EEEEELi0EEC2Ev"
 "_ZN5Eigen15DenseCoeffsBaseINS_12CwiseUnaryOpINS_8internal14scalar_cast_opIdiEEKNS_3MapINS_6MatrixIdLin1ELi1ELi0ELin1ELi1EEELi0ENS_6StrideILi0ELi0EEEEEEELi0EEC2Ev"
 "_ZN5Eigen15DenseCoeffsBaseINS_12CwiseUnaryOpINS_8internal14scalar_cast_opIdN5CppAD2ADIdEEEEKNS_3MapINS_6MatrixIdLin1ELi1ELi0ELin1ELi1EEELi0ENS_6StrideILi0ELi0EEEEEEELi0EEC2Ev"
 "_ZN5Eigen15DenseCoeffsBaseINS_12CwiseUnaryOpINS_8internal14scalar_cast_opIdN5CppAD2ADINS5_IdEEEEEEKNS_3MapINS_6MatrixIdLin1ELi1ELi0ELin1ELi1EEELi0ENS_6StrideILi0ELi0EEEEEEELi0EEC2Ev"
 "_ZN5Eigen15DenseCoeffsBaseINS_12CwiseUnaryOpINS_8internal14scalar_cast_opIdN5CppAD2ADINS5_INS5_IdEEEEEEEEKNS_3MapINS_6MatrixIdLin1ELi1ELi0ELin1ELi1EEELi0ENS_6StrideILi0ELi0EEEEEEELi0EEC2Ev"
 "_ZN5Eigen15DenseCoeffsBaseINS_12CwiseUnaryOpINS_8internal21scalar_score_coeff_opIdEEKNS_5BlockINS5_INS5_INS_3MapINS_6MatrixIdLin1ELin1ELi0ELin1ELin1EEELi0ENS_6StrideILi0ELi0EEEEELin1ELin1ELb0EEELin1ELi1ELb1EEELin1ELi1ELb0EEEEELi0EEC2Ev"
 "_ZN5Eigen15DenseCoeffsBaseINS_13CwiseBinaryOpINS_8internal13scalar_sum_opIddEEKNS_5ArrayIdLin1ELi1ELi0ELin1ELi1EEES7_EELi0EEC2Ev"
 "_ZN5Eigen15DenseCoeffsBaseINS_13CwiseBinaryOpINS_8internal13scalar_sum_opIddEEKNS_6MatrixIdLin1ELi1ELi0ELin1ELi1EEES7_EELi0EEC2Ev"
 "_ZN5Eigen15DenseCoeffsBaseINS_13CwiseBinaryOpINS_8internal13scalar_sum_opIddEEKNS_6MatrixIdLin1ELin1ELi0ELin1ELin1EEES7_EELi0EEC2Ev"
 "_ZN5Eigen15DenseCoeffsBaseINS_13CwiseBinaryOpINS_8internal17scalar_product_opIddEEKNS_12ArrayWrapperIKNS_5BlockIKNS_6MatrixIdLin1ELin1ELi0ELin1ELin1EEELin1ELin1ELb0EEEEEKNS5_IS9_EEEELi0EEC2Ev"
 "_ZN5Eigen15DenseCoeffsBaseINS_13CwiseBinaryOpINS_8internal17scalar_product_opIddEEKNS_14CwiseNullaryOpINS2_18scalar_constant_opIdEEKNS_6MatrixIdLin1ELi1ELi0ELin1ELi1EEEEEKNS_5BlockINSD_INSD_INS_3MapINS8_IdLin1ELin1ELi0ELin1ELin1EEELi0ENS_6StrideILi0ELi0EEEEELin1ELin1ELb0EEELin1ELi1ELb1EEELin1ELi1ELb0EEEEELi0EEC2Ev"
 "_ZN5Eigen15DenseCoeffsBaseINS_13CwiseBinaryOpINS_8internal17scalar_product_opIddEEKNS_14CwiseNullaryOpINS2_18scalar_constant_opIdEEKNS_6MatrixIdLin1ELin1ELi0ELin1ELin1EEEEESA_EELi0EEC2Ev"
 "_ZN5Eigen15DenseCoeffsBaseINS_13CwiseBinaryOpINS_8internal17scalar_product_opIddEEKNS_6MatrixIdLin1ELin1ELi0ELin1ELin1EEEKNS_14CwiseNullaryOpINS2_18scalar_constant_opIdEES7_EEEELi0EEC2Ev"
 "_ZN5Eigen15DenseCoeffsBaseINS_13CwiseBinaryOpINS_8internal17scalar_product_opIddEEKNS_9TransposeIKNS_5BlockIKNS_6MatrixIdLin1ELin1ELi0ELin1ELin1EEELi1ELin1ELb0EEEEEKNS6_IS9_Lin1ELi1ELb1EEEEELi0EEC2Ev"
 "_ZN5Eigen15DenseCoeffsBaseINS_13CwiseBinaryOpINS_8internal17scalar_product_opIddEEKNS_9TransposeIKNS_5BlockIKNS6_INS6_INS_3MapINS_6MatrixIdLin1ELin1ELi0ELin1ELin1EEELi0ENS_6StrideILi0ELi0EEEEELin1ELin1ELb0EEELin1ELin1ELb0EEELi1ELin1ELb0EEEEEKNS6_ISF_Lin1ELi1ELb1EEEEELi0EEC2Ev"
 "_ZN5Eigen15DenseCoeffsBaseINS_13CwiseBinaryOpINS_8internal17scalar_product_opIN5CppAD2ADIdEES6_EEKNS_5ArrayIS6_Lin1ELi1ELi0ELin1ELi1EEESA_EELi0EEC2Ev"
 "_ZN5Eigen15DenseCoeffsBaseINS_13CwiseBinaryOpINS_8internal17scalar_product_opIN5CppAD2ADINS5_IdEEEES7_EEKNS_5ArrayIS7_Lin1ELi1ELi0ELin1ELi1EEESB_EELi0EEC2Ev"
 "_ZN5Eigen15DenseCoeffsBaseINS_13CwiseBinaryOpINS_8internal17scalar_product_opIN5CppAD2ADINS5_INS5_IdEEEEEES8_EEKNS_5ArrayIS8_Lin1ELi1ELi0ELin1ELi1EEESC_EELi0EEC2Ev"
 "_ZN5Eigen15DenseCoeffsBaseINS_13MatrixWrapperIKNS_5ArrayIdLin1ELi1ELi0ELin1ELi1EEEEELi0EEC2Ev"
 "_ZN5Eigen15DenseCoeffsBaseINS_13MatrixWrapperIKNS_5ArrayIdLin1ELi1ELi0ELin1ELi1EEEEELi2EEC2Ev"
 "_ZN5Eigen15DenseCoeffsBaseINS_13MatrixWrapperIKNS_5ArrayIiLin1ELi1ELi0ELin1ELi1EEEEELi0EEC2Ev"
 "_ZN5Eigen15DenseCoeffsBaseINS_13MatrixWrapperIKNS_5ArrayIiLin1ELi1ELi0ELin1ELi1EEEEELi2EEC2Ev"
 "_ZN5Eigen15DenseCoeffsBaseINS_14CwiseNullaryOpINS_8internal18scalar_constant_opIbEENS_6MatrixIbLin1ELi1ELi0ELin1ELi1EEEEELi0EEC2Ev"
 "_ZN5Eigen15DenseCoeffsBaseINS_14CwiseNullaryOpINS_8internal18scalar_constant_opIdEEKNS_6MatrixIdLin1ELi1ELi0ELin1ELi1EEEEELi0EEC2Ev"
 "_ZN5Eigen15DenseCoeffsBaseINS_14CwiseNullaryOpINS_8internal18scalar_constant_opIdEEKNS_6MatrixIdLin1ELin1ELi0ELin1ELin1EEEEELi0EEC2Ev"
 "_ZN5Eigen15DenseCoeffsBaseINS_14CwiseNullaryOpINS_8internal18scalar_constant_opIdEENS_5ArrayIdLin1ELi1ELi0ELin1ELi1EEEEELi0EEC2Ev"
 "_ZN5Eigen15DenseCoeffsBaseINS_14CwiseNullaryOpINS_8internal18scalar_constant_opIdEENS_6MatrixIdLin1ELi1ELi0ELin1ELi1EEEEELi0EEC2Ev"
 "_ZN5Eigen15DenseCoeffsBaseINS_14CwiseNullaryOpINS_8internal18scalar_constant_opIdEENS_6MatrixIdLin1ELin1ELi0ELin1ELin1EEEEELi0EEC2Ev"
 "_ZN5Eigen15DenseCoeffsBaseINS_14CwiseNullaryOpINS_8internal18scalar_identity_opIdEENS_6MatrixIdLin1ELin1ELi0ELin1ELin1EEEEELi0EEC2Ev"
 "_ZN5Eigen15DenseCoeffsBaseINS_16PartialReduxExprIKNS_12CwiseUnaryOpINS_8internal13scalar_abs_opIdEEKNS_6MatrixIdLin1ELin1ELi0ELin1ELin1EEEEENS3_10member_sumIdEELi0EEELi0EEC2Ev"
 "_ZN5Eigen15DenseCoeffsBaseINS_16PartialReduxExprINS_6MatrixIdLin1ELin1ELi0ELin1ELin1EEENS_8internal10member_sumIdEELi1EEELi0EEC2Ev"
 "_ZN5Eigen15DenseCoeffsBaseINS_3MapINS_6MatrixIdLin1ELi1ELi0ELin1ELi1EEELi0ENS_6StrideILi0ELi0EEEEELi0EEC2Ev"
 "_ZN5Eigen15DenseCoeffsBaseINS_3MapINS_6MatrixIdLin1ELi1ELi0ELin1ELi1EEELi0ENS_6StrideILi0ELi0EEEEELi1EEC2Ev"
 "_ZN5Eigen15DenseCoeffsBaseINS_3MapINS_6MatrixIdLin1ELi1ELi0ELin1ELi1EEELi0ENS_6StrideILi0ELi0EEEEELi3EEC2Ev"
 "_ZN5Eigen15DenseCoeffsBaseINS_3MapINS_6MatrixIdLin1ELin1ELi0ELin1ELin1EEELi0ENS_6StrideILi0ELi0EEEEELi0EEC2Ev"
 "_ZN5Eigen15DenseCoeffsBaseINS_3MapINS_6MatrixIdLin1ELin1ELi0ELin1ELin1EEELi0ENS_6StrideILi0ELi0EEEEELi1EEC2Ev"
 "_ZN5Eigen15DenseCoeffsBaseINS_3MapINS_6MatrixIdLin1ELin1ELi0ELin1ELin1EEELi0ENS_6StrideILi0ELi0EEEEELi3EEC2Ev"
 "_ZN5Eigen15DenseCoeffsBaseINS_5ArrayIbLin1ELi1ELi0ELin1ELi1EEELi0EEC2Ev"
 "_ZN5Eigen15DenseCoeffsBaseINS_5ArrayIbLin1ELi1ELi0ELin1ELi1EEELi1EE8coeffRefEx"
 "_ZN5Eigen15DenseCoeffsBaseINS_5ArrayIbLin1ELi1ELi0ELin1ELi1EEELi1EEC2Ev"
 "_ZN5Eigen15DenseCoeffsBaseINS_5ArrayIbLin1ELi1ELi0ELin1ELi1EEELi1EEixEx"
 "_ZN5Eigen15DenseCoeffsBaseINS_5ArrayIbLin1ELi1ELi0ELin1ELi1EEELi3EEC2Ev"
 "_ZN5Eigen15DenseCoeffsBaseINS_5ArrayIdLin1ELi1ELi0ELin1ELi1EEELi0EEC2Ev"
 "_ZN5Eigen15DenseCoeffsBaseINS_5ArrayIdLin1ELi1ELi0ELin1ELi1EEELi1EE8coeffRefEx"
 "_ZN5Eigen15DenseCoeffsBaseINS_5ArrayIdLin1ELi1ELi0ELin1ELi1EEELi1EEC2Ev"
 "_ZN5Eigen15DenseCoeffsBaseINS_5ArrayIdLin1ELi1ELi0ELin1ELi1EEELi1EEclEx"
 "_ZN5Eigen15DenseCoeffsBaseINS_5ArrayIdLin1ELi1ELi0ELin1ELi1EEELi1EEixEx"
 "_ZN5Eigen15DenseCoeffsBaseINS_5ArrayIdLin1ELi1ELi0ELin1ELi1EEELi3EEC2Ev"
 "_ZN5Eigen15DenseCoeffsBaseINS_5ArrayIdLin1ELin1ELi0ELin1ELin1EEELi0EEC2Ev"
 "_ZN5Eigen15DenseCoeffsBaseINS_5ArrayIdLin1ELin1ELi0ELin1ELin1EEELi1EEC2Ev"
 "_ZN5Eigen15DenseCoeffsBaseINS_5ArrayIdLin1ELin1ELi0ELin1ELin1EEELi3EEC2Ev"
 "_ZN5Eigen15DenseCoeffsBaseINS_5ArrayIiLin1ELi1ELi0ELin1ELi1EEELi0EEC2Ev"
 "_ZN5Eigen15DenseCoeffsBaseINS_5ArrayIiLin1ELi1ELi0ELin1ELi1EEELi1EE8coeffRefEx"
 "_ZN5Eigen15DenseCoeffsBaseINS_5ArrayIiLin1ELi1ELi0ELin1ELi1EEELi1EEC2Ev"
 "_ZN5Eigen15DenseCoeffsBaseINS_5ArrayIiLin1ELi1ELi0ELin1ELi1EEELi1EEclEx"
 "_ZN5Eigen15DenseCoeffsBaseINS_5ArrayIiLin1ELi1ELi0ELin1ELi1EEELi1EEixEx"
 "_ZN5Eigen15DenseCoeffsBaseINS_5ArrayIiLin1ELi1ELi0ELin1ELi1EEELi3EEC2Ev"
 "_ZN5Eigen15DenseCoeffsBaseINS_5ArrayIN5CppAD2ADIdEELin1ELi1ELi0ELin1ELi1EEELi0EEC2Ev"
 "_ZN5Eigen15DenseCoeffsBaseINS_5ArrayIN5CppAD2ADIdEELin1ELi1ELi0ELin1ELi1EEELi1EE8coeffRefEx"
 "_ZN5Eigen15DenseCoeffsBaseINS_5ArrayIN5CppAD2ADIdEELin1ELi1ELi0ELin1ELi1EEELi1EEC2Ev"
 "_ZN5Eigen15DenseCoeffsBaseINS_5ArrayIN5CppAD2ADIdEELin1ELi1ELi0ELin1ELi1EEELi1EEclEx"
 "_ZN5Eigen15DenseCoeffsBaseINS_5ArrayIN5CppAD2ADIdEELin1ELi1ELi0ELin1ELi1EEELi1EEixEx"
 "_ZN5Eigen15DenseCoeffsBaseINS_5ArrayIN5CppAD2ADIdEELin1ELi1ELi0ELin1ELi1EEELi3EEC2Ev"
 "_ZN5Eigen15DenseCoeffsBaseINS_5ArrayIN5CppAD2ADIdEELin1ELin1ELi0ELin1ELin1EEELi0EEC2Ev"
 "_ZN5Eigen15DenseCoeffsBaseINS_5ArrayIN5CppAD2ADIdEELin1ELin1ELi0ELin1ELin1EEELi1EEC2Ev"
 "_ZN5Eigen15DenseCoeffsBaseINS_5ArrayIN5CppAD2ADIdEELin1ELin1ELi0ELin1ELin1EEELi3EEC2Ev"
 "_ZN5Eigen15DenseCoeffsBaseINS_5ArrayIN5CppAD2ADINS3_IdEEEELin1ELi1ELi0ELin1ELi1EEELi0EEC2Ev"
 "_ZN5Eigen15DenseCoeffsBaseINS_5ArrayIN5CppAD2ADINS3_IdEEEELin1ELi1ELi0ELin1ELi1EEELi1EE8coeffRefEx"
 "_ZN5Eigen15DenseCoeffsBaseINS_5ArrayIN5CppAD2ADINS3_IdEEEELin1ELi1ELi0ELin1ELi1EEELi1EEC2Ev"
 "_ZN5Eigen15DenseCoeffsBaseINS_5ArrayIN5CppAD2ADINS3_IdEEEELin1ELi1ELi0ELin1ELi1EEELi1EEclEx"
 "_ZN5Eigen15DenseCoeffsBaseINS_5ArrayIN5CppAD2ADINS3_IdEEEELin1ELi1ELi0ELin1ELi1EEELi1EEixEx"
 "_ZN5Eigen15DenseCoeffsBaseINS_5ArrayIN5CppAD2ADINS3_IdEEEELin1ELi1ELi0ELin1ELi1EEELi3EEC2Ev"
 "_ZN5Eigen15DenseCoeffsBaseINS_5ArrayIN5CppAD2ADINS3_IdEEEELin1ELin1ELi0ELin1ELin1EEELi0EEC2Ev"
 "_ZN5Eigen15DenseCoeffsBaseINS_5ArrayIN5CppAD2ADINS3_IdEEEELin1ELin1ELi0ELin1ELin1EEELi1EEC2Ev"
 "_ZN5Eigen15DenseCoeffsBaseINS_5ArrayIN5CppAD2ADINS3_IdEEEELin1ELin1ELi0ELin1ELin1EEELi3EEC2Ev"
 "_ZN5Eigen15DenseCoeffsBaseINS_5ArrayIN5CppAD2ADINS3_INS3_IdEEEEEELin1ELi1ELi0ELin1ELi1EEELi0EEC2Ev"
 "_ZN5Eigen15DenseCoeffsBaseINS_5ArrayIN5CppAD2ADINS3_INS3_IdEEEEEELin1ELi1ELi0ELin1ELi1EEELi1EE8coeffRefEx"
 "_ZN5Eigen15DenseCoeffsBaseINS_5ArrayIN5CppAD2ADINS3_INS3_IdEEEEEELin1ELi1ELi0ELin1ELi1EEELi1EEC2Ev"
 "_ZN5Eigen15DenseCoeffsBaseINS_5ArrayIN5CppAD2ADINS3_INS3_IdEEEEEELin1ELi1ELi0ELin1ELi1EEELi1EEclEx"
 "_ZN5Eigen15DenseCoeffsBaseINS_5ArrayIN5CppAD2ADINS3_INS3_IdEEEEEELin1ELi1ELi0ELin1ELi1EEELi1EEixEx"
 "_ZN5Eigen15DenseCoeffsBaseINS_5ArrayIN5CppAD2ADINS3_INS3_IdEEEEEELin1ELi1ELi0ELin1ELi1EEELi3EEC2Ev"
 "_ZN5Eigen15DenseCoeffsBaseINS_5ArrayIN5CppAD2ADINS3_INS3_IdEEEEEELin1ELin1ELi0ELin1ELin1EEELi0EEC2Ev"
 "_ZN5Eigen15DenseCoeffsBaseINS_5ArrayIN5CppAD2ADINS3_INS3_IdEEEEEELin1ELin1ELi0ELin1ELin1EEELi1EEC2Ev"
 "_ZN5Eigen15DenseCoeffsBaseINS_5ArrayIN5CppAD2ADINS3_INS3_IdEEEEEELin1ELin1ELi0ELin1ELin1EEELi3EEC2Ev"
 "_ZN5Eigen15DenseCoeffsBaseINS_5ArrayIN8tmbutils6matrixIdEELin1ELi1ELi0ELin1ELi1EEELi0EEC2Ev"
 "_ZN5Eigen15DenseCoeffsBaseINS_5ArrayIN8tmbutils6matrixIdEELin1ELi1ELi0ELin1ELi1EEELi1EE8coeffRefEx"
 "_ZN5Eigen15DenseCoeffsBaseINS_5ArrayIN8tmbutils6matrixIdEELin1ELi1ELi0ELin1ELi1EEELi1EEC2Ev"
 "_ZN5Eigen15DenseCoeffsBaseINS_5ArrayIN8tmbutils6matrixIdEELin1ELi1ELi0ELin1ELi1EEELi1EEixEx"
 "_ZN5Eigen15DenseCoeffsBaseINS_5ArrayIN8tmbutils6matrixIdEELin1ELi1ELi0ELin1ELi1EEELi3EEC2Ev"
 "_ZN5Eigen15DenseCoeffsBaseINS_5ArrayIN8tmbutils6vectorIdEELin1ELi1ELi0ELin1ELi1EEELi0EEC2Ev"
 "_ZN5Eigen15DenseCoeffsBaseINS_5ArrayIN8tmbutils6vectorIdEELin1ELi1ELi0ELin1ELi1EEELi1EE8coeffRefEx"
 "_ZN5Eigen15DenseCoeffsBaseINS_5ArrayIN8tmbutils6vectorIdEELin1ELi1ELi0ELin1ELi1EEELi1EEC2Ev"
 "_ZN5Eigen15DenseCoeffsBaseINS_5ArrayIN8tmbutils6vectorIdEELin1ELi1ELi0ELin1ELi1EEELi1EEclEx"
 "_ZN5Eigen15DenseCoeffsBaseINS_5ArrayIN8tmbutils6vectorIdEELin1ELi1ELi0ELin1ELi1EEELi3EEC2Ev"
 "_ZN5Eigen15DenseCoeffsBaseINS_5ArrayIN8tmbutils6vectorIiEELin1ELi1ELi0ELin1ELi1EEELi0EEC2Ev"
 "_ZN5Eigen15DenseCoeffsBaseINS_5ArrayIN8tmbutils6vectorIiEELin1ELi1ELi0ELin1ELi1EEELi1EE8coeffRefEx"
 "_ZN5Eigen15DenseCoeffsBaseINS_5ArrayIN8tmbutils6vectorIiEELin1ELi1ELi0ELin1ELi1EEELi1EEC2Ev"
 "_ZN5Eigen15DenseCoeffsBaseINS_5ArrayIN8tmbutils6vectorIiEELin1ELi1ELi0ELin1ELi1EEELi1EEclEx"
 "_ZN5Eigen15DenseCoeffsBaseINS_5ArrayIN8tmbutils6vectorIiEELin1ELi1ELi0ELin1ELi1EEELi1EEixEx"
 "_ZN5Eigen15DenseCoeffsBaseINS_5ArrayIN8tmbutils6vectorIiEELin1ELi1ELi0ELin1ELi1EEELi3EEC2Ev"
 "_ZN5Eigen15DenseCoeffsBaseINS_5ArrayIN8tmbutils6vectorIyEELin1ELi1ELi0ELin1ELi1EEELi1EE8coeffRefEx"
 "_ZN5Eigen15DenseCoeffsBaseINS_5ArrayIN8tmbutils6vectorIyEELin1ELi1ELi0ELin1ELi1EEELi1EEclEx"
 "_ZN5Eigen15DenseCoeffsBaseINS_5ArrayINS_6MatrixIdLin1ELi1ELi0ELin1ELi1EEELin1ELi1ELi0ELin1ELi1EEELi0EEC2Ev"
 "_ZN5Eigen15DenseCoeffsBaseINS_5ArrayINS_6MatrixIdLin1ELi1ELi0ELin1ELi1EEELin1ELi1ELi0ELin1ELi1EEELi1EE8coeffRefEx"
 "_ZN5Eigen15DenseCoeffsBaseINS_5ArrayINS_6MatrixIdLin1ELi1ELi0ELin1ELi1EEELin1ELi1ELi0ELin1ELi1EEELi1EEC2Ev"
 "_ZN5Eigen15DenseCoeffsBaseINS_5ArrayINS_6MatrixIdLin1ELi1ELi0ELin1ELi1EEELin1ELi1ELi0ELin1ELi1EEELi1EEclEx"
 "_ZN5Eigen15DenseCoeffsBaseINS_5ArrayINS_6MatrixIdLin1ELi1ELi0ELin1ELi1EEELin1ELi1ELi0ELin1ELi1EEELi3EEC2Ev"
 "_ZN5Eigen15DenseCoeffsBaseINS_5ArrayIPKcLin1ELi1ELi0ELin1ELi1EEELi0EEC2Ev"
 "_ZN5Eigen15DenseCoeffsBaseINS_5ArrayIPKcLin1ELi1ELi0ELin1ELi1EEELi1EE8coeffRefEx"
 "_ZN5Eigen15DenseCoeffsBaseINS_5ArrayIPKcLin1ELi1ELi0ELin1ELi1EEELi1EEC2Ev"
 "_ZN5Eigen15DenseCoeffsBaseINS_5ArrayIPKcLin1ELi1ELi0ELin1ELi1EEELi1EEixEx"
 "_ZN5Eigen15DenseCoeffsBaseINS_5ArrayIPKcLin1ELi1ELi0ELin1ELi1EEELi3EEC2Ev"
 "_ZN5Eigen15DenseCoeffsBaseINS_5ArrayIPN5CppAD5ADFunIdEELin1ELi1ELi0ELin1ELi1EEELi1EE8coeffRefEx"
 "_ZN5Eigen15DenseCoeffsBaseINS_5ArrayIPN5CppAD5ADFunIdEELin1ELi1ELi0ELin1ELi1EEELi1EEclEx"
 "_ZN5Eigen15DenseCoeffsBaseINS_5ArrayIPN5CppAD5ADFunIdEELin1ELi1ELi0ELin1ELi1EEELi1EEixEx"
 "_ZN5Eigen15DenseCoeffsBaseINS_5ArrayIyLin1ELi1ELi0ELin1ELi1EEELi0EEC2Ev"
 "_ZN5Eigen15DenseCoeffsBaseINS_5ArrayIyLin1ELi1ELi0ELin1ELi1EEELi1EE8coeffRefEx"
 "_ZN5Eigen15DenseCoeffsBaseINS_5ArrayIyLin1ELi1ELi0ELin1ELi1EEELi1EEC2Ev"
 "_ZN5Eigen15DenseCoeffsBaseINS_5ArrayIyLin1ELi1ELi0ELin1ELi1EEELi1EEixEx"
 "_ZN5Eigen15DenseCoeffsBaseINS_5ArrayIyLin1ELi1ELi0ELin1ELi1EEELi3EEC2Ev"
 "_ZN5Eigen15DenseCoeffsBaseINS_5BlockIKNS_12CwiseUnaryOpINS_8internal13scalar_abs_opIdEEKNS_6MatrixIdLin1ELin1ELi0ELin1ELin1EEEEELin1ELi1ELb1EEELi0EEC2Ev"
 "_ZN5Eigen15DenseCoeffsBaseINS_5BlockIKNS_14CwiseNullaryOpINS_8internal18scalar_identity_opIdEENS_6MatrixIdLin1ELin1ELi0ELin1ELin1EEEEELi1ELin1ELb0EEELi0EEC2Ev"
 "_ZN5Eigen15DenseCoeffsBaseINS_5BlockIKNS_6MatrixIdLin1ELin1ELi0ELin1ELin1EEELi1ELin1ELb0EEELi0EEC2Ev"
 "_ZN5Eigen15DenseCoeffsBaseINS_5BlockIKNS_6MatrixIdLin1ELin1ELi0ELin1ELin1EEELi1ELin1ELb0EEELi2EEC2Ev"
 "_ZN5Eigen15DenseCoeffsBaseINS_5BlockIKNS_6MatrixIdLin1ELin1ELi0ELin1ELin1EEELin1ELi1ELb1EEELi0EEC2Ev"
 "_ZN5Eigen15DenseCoeffsBaseINS_5BlockIKNS_6MatrixIdLin1ELin1ELi0ELin1ELin1EEELin1ELi1ELb1EEELi2EEC2Ev"
 "_ZN5Eigen15DenseCoeffsBaseINS_5BlockIKNS_6MatrixIdLin1ELin1ELi0ELin1ELin1EEELin1ELin1ELb0EEELi0EEC2Ev"
 "_ZN5Eigen15DenseCoeffsBaseINS_5BlockIKNS_6MatrixIdLin1ELin1ELi0ELin1ELin1EEELin1ELin1ELb0EEELi2EEC2Ev"
 "_ZN5Eigen15DenseCoeffsBaseINS_5BlockIKNS1_INS1_INS_3MapINS_6MatrixIdLin1ELin1ELi0ELin1ELin1EEELi0ENS_6StrideILi0ELi0EEEEELin1ELin1ELb0EEELin1ELin1ELb0EEELi1ELin1ELb0EEELi0EEC2Ev"
 "_ZN5Eigen15DenseCoeffsBaseINS_5BlockIKNS1_INS1_INS_3MapINS_6MatrixIdLin1ELin1ELi0ELin1ELin1EEELi0ENS_6StrideILi0ELi0EEEEELin1ELin1ELb0EEELin1ELin1ELb0EEELi1ELin1ELb0EEELi2EEC2Ev"
 "_ZN5Eigen15DenseCoeffsBaseINS_5BlockIKNS1_INS1_INS_3MapINS_6MatrixIdLin1ELin1ELi0ELin1ELin1EEELi0ENS_6StrideILi0ELi0EEEEELin1ELin1ELb0EEELin1ELin1ELb0EEELin1ELi1ELb1EEELi0EEC2Ev"
 "_ZN5Eigen15DenseCoeffsBaseINS_5BlockIKNS1_INS1_INS_3MapINS_6MatrixIdLin1ELin1ELi0ELin1ELin1EEELi0ENS_6StrideILi0ELi0EEEEELin1ELin1ELb0EEELin1ELin1ELb0EEELin1ELi1ELb1EEELi2EEC2Ev"
 "_ZN5Eigen15DenseCoeffsBaseINS_5BlockINS_3MapINS_6MatrixIdLin1ELin1ELi0ELin1ELin1EEELi0ENS_6StrideILi0ELi0EEEEELin1ELin1ELb0EEELi0EEC2Ev"
 "_ZN5Eigen15DenseCoeffsBaseINS_5BlockINS_3MapINS_6MatrixIdLin1ELin1ELi0ELin1ELin1EEELi0ENS_6StrideILi0ELi0EEEEELin1ELin1ELb0EEELi1EEC2Ev"
 "_ZN5Eigen15DenseCoeffsBaseINS_5BlockINS_3MapINS_6MatrixIdLin1ELin1ELi0ELin1ELin1EEELi0ENS_6StrideILi0ELi0EEEEELin1ELin1ELb0EEELi3EEC2Ev"
 "_ZN5Eigen15DenseCoeffsBaseINS_5BlockINS_5ArrayIdLin1ELi1ELi0ELin1ELi1EEELin1ELi1ELb0EEELi0EEC2Ev"
 "_ZN5Eigen15DenseCoeffsBaseINS_5BlockINS_5ArrayIdLin1ELi1ELi0ELin1ELi1EEELin1ELi1ELb0EEELi1EEC2Ev"
 "_ZN5Eigen15DenseCoeffsBaseINS_5BlockINS_5ArrayIdLin1ELi1ELi0ELin1ELi1EEELin1ELi1ELb0EEELi3EEC2Ev"
 "_ZN5Eigen15DenseCoeffsBaseINS_5BlockINS_5ArrayIN5CppAD2ADIdEELin1ELi1ELi0ELin1ELi1EEELin1ELi1ELb0EEELi0EEC2Ev"
 "_ZN5Eigen15DenseCoeffsBaseINS_5BlockINS_5ArrayIN5CppAD2ADIdEELin1ELi1ELi0ELin1ELi1EEELin1ELi1ELb0EEELi1EEC2Ev"
 "_ZN5Eigen15DenseCoeffsBaseINS_5BlockINS_5ArrayIN5CppAD2ADIdEELin1ELi1ELi0ELin1ELi1EEELin1ELi1ELb0EEELi3EEC2Ev"
 "_ZN5Eigen15DenseCoeffsBaseINS_5BlockINS_5ArrayIN5CppAD2ADINS4_IdEEEELin1ELi1ELi0ELin1ELi1EEELin1ELi1ELb0EEELi0EEC2Ev"
 "_ZN5Eigen15DenseCoeffsBaseINS_5BlockINS_5ArrayIN5CppAD2ADINS4_IdEEEELin1ELi1ELi0ELin1ELi1EEELin1ELi1ELb0EEELi1EEC2Ev"
 "_ZN5Eigen15DenseCoeffsBaseINS_5BlockINS_5ArrayIN5CppAD2ADINS4_IdEEEELin1ELi1ELi0ELin1ELi1EEELin1ELi1ELb0EEELi3EEC2Ev"
 "_ZN5Eigen15DenseCoeffsBaseINS_5BlockINS_5ArrayIN5CppAD2ADINS4_INS4_IdEEEEEELin1ELi1ELi0ELin1ELi1EEELin1ELi1ELb0EEELi0EEC2Ev"
 "_ZN5Eigen15DenseCoeffsBaseINS_5BlockINS_5ArrayIN5CppAD2ADINS4_INS4_IdEEEEEELin1ELi1ELi0ELin1ELi1EEELin1ELi1ELb0EEELi1EEC2Ev"
 "_ZN5Eigen15DenseCoeffsBaseINS_5BlockINS_5ArrayIN5CppAD2ADINS4_INS4_IdEEEEEELin1ELi1ELi0ELin1ELi1EEELin1ELi1ELb0EEELi3EEC2Ev"
 "_ZN5Eigen15DenseCoeffsBaseINS_5BlockINS_5ArrayIN8tmbutils6matrixIdEELin1ELi1ELi0ELin1ELi1EEELin1ELi1ELb0EEELi0EEC2Ev"
 "_ZN5Eigen15DenseCoeffsBaseINS_5BlockINS_5ArrayIN8tmbutils6matrixIdEELin1ELi1ELi0ELin1ELi1EEELin1ELi1ELb0EEELi1EEC2Ev"
 "_ZN5Eigen15DenseCoeffsBaseINS_5BlockINS_5ArrayIN8tmbutils6matrixIdEELin1ELi1ELi0ELin1ELi1EEELin1ELi1ELb0EEELi3EEC2Ev"
 "_ZN5Eigen15DenseCoeffsBaseINS_5BlockINS_6MatrixIdLin1ELin1ELi0ELin1ELin1EEELi1ELin1ELb0EEELi0EEC2Ev"
 "_ZN5Eigen15DenseCoeffsBaseINS_5BlockINS_6MatrixIdLin1ELin1ELi0ELin1ELin1EEELi1ELin1ELb0EEELi1EEC2Ev"
 "_ZN5Eigen15DenseCoeffsBaseINS_5BlockINS_6MatrixIdLin1ELin1ELi0ELin1ELin1EEELi1ELin1ELb0EEELi3EEC2Ev"
 "_ZN5Eigen15DenseCoeffsBaseINS_5BlockINS1_INS_3MapINS_6MatrixIdLin1ELin1ELi0ELin1ELin1EEELi0ENS_6StrideILi0ELi0EEEEELin1ELin1ELb0EEELi1ELin1ELb0EEELi0EEC2Ev"
 "_ZN5Eigen15DenseCoeffsBaseINS_5BlockINS1_INS_3MapINS_6MatrixIdLin1ELin1ELi0ELin1ELin1EEELi0ENS_6StrideILi0ELi0EEEEELin1ELin1ELb0EEELi1ELin1ELb0EEELi1EEC2Ev"
 "_ZN5Eigen15DenseCoeffsBaseINS_5BlockINS1_INS_3MapINS_6MatrixIdLin1ELin1ELi0ELin1ELin1EEELi0ENS_6StrideILi0ELi0EEEEELin1ELin1ELb0EEELi1ELin1ELb0EEELi3EEC2Ev"
 "_ZN5Eigen15DenseCoeffsBaseINS_5BlockINS1_INS_3MapINS_6MatrixIdLin1ELin1ELi0ELin1ELin1EEELi0ENS_6StrideILi0ELi0EEEEELin1ELin1ELb0EEELin1ELi1ELb1EEELi0EEC2Ev"
 "_ZN5Eigen15DenseCoeffsBaseINS_5BlockINS1_INS_3MapINS_6MatrixIdLin1ELin1ELi0ELin1ELin1EEELi0ENS_6StrideILi0ELi0EEEEELin1ELin1ELb0EEELin1ELi1ELb1EEELi1EEC2Ev"
 "_ZN5Eigen15DenseCoeffsBaseINS_5BlockINS1_INS_3MapINS_6MatrixIdLin1ELin1ELi0ELin1ELin1EEELi0ENS_6StrideILi0ELi0EEEEELin1ELin1ELb0EEELin1ELi1ELb1EEELi3EEC2Ev"
 "_ZN5Eigen15DenseCoeffsBaseINS_5BlockINS1_INS_3MapINS_6MatrixIdLin1ELin1ELi0ELin1ELin1EEELi0ENS_6StrideILi0ELi0EEEEELin1ELin1ELb0EEELin1ELin1ELb0EEELi0EEC2Ev"
 "_ZN5Eigen15DenseCoeffsBaseINS_5BlockINS1_INS_3MapINS_6MatrixIdLin1ELin1ELi0ELin1ELin1EEELi0ENS_6StrideILi0ELi0EEEEELin1ELin1ELb0EEELin1ELin1ELb0EEELi1EEC2Ev"
 "_ZN5Eigen15DenseCoeffsBaseINS_5BlockINS1_INS_3MapINS_6MatrixIdLin1ELin1ELi0ELin1ELin1EEELi0ENS_6StrideILi0ELi0EEEEELin1ELin1ELb0EEELin1ELin1ELb0EEELi3EEC2Ev"
 "_ZN5Eigen15DenseCoeffsBaseINS_5BlockINS1_INS1_INS_3MapINS_6MatrixIdLin1ELin1ELi0ELin1ELin1EEELi0ENS_6StrideILi0ELi0EEEEELin1ELin1ELb0EEELi1ELin1ELb0EEELi1ELin1ELb0EEELi0EEC2Ev"
 "_ZN5Eigen15DenseCoeffsBaseINS_5BlockINS1_INS1_INS_3MapINS_6MatrixIdLin1ELin1ELi0ELin1ELin1EEELi0ENS_6StrideILi0ELi0EEEEELin1ELin1ELb0EEELi1ELin1ELb0EEELi1ELin1ELb0EEELi1EEC2Ev"
 "_ZN5Eigen15DenseCoeffsBaseINS_5BlockINS1_INS1_INS_3MapINS_6MatrixIdLin1ELin1ELi0ELin1ELin1EEELi0ENS_6StrideILi0ELi0EEEEELin1ELin1ELb0EEELi1ELin1ELb0EEELi1ELin1ELb0EEELi3EEC2Ev"
 "_ZN5Eigen15DenseCoeffsBaseINS_5BlockINS1_INS1_INS_3MapINS_6MatrixIdLin1ELin1ELi0ELin1ELin1EEELi0ENS_6StrideILi0ELi0EEEEELin1ELin1ELb0EEELin1ELi1ELb1EEELin1ELi1ELb0EEELi0EEC2Ev"
 "_ZN5Eigen15DenseCoeffsBaseINS_5BlockINS1_INS1_INS_3MapINS_6MatrixIdLin1ELin1ELi0ELin1ELin1EEELi0ENS_6StrideILi0ELi0EEEEELin1ELin1ELb0EEELin1ELi1ELb1EEELin1ELi1ELb0EEELi1EEC2Ev"
 "_ZN5Eigen15DenseCoeffsBaseINS_5BlockINS1_INS1_INS_3MapINS_6MatrixIdLin1ELin1ELi0ELin1ELin1EEELi0ENS_6StrideILi0ELi0EEEEELin1ELin1ELb0EEELin1ELi1ELb1EEELin1ELi1ELb0EEELi3EEC2Ev"
 "_ZN5Eigen15DenseCoeffsBaseINS_5BlockINS1_INS1_INS_3MapINS_6MatrixIdLin1ELin1ELi0ELin1ELin1EEELi0ENS_6StrideILi0ELi0EEEEELin1ELin1ELb0EEELin1ELin1ELb0EEELi1ELin1ELb0EEELi0EEC2Ev"
 "_ZN5Eigen15DenseCoeffsBaseINS_5BlockINS1_INS1_INS_3MapINS_6MatrixIdLin1ELin1ELi0ELin1ELin1EEELi0ENS_6StrideILi0ELi0EEEEELin1ELin1ELb0EEELin1ELin1ELb0EEELi1ELin1ELb0EEELi1EEC2Ev"
 "_ZN5Eigen15DenseCoeffsBaseINS_5BlockINS1_INS1_INS_3MapINS_6MatrixIdLin1ELin1ELi0ELin1ELin1EEELi0ENS_6StrideILi0ELi0EEEEELin1ELin1ELb0EEELin1ELin1ELb0EEELi1ELin1ELb0EEELi3EEC2Ev"
 "_ZN5Eigen15DenseCoeffsBaseINS_5BlockINS1_INS1_INS_3MapINS_6MatrixIdLin1ELin1ELi0ELin1ELin1EEELi0ENS_6StrideILi0ELi0EEEEELin1ELin1ELb0EEELin1ELin1ELb0EEELin1ELi1ELb1EEELi0EEC2Ev"
 "_ZN5Eigen15DenseCoeffsBaseINS_5BlockINS1_INS1_INS_3MapINS_6MatrixIdLin1ELin1ELi0ELin1ELin1EEELi0ENS_6StrideILi0ELi0EEEEELin1ELin1ELb0EEELin1ELin1ELb0EEELin1ELi1ELb1EEELi1EEC2Ev"
 "_ZN5Eigen15DenseCoeffsBaseINS_5BlockINS1_INS1_INS_3MapINS_6MatrixIdLin1ELin1ELi0ELin1ELin1EEELi0ENS_6StrideILi0ELi0EEEEELin1ELin1ELb0EEELin1ELin1ELb0EEELin1ELi1ELb1EEELi3EEC2Ev"
 "_ZN5Eigen15DenseCoeffsBaseINS_5SolveINS_12PartialPivLUINS_6MatrixIdLin1ELin1ELi0ELin1ELin1EEEEENS_14CwiseNullaryOpINS_8internal18scalar_identity_opIdEES4_EEEELi0EEC2Ev"
 "_ZN5Eigen15DenseCoeffsBaseINS_6MatrixIbLin1ELi1ELi0ELin1ELi1EEELi0EEC2Ev"
 "_ZN5Eigen15DenseCoeffsBaseINS_6MatrixIbLin1ELi1ELi0ELin1ELi1EEELi1EE8coeffRefEx"
 "_ZN5Eigen15DenseCoeffsBaseINS_6MatrixIbLin1ELi1ELi0ELin1ELi1EEELi1EEC2Ev"
 "_ZN5Eigen15DenseCoeffsBaseINS_6MatrixIbLin1ELi1ELi0ELin1ELi1EEELi1EEixEx"
 "_ZN5Eigen15DenseCoeffsBaseINS_6MatrixIbLin1ELi1ELi0ELin1ELi1EEELi3EEC2Ev"
 "_ZN5Eigen15DenseCoeffsBaseINS_6MatrixIdLin1ELi1ELi0ELin1ELi1EEELi0EEC2Ev"
 "_ZN5Eigen15DenseCoeffsBaseINS_6MatrixIdLin1ELi1ELi0ELin1ELi1EEELi1EE8coeffRefEx"
 "_ZN5Eigen15DenseCoeffsBaseINS_6MatrixIdLin1ELi1ELi0ELin1ELi1EEELi1EEC2Ev"
 "_ZN5Eigen15DenseCoeffsBaseINS_6MatrixIdLin1ELi1ELi0ELin1ELi1EEELi1EEclEx"
 "_ZN5Eigen15DenseCoeffsBaseINS_6MatrixIdLin1ELi1ELi0ELin1ELi1EEELi1EEixEx"
 "_ZN5Eigen15DenseCoeffsBaseINS_6MatrixIdLin1ELi1ELi0ELin1ELi1EEELi3EEC2Ev"
 "_ZN5Eigen15DenseCoeffsBaseINS_6MatrixIdLin1ELin1ELi0ELin1ELin1EEELi0EEC2Ev"
 "_ZN5Eigen15DenseCoeffsBaseINS_6MatrixIdLin1ELin1ELi0ELin1ELin1EEELi1EE8coeffRefExx"
 "_ZN5Eigen15DenseCoeffsBaseINS_6MatrixIdLin1ELin1ELi0ELin1ELin1EEELi1EEC2Ev"
 "_ZN5Eigen15DenseCoeffsBaseINS_6MatrixIdLin1ELin1ELi0ELin1ELin1EEELi1EEclExx"
 "_ZN5Eigen15DenseCoeffsBaseINS_6MatrixIdLin1ELin1ELi0ELin1ELin1EEELi3EEC2Ev"
 "_ZN5Eigen15DenseCoeffsBaseINS_6MatrixIiLin1ELi1ELi0ELin1ELi1EEELi0EEC2Ev"
 "_ZN5Eigen15DenseCoeffsBaseINS_6MatrixIiLin1ELi1ELi0ELin1ELi1EEELi1EEC2Ev"
 "_ZN5Eigen15DenseCoeffsBaseINS_6MatrixIiLin1ELi1ELi0ELin1ELi1EEELi3EEC2Ev"
 "_ZN5Eigen15DenseCoeffsBaseINS_6MatrixIiLin1ELin1ELi0ELin1ELin1EEELi0EEC2Ev"
 "_ZN5Eigen15DenseCoeffsBaseINS_6MatrixIiLin1ELin1ELi0ELin1ELin1EEELi1EEC2Ev"
 "_ZN5Eigen15DenseCoeffsBaseINS_6MatrixIiLin1ELin1ELi0ELin1ELin1EEELi3EEC2Ev"
 "_ZN5Eigen15DenseCoeffsBaseINS_6MatrixIN5CppAD2ADIdEELin1ELin1ELi0ELin1ELin1EEELi0EEC2Ev"
 "_ZN5Eigen15DenseCoeffsBaseINS_6MatrixIN5CppAD2ADIdEELin1ELin1ELi0ELin1ELin1EEELi1EE8coeffRefExx"
 "_ZN5Eigen15DenseCoeffsBaseINS_6MatrixIN5CppAD2ADIdEELin1ELin1ELi0ELin1ELin1EEELi1EEC2Ev"
 "_ZN5Eigen15DenseCoeffsBaseINS_6MatrixIN5CppAD2ADIdEELin1ELin1ELi0ELin1ELin1EEELi1EEclExx"
 "_ZN5Eigen15DenseCoeffsBaseINS_6MatrixIN5CppAD2ADIdEELin1ELin1ELi0ELin1ELin1EEELi3EEC2Ev"
 "_ZN5Eigen15DenseCoeffsBaseINS_6MatrixIN5CppAD2ADINS3_IdEEEELin1ELin1ELi0ELin1ELin1EEELi0EEC2Ev"
 "_ZN5Eigen15DenseCoeffsBaseINS_6MatrixIN5CppAD2ADINS3_IdEEEELin1ELin1ELi0ELin1ELin1EEELi1EE8coeffRefExx"
 "_ZN5Eigen15DenseCoeffsBaseINS_6MatrixIN5CppAD2ADINS3_IdEEEELin1ELin1ELi0ELin1ELin1EEELi1EEC2Ev"
 "_ZN5Eigen15DenseCoeffsBaseINS_6MatrixIN5CppAD2ADINS3_IdEEEELin1ELin1ELi0ELin1ELin1EEELi1EEclExx"
 "_ZN5Eigen15DenseCoeffsBaseINS_6MatrixIN5CppAD2ADINS3_IdEEEELin1ELin1ELi0ELin1ELin1EEELi3EEC2Ev"
 "_ZN5Eigen15DenseCoeffsBaseINS_6MatrixIN5CppAD2ADINS3_INS3_IdEEEEEELin1ELin1ELi0ELin1ELin1EEELi0EEC2Ev"
 "_ZN5Eigen15DenseCoeffsBaseINS_6MatrixIN5CppAD2ADINS3_INS3_IdEEEEEELin1ELin1ELi0ELin1ELin1EEELi1EE8coeffRefExx"
 "_ZN5Eigen15DenseCoeffsBaseINS_6MatrixIN5CppAD2ADINS3_INS3_IdEEEEEELin1ELin1ELi0ELin1ELin1EEELi1EEC2Ev"
 "_ZN5Eigen15DenseCoeffsBaseINS_6MatrixIN5CppAD2ADINS3_INS3_IdEEEEEELin1ELin1ELi0ELin1ELin1EEELi1EEclExx"
 "_ZN5Eigen15DenseCoeffsBaseINS_6MatrixIN5CppAD2ADINS3_INS3_IdEEEEEELin1ELin1ELi0ELin1ELin1EEELi3EEC2Ev"
 "_ZN5Eigen15DenseCoeffsBaseINS_7InverseINS_12PartialPivLUINS_6MatrixIdLin1ELin1ELi0ELin1ELin1EEEEEEELi0EEC2Ev"
 "_ZN5Eigen15DenseCoeffsBaseINS_7InverseINS_6MatrixIdLin1ELin1ELi0ELin1ELin1EEEEELi0EEC2Ev"
 "_ZN5Eigen15DenseCoeffsBaseINS_7ProductINS_17PermutationMatrixILin1ELin1EiEENS_14CwiseNullaryOpINS_8internal18scalar_identity_opIdEENS_6MatrixIdLin1ELin1ELi0ELin1ELin1EEEEELi2EEELi0EEC2Ev"
 "_ZN5Eigen15DenseCoeffsBaseINS_7ProductINS_5BlockINS2_INS_3MapINS_6MatrixIdLin1ELin1ELi0ELin1ELin1EEELi0ENS_6StrideILi0ELi0EEEEELin1ELin1ELb0EEELin1ELin1ELb0EEESA_Li0EEELi0EEC2Ev"
 "_ZN5Eigen15DenseCoeffsBaseINS_7ProductINS_5BlockINS2_INS_3MapINS_6MatrixIdLin1ELin1ELi0ELin1ELin1EEELi0ENS_6StrideILi0ELi0EEEEELin1ELin1ELb0EEELin1ELin1ELb0EEESA_Li1EEELi0EEC2Ev"
 "_ZN5Eigen15DenseCoeffsBaseINS_7ProductINS_5BlockINS2_INS2_INS_3MapINS_6MatrixIdLin1ELin1ELi0ELin1ELin1EEELi0ENS_6StrideILi0ELi0EEEEELin1ELin1ELb0EEELin1ELi1ELb1EEELin1ELi1ELb0EEENS2_INS2_IS9_Li1ELin1ELb0EEELi1ELin1ELb0EEELi0EEELi0EEC2Ev"
 "_ZN5Eigen15DenseCoeffsBaseINS_7ProductINS_6MatrixIdLin1ELin1ELi0ELin1ELin1EEES3_Li0EEELi0EEC2Ev"
 "_ZN5Eigen15DenseCoeffsBaseINS_7ProductINS_6MatrixIdLin1ELin1ELi0ELin1ELin1EEES3_Li1EEELi0EEC2Ev"
 "_ZN5Eigen15DenseCoeffsBaseINS_9TransposeIKNS_5BlockIKNS_6MatrixIdLin1ELin1ELi0ELin1ELin1EEELi1ELin1ELb0EEEEELi0EEC2Ev"
 "_ZN5Eigen15DenseCoeffsBaseINS_9TransposeIKNS_5BlockIKNS_6MatrixIdLin1ELin1ELi0ELin1ELin1EEELi1ELin1ELb0EEEEELi2EEC2Ev"
 "_ZN5Eigen15DenseCoeffsBaseINS_9TransposeIKNS_5BlockIKNS2_INS2_INS_3MapINS_6MatrixIdLin1ELin1ELi0ELin1ELin1EEELi0ENS_6StrideILi0ELi0EEEEELin1ELin1ELb0EEELin1ELin1ELb0EEELi1ELin1ELb0EEEEELi0EEC2Ev"
 "_ZN5Eigen15DenseCoeffsBaseINS_9TransposeIKNS_5BlockIKNS2_INS2_INS_3MapINS_6MatrixIdLin1ELin1ELi0ELin1ELin1EEELi0ENS_6StrideILi0ELi0EEEEELin1ELin1ELb0EEELin1ELin1ELb0EEELi1ELin1ELb0EEEEELi2EEC2Ev"
 "_ZN5Eigen15DenseCoeffsBaseINS_9TransposeINS_5BlockINS_6MatrixIdLin1ELin1ELi0ELin1ELin1EEELi1ELin1ELb0EEEEELi0EEC2Ev"
 "_ZN5Eigen15DenseCoeffsBaseINS_9TransposeINS_5BlockINS_6MatrixIdLin1ELin1ELi0ELin1ELin1EEELi1ELin1ELb0EEEEELi1EEC2Ev"
 "_ZN5Eigen15DenseCoeffsBaseINS_9TransposeINS_5BlockINS_6MatrixIdLin1ELin1ELi0ELin1ELin1EEELi1ELin1ELb0EEEEELi3EEC2Ev"
 "_ZN5Eigen15PermutationBaseINS_17PermutationMatrixILin1ELin1EiEEE11setIdentityEv"
 "_ZN5Eigen15PermutationBaseINS_17PermutationMatrixILin1ELin1EiEEE11setIdentityEx"
 "_ZN5Eigen15PermutationBaseINS_17PermutationMatrixILin1ELin1EiEEE28applyTranspositionOnTheRightExx"
 "_ZN5Eigen15PermutationBaseINS_17PermutationMatrixILin1ELin1EiEEE6resizeEx"
 "_ZN5Eigen15PermutationBaseINS_17PermutationMatrixILin1ELin1EiEEE7indicesEv"
 "_ZN5Eigen15PermutationBaseINS_17PermutationMatrixILin1ELin1EiEEEaSINS_14TranspositionsILin1ELin1EiEEEERS2_RKNS_18TranspositionsBaseIT_EE"
 "_ZN5Eigen15PermutationBaseINS_17PermutationMatrixILin1ELin1EiEEEC2Ev"
 "_ZN5Eigen15PlainObjectBaseINS_5ArrayIbLin1ELi1ELi0ELin1ELi1EEEE22_check_template_paramsEv"
 "_ZN5Eigen15PlainObjectBaseINS_5ArrayIbLin1ELi1ELi0ELin1ELi1EEEE6_init1IiEEvxPNS_8internal9enable_ifIXaaooneLNS_9DenseBaseIS2_EUt_En1ELi1EntsrNS5_14is_convertibleIT_bEE5valueoontLNS5_7is_sameINS_8ArrayXprESE_EUt_E1EeqLS9_n1EL_ZNS_L7DynamicEEESB_E4typeE"
 "_ZN5Eigen15PlainObjectBaseINS_5ArrayIbLin1ELi1ELi0ELin1ELi1EEEE6resizeEx"
 "_ZN5Eigen15PlainObjectBaseINS_5ArrayIbLin1ELi1ELi0ELin1ELi1EEEEC2Ev"
 "_ZN5Eigen15PlainObjectBaseINS_5ArrayIbLin1ELi1ELi0ELin1ELi1EEEED2Ev"
 "_ZN5Eigen15PlainObjectBaseINS_5ArrayIdLin1ELi1ELi0ELin1ELi1EEEE12_set_noaliasINS_16PartialReduxExprINS_6MatrixIdLin1ELin1ELi0ELin1ELin1EEENS_8internal10member_sumIdEELi1EEEEERS2_RKNS_9DenseBaseIT_EE"
 "_ZN5Eigen15PlainObjectBaseINS_5ArrayIdLin1ELi1ELi0ELin1ELi1EEEE12_set_noaliasINS_3MapINS_6MatrixIdLin1ELi1ELi0ELin1ELi1EEELi0ENS_6StrideILi0ELi0EEEEEEERS2_RKNS_9DenseBaseIT_EE"
 "_ZN5Eigen15PlainObjectBaseINS_5ArrayIdLin1ELi1ELi0ELin1ELi1EEEE18conservativeResizeEx"
 "_ZN5Eigen15PlainObjectBaseINS_5ArrayIdLin1ELi1ELi0ELin1ELi1EEEE22_check_template_paramsEv"
 "_ZN5Eigen15PlainObjectBaseINS_5ArrayIdLin1ELi1ELi0ELin1ELi1EEEE4_setINS_13CwiseBinaryOpINS_8internal13scalar_sum_opIddEEKS2_S9_EEEERS2_RKNS_9DenseBaseIT_EE"
 "_ZN5Eigen15PlainObjectBaseINS_5ArrayIdLin1ELi1ELi0ELin1ELi1EEEE4_setINS_14CwiseNullaryOpINS_8internal18scalar_constant_opIdEES2_EEEERS2_RKNS_9DenseBaseIT_EE"
 "_ZN5Eigen15PlainObjectBaseINS_5ArrayIdLin1ELi1ELi0ELin1ELi1EEEE4_setIS2_EERS2_RKNS_9DenseBaseIT_EE"
 "_ZN5Eigen15PlainObjectBaseINS_5ArrayIdLin1ELi1ELi0ELin1ELi1EEEE4dataEv"
 "_ZN5Eigen15PlainObjectBaseINS_5ArrayIdLin1ELi1ELi0ELin1ELi1EEEE4swapIS2_EEvRNS_9DenseBaseIT_EE"
 "_ZN5Eigen15PlainObjectBaseINS_5ArrayIdLin1ELi1ELi0ELin1ELi1EEEE6_init1IiEEvxPNS_8internal9enable_ifIXaaooneLNS_9DenseBaseIS2_EUt_En1ELi1EntsrNS5_14is_convertibleIT_dEE5valueoontLNS5_7is_sameINS_8ArrayXprESE_EUt_E1EeqLS9_n1EL_ZNS_L7DynamicEEESB_E4typeE"
 "_ZN5Eigen15PlainObjectBaseINS_5ArrayIdLin1ELi1ELi0ELin1ELi1EEEE6_init1INS_16PartialReduxExprINS_6MatrixIdLin1ELin1ELi0ELin1ELin1EEENS_8internal10member_sumIdEELi1EEESB_EEvRKNS_9DenseBaseIT0_EE"
 "_ZN5Eigen15PlainObjectBaseINS_5ArrayIdLin1ELi1ELi0ELin1ELi1EEEE6_init1INS_3MapINS_6MatrixIdLin1ELi1ELi0ELin1ELi1EEELi0ENS_6StrideILi0ELi0EEEEESA_EEvRKNS_9DenseBaseIT0_EE"
 "_ZN5Eigen15PlainObjectBaseINS_5ArrayIdLin1ELi1ELi0ELin1ELi1EEEE6_init1IyEEvxPNS_8internal9enable_ifIXaaooneLNS_9DenseBaseIS2_EUt_En1ELi1EntsrNS5_14is_convertibleIT_dEE5valueoontLNS5_7is_sameINS_8ArrayXprESE_EUt_E1EeqLS9_n1EL_ZNS_L7DynamicEEESB_E4typeE"
 "_ZN5Eigen15PlainObjectBaseINS_5ArrayIdLin1ELi1ELi0ELin1ELi1EEEE6resizeEx"
 "_ZN5Eigen15PlainObjectBaseINS_5ArrayIdLin1ELi1ELi0ELin1ELi1EEEE6resizeExx"
 "_ZN5Eigen15PlainObjectBaseINS_5ArrayIdLin1ELi1ELi0ELin1ELi1EEEEC2EOS3_"
 "_ZN5Eigen15PlainObjectBaseINS_5ArrayIdLin1ELi1ELi0ELin1ELi1EEEEC2ERKS3_"
 "_ZN5Eigen15PlainObjectBaseINS_5ArrayIdLin1ELi1ELi0ELin1ELi1EEEEC2Ev"
 "_ZN5Eigen15PlainObjectBaseINS_5ArrayIdLin1ELi1ELi0ELin1ELi1EEEED2Ev"
 "_ZN5Eigen15PlainObjectBaseINS_5ArrayIdLin1ELin1ELi0ELin1ELin1EEEE10resizeLikeINS1_IdLin1ELi1ELi0ELin1ELi1EEEEEvRKNS_9EigenBaseIT_EE"
 "_ZN5Eigen15PlainObjectBaseINS_5ArrayIdLin1ELin1ELi0ELin1ELin1EEEE12_set_noaliasINS1_IdLin1ELi1ELi0ELin1ELi1EEEEERS2_RKNS_9DenseBaseIT_EE"
 "_ZN5Eigen15PlainObjectBaseINS_5ArrayIdLin1ELin1ELi0ELin1ELin1EEEE22_check_template_paramsEv"
 "_ZN5Eigen15PlainObjectBaseINS_5ArrayIdLin1ELin1ELi0ELin1ELin1EEEE6resizeExx"
 "_ZN5Eigen15PlainObjectBaseINS_5ArrayIdLin1ELin1ELi0ELin1ELin1EEEEC2INS1_IdLin1ELi1ELi0ELin1ELi1EEEEERKNS_9DenseBaseIT_EE"
 "_ZN5Eigen15PlainObjectBaseINS_5ArrayIdLin1ELin1ELi0ELin1ELin1EEEED2Ev"
 "_ZN5Eigen15PlainObjectBaseINS_5ArrayIiLin1ELi1ELi0ELin1ELi1EEEE12_set_noaliasINS_12CwiseUnaryOpINS_8internal14scalar_cast_opIbiEEKNS1_IbLin1ELi1ELi0ELin1ELi1EEEEEEERS2_RKNS_9DenseBaseIT_EE"
 "_ZN5Eigen15PlainObjectBaseINS_5ArrayIiLin1ELi1ELi0ELin1ELi1EEEE12_set_noaliasINS_12CwiseUnaryOpINS_8internal14scalar_cast_opIdiEEKNS_3MapINS_6MatrixIdLin1ELi1ELi0ELin1ELi1EEELi0ENS_6StrideILi0ELi0EEEEEEEEERS2_RKNS_9DenseBaseIT_EE"
 "_ZN5Eigen15PlainObjectBaseINS_5ArrayIiLin1ELi1ELi0ELin1ELi1EEEE22_check_template_paramsEv"
 "_ZN5Eigen15PlainObjectBaseINS_5ArrayIiLin1ELi1ELi0ELin1ELi1EEEE4_setIS2_EERS2_RKNS_9DenseBaseIT_EE"
 "_ZN5Eigen15PlainObjectBaseINS_5ArrayIiLin1ELi1ELi0ELin1ELi1EEEE6_init1IiEEvxPNS_8internal9enable_ifIXaaooneLNS_9DenseBaseIS2_EUt_En1ELi1EntsrNS5_14is_convertibleIT_iEE5valueoontLNS5_7is_sameINS_8ArrayXprESE_EUt_E1EeqLS9_n1EL_ZNS_L7DynamicEEESB_E4typeE"
 "_ZN5Eigen15PlainObjectBaseINS_5ArrayIiLin1ELi1ELi0ELin1ELi1EEEE6_init1INS_12CwiseUnaryOpINS_8internal14scalar_cast_opIbiEEKNS1_IbLin1ELi1ELi0ELin1ELi1EEEEESB_EEvRKNS_9DenseBaseIT0_EE"
 "_ZN5Eigen15PlainObjectBaseINS_5ArrayIiLin1ELi1ELi0ELin1ELi1EEEE6_init1INS_12CwiseUnaryOpINS_8internal14scalar_cast_opIdiEEKNS_3MapINS_6MatrixIdLin1ELi1ELi0ELin1ELi1EEELi0ENS_6StrideILi0ELi0EEEEEEESG_EEvRKNS_9DenseBaseIT0_EE"
 "_ZN5Eigen15PlainObjectBaseINS_5ArrayIiLin1ELi1ELi0ELin1ELi1EEEE6resizeEx"
 "_ZN5Eigen15PlainObjectBaseINS_5ArrayIiLin1ELi1ELi0ELin1ELi1EEEE6resizeExx"
 "_ZN5Eigen15PlainObjectBaseINS_5ArrayIiLin1ELi1ELi0ELin1ELi1EEEE8coeffRefExx"
 "_ZN5Eigen15PlainObjectBaseINS_5ArrayIiLin1ELi1ELi0ELin1ELi1EEEEC2ERKS3_"
 "_ZN5Eigen15PlainObjectBaseINS_5ArrayIiLin1ELi1ELi0ELin1ELi1EEEEC2Ev"
 "_ZN5Eigen15PlainObjectBaseINS_5ArrayIiLin1ELi1ELi0ELin1ELi1EEEED2Ev"
 "_ZN5Eigen15PlainObjectBaseINS_5ArrayIN5CppAD2ADIdEELin1ELi1ELi0ELin1ELi1EEEE12_set_noaliasINS_12CwiseUnaryOpINS_8internal14scalar_cast_opIdS4_EEKNS_3MapINS_6MatrixIdLin1ELi1ELi0ELin1ELi1EEELi0ENS_6StrideILi0ELi0EEEEEEEEERS5_RKNS_9DenseBaseIT_EE"
 "_ZN5Eigen15PlainObjectBaseINS_5ArrayIN5CppAD2ADIdEELin1ELi1ELi0ELin1ELi1EEEE18conservativeResizeEx"
 "_ZN5Eigen15PlainObjectBaseINS_5ArrayIN5CppAD2ADIdEELin1ELi1ELi0ELin1ELi1EEEE22_check_template_paramsEv"
 "_ZN5Eigen15PlainObjectBaseINS_5ArrayIN5CppAD2ADIdEELin1ELi1ELi0ELin1ELi1EEEE4dataEv"
 "_ZN5Eigen15PlainObjectBaseINS_5ArrayIN5CppAD2ADIdEELin1ELi1ELi0ELin1ELi1EEEE4swapIS5_EEvRNS_9DenseBaseIT_EE"
 "_ZN5Eigen15PlainObjectBaseINS_5ArrayIN5CppAD2ADIdEELin1ELi1ELi0ELin1ELi1EEEE6_init1IiEEvxPNS_8internal9enable_ifIXaaooneLNS_9DenseBaseIS5_EUt_En1ELi1EntsrNS8_14is_convertibleIT_S4_EE5valueoontLNS8_7is_sameINS_8ArrayXprESH_EUt_E1EeqLSC_n1EL_ZNS_L7DynamicEEESE_E4typeE"
 "_ZN5Eigen15PlainObjectBaseINS_5ArrayIN5CppAD2ADIdEELin1ELi1ELi0ELin1ELi1EEEE6_init1INS_12CwiseUnaryOpINS_8internal14scalar_cast_opIdS4_EEKNS_3MapINS_6MatrixIdLin1ELi1ELi0ELin1ELi1EEELi0ENS_6StrideILi0ELi0EEEEEEESJ_EEvRKNS_9DenseBaseIT0_EE"
 "_ZN5Eigen15PlainObjectBaseINS_5ArrayIN5CppAD2ADIdEELin1ELi1ELi0ELin1ELi1EEEE6_init1IyEEvxPNS_8internal9enable_ifIXaaooneLNS_9DenseBaseIS5_EUt_En1ELi1EntsrNS8_14is_convertibleIT_S4_EE5valueoontLNS8_7is_sameINS_8ArrayXprESH_EUt_E1EeqLSC_n1EL_ZNS_L7DynamicEEESE_E4typeE"
 "_ZN5Eigen15PlainObjectBaseINS_5ArrayIN5CppAD2ADIdEELin1ELi1ELi0ELin1ELi1EEEE6resizeEx"
 "_ZN5Eigen15PlainObjectBaseINS_5ArrayIN5CppAD2ADIdEELin1ELi1ELi0ELin1ELi1EEEE6resizeExx"
 "_ZN5Eigen15PlainObjectBaseINS_5ArrayIN5CppAD2ADIdEELin1ELi1ELi0ELin1ELi1EEEEC2EOS6_"
 "_ZN5Eigen15PlainObjectBaseINS_5ArrayIN5CppAD2ADIdEELin1ELi1ELi0ELin1ELi1EEEEC2ERKS6_"
 "_ZN5Eigen15PlainObjectBaseINS_5ArrayIN5CppAD2ADIdEELin1ELi1ELi0ELin1ELi1EEEEC2Ev"
 "_ZN5Eigen15PlainObjectBaseINS_5ArrayIN5CppAD2ADIdEELin1ELi1ELi0ELin1ELi1EEEED2Ev"
 "_ZN5Eigen15PlainObjectBaseINS_5ArrayIN5CppAD2ADIdEELin1ELin1ELi0ELin1ELin1EEEE10resizeLikeINS1_IS4_Lin1ELi1ELi0ELin1ELi1EEEEEvRKNS_9EigenBaseIT_EE"
 "_ZN5Eigen15PlainObjectBaseINS_5ArrayIN5CppAD2ADIdEELin1ELin1ELi0ELin1ELin1EEEE12_set_noaliasINS1_IS4_Lin1ELi1ELi0ELin1ELi1EEEEERS5_RKNS_9DenseBaseIT_EE"
 "_ZN5Eigen15PlainObjectBaseINS_5ArrayIN5CppAD2ADIdEELin1ELin1ELi0ELin1ELin1EEEE22_check_template_paramsEv"
 "_ZN5Eigen15PlainObjectBaseINS_5ArrayIN5CppAD2ADIdEELin1ELin1ELi0ELin1ELin1EEEE6resizeExx"
 "_ZN5Eigen15PlainObjectBaseINS_5ArrayIN5CppAD2ADIdEELin1ELin1ELi0ELin1ELin1EEEEC2INS1_IS4_Lin1ELi1ELi0ELin1ELi1EEEEERKNS_9DenseBaseIT_EE"
 "_ZN5Eigen15PlainObjectBaseINS_5ArrayIN5CppAD2ADIdEELin1ELin1ELi0ELin1ELin1EEEED2Ev"
 "_ZN5Eigen15PlainObjectBaseINS_5ArrayIN5CppAD2ADINS3_IdEEEELin1ELi1ELi0ELin1ELi1EEEE12_set_noaliasINS_12CwiseUnaryOpINS_8internal14scalar_cast_opIdS5_EEKNS_3MapINS_6MatrixIdLin1ELi1ELi0ELin1ELi1EEELi0ENS_6StrideILi0ELi0EEEEEEEEERS6_RKNS_9DenseBaseIT_EE"
 "_ZN5Eigen15PlainObjectBaseINS_5ArrayIN5CppAD2ADINS3_IdEEEELin1ELi1ELi0ELin1ELi1EEEE18conservativeResizeEx"
 "_ZN5Eigen15PlainObjectBaseINS_5ArrayIN5CppAD2ADINS3_IdEEEELin1ELi1ELi0ELin1ELi1EEEE22_check_template_paramsEv"
 "_ZN5Eigen15PlainObjectBaseINS_5ArrayIN5CppAD2ADINS3_IdEEEELin1ELi1ELi0ELin1ELi1EEEE4dataEv"
 "_ZN5Eigen15PlainObjectBaseINS_5ArrayIN5CppAD2ADINS3_IdEEEELin1ELi1ELi0ELin1ELi1EEEE4swapIS6_EEvRNS_9DenseBaseIT_EE"
 "_ZN5Eigen15PlainObjectBaseINS_5ArrayIN5CppAD2ADINS3_IdEEEELin1ELi1ELi0ELin1ELi1EEEE6_init1IiEEvxPNS_8internal9enable_ifIXaaooneLNS_9DenseBaseIS6_EUt_En1ELi1EntsrNS9_14is_convertibleIT_S5_EE5valueoontLNS9_7is_sameINS_8ArrayXprESI_EUt_E1EeqLSD_n1EL_ZNS_L7DynamicEEESF_E4typeE"
 "_ZN5Eigen15PlainObjectBaseINS_5ArrayIN5CppAD2ADINS3_IdEEEELin1ELi1ELi0ELin1ELi1EEEE6_init1INS_12CwiseUnaryOpINS_8internal14scalar_cast_opIdS5_EEKNS_3MapINS_6MatrixIdLin1ELi1ELi0ELin1ELi1EEELi0ENS_6StrideILi0ELi0EEEEEEESK_EEvRKNS_9DenseBaseIT0_EE"
 "_ZN5Eigen15PlainObjectBaseINS_5ArrayIN5CppAD2ADINS3_IdEEEELin1ELi1ELi0ELin1ELi1EEEE6_init1IyEEvxPNS_8internal9enable_ifIXaaooneLNS_9DenseBaseIS6_EUt_En1ELi1EntsrNS9_14is_convertibleIT_S5_EE5valueoontLNS9_7is_sameINS_8ArrayXprESI_EUt_E1EeqLSD_n1EL_ZNS_L7DynamicEEESF_E4typeE"
 "_ZN5Eigen15PlainObjectBaseINS_5ArrayIN5CppAD2ADINS3_IdEEEELin1ELi1ELi0ELin1ELi1EEEE6resizeEx"
 "_ZN5Eigen15PlainObjectBaseINS_5ArrayIN5CppAD2ADINS3_IdEEEELin1ELi1ELi0ELin1ELi1EEEE6resizeExx"
 "_ZN5Eigen15PlainObjectBaseINS_5ArrayIN5CppAD2ADINS3_IdEEEELin1ELi1ELi0ELin1ELi1EEEEC2EOS7_"
 "_ZN5Eigen15PlainObjectBaseINS_5ArrayIN5CppAD2ADINS3_IdEEEELin1ELi1ELi0ELin1ELi1EEEEC2ERKS7_"
 "_ZN5Eigen15PlainObjectBaseINS_5ArrayIN5CppAD2ADINS3_IdEEEELin1ELi1ELi0ELin1ELi1EEEEC2Ev"
 "_ZN5Eigen15PlainObjectBaseINS_5ArrayIN5CppAD2ADINS3_IdEEEELin1ELi1ELi0ELin1ELi1EEEED2Ev"
 "_ZN5Eigen15PlainObjectBaseINS_5ArrayIN5CppAD2ADINS3_IdEEEELin1ELin1ELi0ELin1ELin1EEEE10resizeLikeINS1_IS5_Lin1ELi1ELi0ELin1ELi1EEEEEvRKNS_9EigenBaseIT_EE"
 "_ZN5Eigen15PlainObjectBaseINS_5ArrayIN5CppAD2ADINS3_IdEEEELin1ELin1ELi0ELin1ELin1EEEE12_set_noaliasINS1_IS5_Lin1ELi1ELi0ELin1ELi1EEEEERS6_RKNS_9DenseBaseIT_EE"
 "_ZN5Eigen15PlainObjectBaseINS_5ArrayIN5CppAD2ADINS3_IdEEEELin1ELin1ELi0ELin1ELin1EEEE22_check_template_paramsEv"
 "_ZN5Eigen15PlainObjectBaseINS_5ArrayIN5CppAD2ADINS3_IdEEEELin1ELin1ELi0ELin1ELin1EEEE6resizeExx"
 "_ZN5Eigen15PlainObjectBaseINS_5ArrayIN5CppAD2ADINS3_IdEEEELin1ELin1ELi0ELin1ELin1EEEEC2INS1_IS5_Lin1ELi1ELi0ELin1ELi1EEEEERKNS_9DenseBaseIT_EE"
 "_ZN5Eigen15PlainObjectBaseINS_5ArrayIN5CppAD2ADINS3_IdEEEELin1ELin1ELi0ELin1ELin1EEEED2Ev"
 "_ZN5Eigen15PlainObjectBaseINS_5ArrayIN5CppAD2ADINS3_INS3_IdEEEEEELin1ELi1ELi0ELin1ELi1EEEE12_set_noaliasINS_12CwiseUnaryOpINS_8internal14scalar_cast_opIdS6_EEKNS_3MapINS_6MatrixIdLin1ELi1ELi0ELin1ELi1EEELi0ENS_6StrideILi0ELi0EEEEEEEEERS7_RKNS_9DenseBaseIT_EE"
 "_ZN5Eigen15PlainObjectBaseINS_5ArrayIN5CppAD2ADINS3_INS3_IdEEEEEELin1ELi1ELi0ELin1ELi1EEEE18conservativeResizeEx"
 "_ZN5Eigen15PlainObjectBaseINS_5ArrayIN5CppAD2ADINS3_INS3_IdEEEEEELin1ELi1ELi0ELin1ELi1EEEE22_check_template_paramsEv"
 "_ZN5Eigen15PlainObjectBaseINS_5ArrayIN5CppAD2ADINS3_INS3_IdEEEEEELin1ELi1ELi0ELin1ELi1EEEE4dataEv"
 "_ZN5Eigen15PlainObjectBaseINS_5ArrayIN5CppAD2ADINS3_INS3_IdEEEEEELin1ELi1ELi0ELin1ELi1EEEE4swapIS7_EEvRNS_9DenseBaseIT_EE"
 "_ZN5Eigen15PlainObjectBaseINS_5ArrayIN5CppAD2ADINS3_INS3_IdEEEEEELin1ELi1ELi0ELin1ELi1EEEE6_init1IiEEvxPNS_8internal9enable_ifIXaaooneLNS_9DenseBaseIS7_EUt_En1ELi1EntsrNSA_14is_convertibleIT_S6_EE5valueoontLNSA_7is_sameINS_8ArrayXprESJ_EUt_E1EeqLSE_n1EL_ZNS_L7DynamicEEESG_E4typeE"
 "_ZN5Eigen15PlainObjectBaseINS_5ArrayIN5CppAD2ADINS3_INS3_IdEEEEEELin1ELi1ELi0ELin1ELi1EEEE6_init1INS_12CwiseUnaryOpINS_8internal14scalar_cast_opIdS6_EEKNS_3MapINS_6MatrixIdLin1ELi1ELi0ELin1ELi1EEELi0ENS_6StrideILi0ELi0EEEEEEESL_EEvRKNS_9DenseBaseIT0_EE"
 "_ZN5Eigen15PlainObjectBaseINS_5ArrayIN5CppAD2ADINS3_INS3_IdEEEEEELin1ELi1ELi0ELin1ELi1EEEE6resizeEx"
 "_ZN5Eigen15PlainObjectBaseINS_5ArrayIN5CppAD2ADINS3_INS3_IdEEEEEELin1ELi1ELi0ELin1ELi1EEEE6resizeExx"
 "_ZN5Eigen15PlainObjectBaseINS_5ArrayIN5CppAD2ADINS3_INS3_IdEEEEEELin1ELi1ELi0ELin1ELi1EEEEC2EOS8_"
 "_ZN5Eigen15PlainObjectBaseINS_5ArrayIN5CppAD2ADINS3_INS3_IdEEEEEELin1ELi1ELi0ELin1ELi1EEEEC2ERKS8_"
 "_ZN5Eigen15PlainObjectBaseINS_5ArrayIN5CppAD2ADINS3_INS3_IdEEEEEELin1ELi1ELi0ELin1ELi1EEEEC2Ev"
 "_ZN5Eigen15PlainObjectBaseINS_5ArrayIN5CppAD2ADINS3_INS3_IdEEEEEELin1ELi1ELi0ELin1ELi1EEEED2Ev"
 "_ZN5Eigen15PlainObjectBaseINS_5ArrayIN5CppAD2ADINS3_INS3_IdEEEEEELin1ELin1ELi0ELin1ELin1EEEE10resizeLikeINS1_IS6_Lin1ELi1ELi0ELin1ELi1EEEEEvRKNS_9EigenBaseIT_EE"
 "_ZN5Eigen15PlainObjectBaseINS_5ArrayIN5CppAD2ADINS3_INS3_IdEEEEEELin1ELin1ELi0ELin1ELin1EEEE12_set_noaliasINS1_IS6_Lin1ELi1ELi0ELin1ELi1EEEEERS7_RKNS_9DenseBaseIT_EE"
 "_ZN5Eigen15PlainObjectBaseINS_5ArrayIN5CppAD2ADINS3_INS3_IdEEEEEELin1ELin1ELi0ELin1ELin1EEEE22_check_template_paramsEv"
 "_ZN5Eigen15PlainObjectBaseINS_5ArrayIN5CppAD2ADINS3_INS3_IdEEEEEELin1ELin1ELi0ELin1ELin1EEEE6resizeExx"
 "_ZN5Eigen15PlainObjectBaseINS_5ArrayIN5CppAD2ADINS3_INS3_IdEEEEEELin1ELin1ELi0ELin1ELin1EEEEC2INS1_IS6_Lin1ELi1ELi0ELin1ELi1EEEEERKNS_9DenseBaseIT_EE"
 "_ZN5Eigen15PlainObjectBaseINS_5ArrayIN5CppAD2ADINS3_INS3_IdEEEEEELin1ELin1ELi0ELin1ELin1EEEED2Ev"
 "_ZN5Eigen15PlainObjectBaseINS_5ArrayIN8tmbutils6matrixIdEELin1ELi1ELi0ELin1ELi1EEEE12_set_noaliasINS_5BlockIS5_Lin1ELi1ELb0EEEEERS5_RKNS_9DenseBaseIT_EE"
 "_ZN5Eigen15PlainObjectBaseINS_5ArrayIN8tmbutils6matrixIdEELin1ELi1ELi0ELin1ELi1EEEE22_check_template_paramsEv"
 "_ZN5Eigen15PlainObjectBaseINS_5ArrayIN8tmbutils6matrixIdEELin1ELi1ELi0ELin1ELi1EEEE4dataEv"
 "_ZN5Eigen15PlainObjectBaseINS_5ArrayIN8tmbutils6matrixIdEELin1ELi1ELi0ELin1ELi1EEEE6_init1IiEEvxPNS_8internal9enable_ifIXaaooneLNS_9DenseBaseIS5_EUt_En1ELi1EntsrNS8_14is_convertibleIT_S4_EE5valueoontLNS8_7is_sameINS_8ArrayXprESH_EUt_E1EeqLSC_n1EL_ZNS_L7DynamicEEESE_E4typeE"
 "_ZN5Eigen15PlainObjectBaseINS_5ArrayIN8tmbutils6matrixIdEELin1ELi1ELi0ELin1ELi1EEEE6_init1INS_11VectorBlockIS5_Lin1EEENS_5BlockIS5_Lin1ELi1ELb0EEEEEvRKNS_9DenseBaseIT0_EE"
 "_ZN5Eigen15PlainObjectBaseINS_5ArrayIN8tmbutils6matrixIdEELin1ELi1ELi0ELin1ELi1EEEE6resizeEx"
 "_ZN5Eigen15PlainObjectBaseINS_5ArrayIN8tmbutils6matrixIdEELin1ELi1ELi0ELin1ELi1EEEE6resizeExx"
 "_ZN5Eigen15PlainObjectBaseINS_5ArrayIN8tmbutils6matrixIdEELin1ELi1ELi0ELin1ELi1EEEEC2ERKS6_"
 "_ZN5Eigen15PlainObjectBaseINS_5ArrayIN8tmbutils6matrixIdEELin1ELi1ELi0ELin1ELi1EEEEC2Ev"
 "_ZN5Eigen15PlainObjectBaseINS_5ArrayIN8tmbutils6matrixIdEELin1ELi1ELi0ELin1ELi1EEEED2Ev"
 "_ZN5Eigen15PlainObjectBaseINS_5ArrayIN8tmbutils6vectorIdEELin1ELi1ELi0ELin1ELi1EEEE22_check_template_paramsEv"
 "_ZN5Eigen15PlainObjectBaseINS_5ArrayIN8tmbutils6vectorIdEELin1ELi1ELi0ELin1ELi1EEEE6_init1IiEEvxPNS_8internal9enable_ifIXaaooneLNS_9DenseBaseIS5_EUt_En1ELi1EntsrNS8_14is_convertibleIT_S4_EE5valueoontLNS8_7is_sameINS_8ArrayXprESH_EUt_E1EeqLSC_n1EL_ZNS_L7DynamicEEESE_E4typeE"
 "_ZN5Eigen15PlainObjectBaseINS_5ArrayIN8tmbutils6vectorIdEELin1ELi1ELi0ELin1ELi1EEEE6resizeEx"
 "_ZN5Eigen15PlainObjectBaseINS_5ArrayIN8tmbutils6vectorIdEELin1ELi1ELi0ELin1ELi1EEEEC2Ev"
 "_ZN5Eigen15PlainObjectBaseINS_5ArrayIN8tmbutils6vectorIdEELin1ELi1ELi0ELin1ELi1EEEED2Ev"
 "_ZN5Eigen15PlainObjectBaseINS_5ArrayIN8tmbutils6vectorIiEELin1ELi1ELi0ELin1ELi1EEEE18conservativeResizeEx"
 "_ZN5Eigen15PlainObjectBaseINS_5ArrayIN8tmbutils6vectorIiEELin1ELi1ELi0ELin1ELi1EEEE22_check_template_paramsEv"
 "_ZN5Eigen15PlainObjectBaseINS_5ArrayIN8tmbutils6vectorIiEELin1ELi1ELi0ELin1ELi1EEEE6resizeEx"
 "_ZN5Eigen15PlainObjectBaseINS_5ArrayIN8tmbutils6vectorIiEELin1ELi1ELi0ELin1ELi1EEEEC2Ev"
 "_ZN5Eigen15PlainObjectBaseINS_5ArrayIN8tmbutils6vectorIiEELin1ELi1ELi0ELin1ELi1EEEED2Ev"
 "_ZN5Eigen15PlainObjectBaseINS_5ArrayIN8tmbutils6vectorIyEELin1ELi1ELi0ELin1ELi1EEEED2Ev"
 "_ZN5Eigen15PlainObjectBaseINS_5ArrayINS_6MatrixIdLin1ELi1ELi0ELin1ELi1EEELin1ELi1ELi0ELin1ELi1EEEE22_check_template_paramsEv"
 "_ZN5Eigen15PlainObjectBaseINS_5ArrayINS_6MatrixIdLin1ELi1ELi0ELin1ELi1EEELin1ELi1ELi0ELin1ELi1EEEE6_init1IiEEvxPNS_8internal9enable_ifIXaaooneLNS_9DenseBaseIS4_EUt_En1ELi1EntsrNS7_14is_convertibleIT_S3_EE5valueoontLNS7_7is_sameINS_8ArrayXprESG_EUt_E1EeqLSB_n1EL_ZNS_L7DynamicEEESD_E4typeE"
 "_ZN5Eigen15PlainObjectBaseINS_5ArrayINS_6MatrixIdLin1ELi1ELi0ELin1ELi1EEELin1ELi1ELi0ELin1ELi1EEEE6resizeEx"
 "_ZN5Eigen15PlainObjectBaseINS_5ArrayINS_6MatrixIdLin1ELi1ELi0ELin1ELi1EEELin1ELi1ELi0ELin1ELi1EEEEC2Ev"
 "_ZN5Eigen15PlainObjectBaseINS_5ArrayINS_6MatrixIdLin1ELi1ELi0ELin1ELi1EEELin1ELi1ELi0ELin1ELi1EEEED2Ev"
 "_ZN5Eigen15PlainObjectBaseINS_5ArrayIP8sphess_tIN5CppAD5ADFunIdEEELin1ELi1ELi0ELin1ELi1EEEED2Ev"
 "_ZN5Eigen15PlainObjectBaseINS_5ArrayIPKcLin1ELi1ELi0ELin1ELi1EEEE18conservativeResizeEx"
 "_ZN5Eigen15PlainObjectBaseINS_5ArrayIPKcLin1ELi1ELi0ELin1ELi1EEEE22_check_template_paramsEv"
 "_ZN5Eigen15PlainObjectBaseINS_5ArrayIPKcLin1ELi1ELi0ELin1ELi1EEEE6resizeEx"
 "_ZN5Eigen15PlainObjectBaseINS_5ArrayIPKcLin1ELi1ELi0ELin1ELi1EEEEC2Ev"
 "_ZN5Eigen15PlainObjectBaseINS_5ArrayIPKcLin1ELi1ELi0ELin1ELi1EEEED2Ev"
 "_ZN5Eigen15PlainObjectBaseINS_5ArrayIPN5CppAD5ADFunIdEELin1ELi1ELi0ELin1ELi1EEEED2Ev"
 "_ZN5Eigen15PlainObjectBaseINS_5ArrayIyLin1ELi1ELi0ELin1ELi1EEEE22_check_template_paramsEv"
 "_ZN5Eigen15PlainObjectBaseINS_5ArrayIyLin1ELi1ELi0ELin1ELi1EEEE6_init1IiEEvxPNS_8internal9enable_ifIXaaooneLNS_9DenseBaseIS2_EUt_En1ELi1EntsrNS5_14is_convertibleIT_yEE5valueoontLNS5_7is_sameINS_8ArrayXprESE_EUt_E1EeqLS9_n1EL_ZNS_L7DynamicEEESB_E4typeE"
 "_ZN5Eigen15PlainObjectBaseINS_5ArrayIyLin1ELi1ELi0ELin1ELi1EEEE6resizeEx"
 "_ZN5Eigen15PlainObjectBaseINS_5ArrayIyLin1ELi1ELi0ELin1ELi1EEEEC2Ev"
 "_ZN5Eigen15PlainObjectBaseINS_5ArrayIyLin1ELi1ELi0ELin1ELi1EEEED2Ev"
 "_ZN5Eigen15PlainObjectBaseINS_6MatrixIbLin1ELi1ELi0ELin1ELi1EEEE22_check_template_paramsEv"
 "_ZN5Eigen15PlainObjectBaseINS_6MatrixIbLin1ELi1ELi0ELin1ELi1EEEE4_setINS_14CwiseNullaryOpINS_8internal18scalar_constant_opIbEES2_EEEERS2_RKNS_9DenseBaseIT_EE"
 "_ZN5Eigen15PlainObjectBaseINS_6MatrixIbLin1ELi1ELi0ELin1ELi1EEEE6_init1IxEEvxPNS_8internal9enable_ifIXaaooneLNS_9DenseBaseIS2_EUt_En1ELi1EntsrNS5_14is_convertibleIT_bEE5valueoontLNS5_7is_sameINS_9MatrixXprENS_8ArrayXprEEUt_E0EeqLS9_n1EL_ZNS_L7DynamicEEESB_E4typeE"
 "_ZN5Eigen15PlainObjectBaseINS_6MatrixIbLin1ELi1ELi0ELin1ELi1EEEE6resizeEx"
 "_ZN5Eigen15PlainObjectBaseINS_6MatrixIbLin1ELi1ELi0ELin1ELi1EEEE6resizeExx"
 "_ZN5Eigen15PlainObjectBaseINS_6MatrixIbLin1ELi1ELi0ELin1ELi1EEEE8coeffRefEx"
 "_ZN5Eigen15PlainObjectBaseINS_6MatrixIbLin1ELi1ELi0ELin1ELi1EEEEC2Ev"
 "_ZN5Eigen15PlainObjectBaseINS_6MatrixIbLin1ELi1ELi0ELin1ELi1EEEED2Ev"
 "_ZN5Eigen15PlainObjectBaseINS_6MatrixIdLin1ELi1ELi0ELin1ELi1EEEE22_check_template_paramsEv"
 "_ZN5Eigen15PlainObjectBaseINS_6MatrixIdLin1ELi1ELi0ELin1ELi1EEEE4_setINS_13CwiseBinaryOpINS_8internal13scalar_sum_opIddEEKS2_S9_EEEERS2_RKNS_9DenseBaseIT_EE"
 "_ZN5Eigen15PlainObjectBaseINS_6MatrixIdLin1ELi1ELi0ELin1ELi1EEEE4swapIS2_EEvRNS_9DenseBaseIT_EE"
 "_ZN5Eigen15PlainObjectBaseINS_6MatrixIdLin1ELi1ELi0ELin1ELi1EEEE6_init1IyEEvxPNS_8internal9enable_ifIXaaooneLNS_9DenseBaseIS2_EUt_En1ELi1EntsrNS5_14is_convertibleIT_dEE5valueoontLNS5_7is_sameINS_9MatrixXprENS_8ArrayXprEEUt_E0EeqLS9_n1EL_ZNS_L7DynamicEEESB_E4typeE"
 "_ZN5Eigen15PlainObjectBaseINS_6MatrixIdLin1ELi1ELi0ELin1ELi1EEEE6resizeEx"
 "_ZN5Eigen15PlainObjectBaseINS_6MatrixIdLin1ELi1ELi0ELin1ELi1EEEE6resizeExx"
 "_ZN5Eigen15PlainObjectBaseINS_6MatrixIdLin1ELi1ELi0ELin1ELi1EEEEC2Ev"
 "_ZN5Eigen15PlainObjectBaseINS_6MatrixIdLin1ELi1ELi0ELin1ELi1EEEED2Ev"
 "_ZN5Eigen15PlainObjectBaseINS_6MatrixIdLin1ELin1ELi0ELin1ELin1EEEE12_set_noaliasINS_13CwiseBinaryOpINS_8internal13scalar_sum_opIddEEKS2_S9_EEEERS2_RKNS_9DenseBaseIT_EE"
 "_ZN5Eigen15PlainObjectBaseINS_6MatrixIdLin1ELin1ELi0ELin1ELin1EEEE12_set_noaliasINS_13CwiseBinaryOpINS_8internal17scalar_product_opIddEEKNS_14CwiseNullaryOpINS6_18scalar_constant_opIdEEKS2_EESC_EEEERS2_RKNS_9DenseBaseIT_EE"
 "_ZN5Eigen15PlainObjectBaseINS_6MatrixIdLin1ELin1ELi0ELin1ELin1EEEE12_set_noaliasINS_13CwiseBinaryOpINS_8internal17scalar_product_opIddEEKS2_KNS_14CwiseNullaryOpINS6_18scalar_constant_opIdEES9_EEEEEERS2_RKNS_9DenseBaseIT_EE"
 "_ZN5Eigen15PlainObjectBaseINS_6MatrixIdLin1ELin1ELi0ELin1ELin1EEEE12_set_noaliasINS_13MatrixWrapperIKNS_5ArrayIdLin1ELi1ELi0ELin1ELi1EEEEEEERS2_RKNS_9DenseBaseIT_EE"
 "_ZN5Eigen15PlainObjectBaseINS_6MatrixIdLin1ELin1ELi0ELin1ELin1EEEE12_set_noaliasINS_7InverseIS2_EEEERS2_RKNS_9DenseBaseIT_EE"
 "_ZN5Eigen15PlainObjectBaseINS_6MatrixIdLin1ELin1ELi0ELin1ELin1EEEE12_set_noaliasINS_7ProductIS2_S2_Li0EEEEERS2_RKNS_9DenseBaseIT_EE"
 "_ZN5Eigen15PlainObjectBaseINS_6MatrixIdLin1ELin1ELi0ELin1ELin1EEEE22_check_template_paramsEv"
 "_ZN5Eigen15PlainObjectBaseINS_6MatrixIdLin1ELin1ELi0ELin1ELin1EEEE4_setINS_12CwiseUnaryOpINS_8internal13scalar_abs_opIdEEKNS_12ArrayWrapperIS2_EEEEEERS2_RKNS_9DenseBaseIT_EE"
 "_ZN5Eigen15PlainObjectBaseINS_6MatrixIdLin1ELin1ELi0ELin1ELin1EEEE4_setINS_14CwiseNullaryOpINS_8internal18scalar_constant_opIdEES2_EEEERS2_RKNS_9DenseBaseIT_EE"
 "_ZN5Eigen15PlainObjectBaseINS_6MatrixIdLin1ELin1ELi0ELin1ELin1EEEE4_setINS_14CwiseNullaryOpINS_8internal18scalar_identity_opIdEES2_EEEERS2_RKNS_9DenseBaseIT_EE"
 "_ZN5Eigen15PlainObjectBaseINS_6MatrixIdLin1ELin1ELi0ELin1ELin1EEEE4_setINS_5SolveINS_12PartialPivLUIS2_EENS_14CwiseNullaryOpINS_8internal18scalar_identity_opIdEES2_EEEEEERS2_RKNS_9DenseBaseIT_EE"
 "_ZN5Eigen15PlainObjectBaseINS_6MatrixIdLin1ELin1ELi0ELin1ELin1EEEE4_setINS_7InverseINS_12PartialPivLUIS2_EEEEEERS2_RKNS_9DenseBaseIT_EE"
 "_ZN5Eigen15PlainObjectBaseINS_6MatrixIdLin1ELin1ELi0ELin1ELin1EEEE4_setINS_7ProductINS_17PermutationMatrixILin1ELin1EiEENS_14CwiseNullaryOpINS_8internal18scalar_identity_opIdEES2_EELi2EEEEERS2_RKNS_9DenseBaseIT_EE"
 "_ZN5Eigen15PlainObjectBaseINS_6MatrixIdLin1ELin1ELi0ELin1ELin1EEEE4_setIS2_EERS2_RKNS_9DenseBaseIT_EE"
 "_ZN5Eigen15PlainObjectBaseINS_6MatrixIdLin1ELin1ELi0ELin1ELin1EEEE4dataEv"
 "_ZN5Eigen15PlainObjectBaseINS_6MatrixIdLin1ELin1ELi0ELin1ELin1EEEE4swapIS2_EEvRNS_9DenseBaseIT_EE"
 "_ZN5Eigen15PlainObjectBaseINS_6MatrixIdLin1ELin1ELi0ELin1ELin1EEEE6_init1INS_13CwiseBinaryOpINS_8internal13scalar_sum_opIddEEKS2_S9_EESA_EEvRKNS_9DenseBaseIT0_EE"
 "_ZN5Eigen15PlainObjectBaseINS_6MatrixIdLin1ELin1ELi0ELin1ELin1EEEE6_init1INS_13CwiseBinaryOpINS_8internal17scalar_product_opIddEEKNS_14CwiseNullaryOpINS6_18scalar_constant_opIdEEKS2_EESC_EESF_EEvRKNS_9DenseBaseIT0_EE"
 "_ZN5Eigen15PlainObjectBaseINS_6MatrixIdLin1ELin1ELi0ELin1ELin1EEEE6_init1INS_13CwiseBinaryOpINS_8internal17scalar_product_opIddEEKS2_KNS_14CwiseNullaryOpINS6_18scalar_constant_opIdEES9_EEEESF_EEvRKNS_9DenseBaseIT0_EE"
 "_ZN5Eigen15PlainObjectBaseINS_6MatrixIdLin1ELin1ELi0ELin1ELin1EEEE6_init1INS_13MatrixWrapperIKNS_5ArrayIdLin1ELi1ELi0ELin1ELi1EEEEES9_EEvRKNS_9DenseBaseIT0_EE"
 "_ZN5Eigen15PlainObjectBaseINS_6MatrixIdLin1ELin1ELi0ELin1ELin1EEEE6_init1INS_7InverseIS2_EES6_EEvRKNS_9DenseBaseIT0_EE"
 "_ZN5Eigen15PlainObjectBaseINS_6MatrixIdLin1ELin1ELi0ELin1ELin1EEEE6_init1INS_7ProductIS2_S2_Li0EEES6_EEvRKNS_9DenseBaseIT0_EE"
 "_ZN5Eigen15PlainObjectBaseINS_6MatrixIdLin1ELin1ELi0ELin1ELin1EEEE6_init2IiiEEvxxPNS_8internal9enable_ifILb1ET_E4typeE"
 "_ZN5Eigen15PlainObjectBaseINS_6MatrixIdLin1ELin1ELi0ELin1ELin1EEEE6_init2IxxEEvxxPNS_8internal9enable_ifILb1ET_E4typeE"
 "_ZN5Eigen15PlainObjectBaseINS_6MatrixIdLin1ELin1ELi0ELin1ELin1EEEE6resizeExx"
 "_ZN5Eigen15PlainObjectBaseINS_6MatrixIdLin1ELin1ELi0ELin1ELin1EEEE8coeffRefExx"
 "_ZN5Eigen15PlainObjectBaseINS_6MatrixIdLin1ELin1ELi0ELin1ELin1EEEEC2ERKS3_"
 "_ZN5Eigen15PlainObjectBaseINS_6MatrixIdLin1ELin1ELi0ELin1ELin1EEEEC2Ev"
 "_ZN5Eigen15PlainObjectBaseINS_6MatrixIdLin1ELin1ELi0ELin1ELin1EEEED2Ev"
 "_ZN5Eigen15PlainObjectBaseINS_6MatrixIiLin1ELi1ELi0ELin1ELi1EEEE22_check_template_paramsEv"
 "_ZN5Eigen15PlainObjectBaseINS_6MatrixIiLin1ELi1ELi0ELin1ELi1EEEE6_init1IxEEvxPNS_8internal9enable_ifIXaaooneLNS_9DenseBaseIS2_EUt_En1ELi1EntsrNS5_14is_convertibleIT_iEE5valueoontLNS5_7is_sameINS_9MatrixXprENS_8ArrayXprEEUt_E0EeqLS9_n1EL_ZNS_L7DynamicEEESB_E4typeE"
 "_ZN5Eigen15PlainObjectBaseINS_6MatrixIiLin1ELi1ELi0ELin1ELi1EEEE6resizeEx"
 "_ZN5Eigen15PlainObjectBaseINS_6MatrixIiLin1ELi1ELi0ELin1ELi1EEEE8coeffRefEx"
 "_ZN5Eigen15PlainObjectBaseINS_6MatrixIiLin1ELi1ELi0ELin1ELi1EEEEC2ERKS3_"
 "_ZN5Eigen15PlainObjectBaseINS_6MatrixIiLin1ELi1ELi0ELin1ELi1EEEEC2Ev"
 "_ZN5Eigen15PlainObjectBaseINS_6MatrixIiLin1ELi1ELi0ELin1ELi1EEEED2Ev"
 "_ZN5Eigen15PlainObjectBaseINS_6MatrixIiLin1ELin1ELi0ELin1ELin1EEEE12_set_noaliasINS_13MatrixWrapperIKNS_5ArrayIiLin1ELi1ELi0ELin1ELi1EEEEEEERS2_RKNS_9DenseBaseIT_EE"
 "_ZN5Eigen15PlainObjectBaseINS_6MatrixIiLin1ELin1ELi0ELin1ELin1EEEE22_check_template_paramsEv"
 "_ZN5Eigen15PlainObjectBaseINS_6MatrixIiLin1ELin1ELi0ELin1ELin1EEEE6_init1INS_13MatrixWrapperIKNS_5ArrayIiLin1ELi1ELi0ELin1ELi1EEEEES9_EEvRKNS_9DenseBaseIT0_EE"
 "_ZN5Eigen15PlainObjectBaseINS_6MatrixIiLin1ELin1ELi0ELin1ELin1EEEE6resizeExx"
 "_ZN5Eigen15PlainObjectBaseINS_6MatrixIiLin1ELin1ELi0ELin1ELin1EEEEC2Ev"
 "_ZN5Eigen15PlainObjectBaseINS_6MatrixIiLin1ELin1ELi0ELin1ELin1EEEED2Ev"
 "_ZN5Eigen15PlainObjectBaseINS_6MatrixIN5CppAD2ADIdEELin1ELin1ELi0ELin1ELin1EEEE22_check_template_paramsEv"
 "_ZN5Eigen15PlainObjectBaseINS_6MatrixIN5CppAD2ADIdEELin1ELin1ELi0ELin1ELin1EEEE6_init2IiiEEvxxPNS_8internal9enable_ifILb1ET_E4typeE"
 "_ZN5Eigen15PlainObjectBaseINS_6MatrixIN5CppAD2ADIdEELin1ELin1ELi0ELin1ELin1EEEE6resizeExx"
 "_ZN5Eigen15PlainObjectBaseINS_6MatrixIN5CppAD2ADIdEELin1ELin1ELi0ELin1ELin1EEEEC2Ev"
 "_ZN5Eigen15PlainObjectBaseINS_6MatrixIN5CppAD2ADIdEELin1ELin1ELi0ELin1ELin1EEEED2Ev"
 "_ZN5Eigen15PlainObjectBaseINS_6MatrixIN5CppAD2ADINS3_IdEEEELin1ELin1ELi0ELin1ELin1EEEE22_check_template_paramsEv"
 "_ZN5Eigen15PlainObjectBaseINS_6MatrixIN5CppAD2ADINS3_IdEEEELin1ELin1ELi0ELin1ELin1EEEE6_init2IiiEEvxxPNS_8internal9enable_ifILb1ET_E4typeE"
 "_ZN5Eigen15PlainObjectBaseINS_6MatrixIN5CppAD2ADINS3_IdEEEELin1ELin1ELi0ELin1ELin1EEEE6resizeExx"
 "_ZN5Eigen15PlainObjectBaseINS_6MatrixIN5CppAD2ADINS3_IdEEEELin1ELin1ELi0ELin1ELin1EEEEC2Ev"
 "_ZN5Eigen15PlainObjectBaseINS_6MatrixIN5CppAD2ADINS3_IdEEEELin1ELin1ELi0ELin1ELin1EEEED2Ev"
 "_ZN5Eigen15PlainObjectBaseINS_6MatrixIN5CppAD2ADINS3_INS3_IdEEEEEELin1ELin1ELi0ELin1ELin1EEEE22_check_template_paramsEv"
 "_ZN5Eigen15PlainObjectBaseINS_6MatrixIN5CppAD2ADINS3_INS3_IdEEEEEELin1ELin1ELi0ELin1ELin1EEEE6_init2IiiEEvxxPNS_8internal9enable_ifILb1ET_E4typeE"
 "_ZN5Eigen15PlainObjectBaseINS_6MatrixIN5CppAD2ADINS3_INS3_IdEEEEEELin1ELin1ELi0ELin1ELin1EEEE6resizeExx"
 "_ZN5Eigen15PlainObjectBaseINS_6MatrixIN5CppAD2ADINS3_INS3_IdEEEEEELin1ELin1ELi0ELin1ELin1EEEEC2Ev"
 "_ZN5Eigen15PlainObjectBaseINS_6MatrixIN5CppAD2ADINS3_INS3_IdEEEEEELin1ELin1ELi0ELin1ELin1EEEED2Ev"
 "_ZN5Eigen16CommaInitializerINS_5ArrayIiLin1ELi1ELi0ELin1ELi1EEEE8finishedEv"
 "_ZN5Eigen16CommaInitializerINS_5ArrayIiLin1ELi1ELi0ELin1ELi1EEEEC1ERS2_RKi"
 "_ZN5Eigen16CommaInitializerINS_5ArrayIiLin1ELi1ELi0ELin1ELi1EEEED1Ev"
 "_ZN5Eigen16CwiseUnaryOpImplINS_8internal13scalar_abs_opIdEEKNS_12ArrayWrapperINS_6MatrixIdLin1ELin1ELi0ELin1ELin1EEEEENS_5DenseEEC2Ev"
 "_ZN5Eigen16CwiseUnaryOpImplINS_8internal13scalar_abs_opIdEEKNS_6MatrixIdLin1ELin1ELi0ELin1ELin1EEENS_5DenseEEC2Ev"
 "_ZN5Eigen16CwiseUnaryOpImplINS_8internal14scalar_cast_opIbiEEKNS_5ArrayIbLin1ELi1ELi0ELin1ELi1EEENS_5DenseEEC2Ev"
 "_ZN5Eigen16CwiseUnaryOpImplINS_8internal14scalar_cast_opIdiEEKNS_3MapINS_6MatrixIdLin1ELi1ELi0ELin1ELi1EEELi0ENS_6StrideILi0ELi0EEEEENS_5DenseEEC2Ev"
 "_ZN5Eigen16CwiseUnaryOpImplINS_8internal14scalar_cast_opIdN5CppAD2ADIdEEEEKNS_3MapINS_6MatrixIdLin1ELi1ELi0ELin1ELi1EEELi0ENS_6StrideILi0ELi0EEEEENS_5DenseEEC2Ev"
 "_ZN5Eigen16CwiseUnaryOpImplINS_8internal14scalar_cast_opIdN5CppAD2ADINS4_IdEEEEEEKNS_3MapINS_6MatrixIdLin1ELi1ELi0ELin1ELi1EEELi0ENS_6StrideILi0ELi0EEEEENS_5DenseEEC2Ev"
 "_ZN5Eigen16CwiseUnaryOpImplINS_8internal14scalar_cast_opIdN5CppAD2ADINS4_INS4_IdEEEEEEEEKNS_3MapINS_6MatrixIdLin1ELi1ELi0ELin1ELi1EEELi0ENS_6StrideILi0ELi0EEEEENS_5DenseEEC2Ev"
 "_ZN5Eigen16CwiseUnaryOpImplINS_8internal21scalar_score_coeff_opIdEEKNS_5BlockINS4_INS4_INS_3MapINS_6MatrixIdLin1ELin1ELi0ELin1ELin1EEELi0ENS_6StrideILi0ELi0EEEEELin1ELin1ELb0EEELin1ELi1ELb1EEELin1ELi1ELb0EEENS_5DenseEEC2Ev"
 "_ZN5Eigen16PartialReduxExprIKNS_12CwiseUnaryOpINS_8internal13scalar_abs_opIdEEKNS_6MatrixIdLin1ELin1ELi0ELin1ELin1EEEEENS2_10member_sumIdEELi0EEC1ERKSC_"
 "_ZN5Eigen16PartialReduxExprIKNS_12CwiseUnaryOpINS_8internal13scalar_abs_opIdEEKNS_6MatrixIdLin1ELin1ELi0ELin1ELin1EEEEENS2_10member_sumIdEELi0EEC1ERS9_RKSB_"
 "_ZN5Eigen16PartialReduxExprINS_6MatrixIdLin1ELin1ELi0ELin1ELin1EEENS_8internal10member_sumIdEELi1EEC1ERKS2_RKS5_"
 "_ZN5Eigen16PartialReduxExprINS_6MatrixIdLin1ELin1ELi0ELin1ELin1EEENS_8internal10member_sumIdEELi1EEC1ERKS6_"
 "_ZN5Eigen17CwiseBinaryOpImplINS_8internal13scalar_sum_opIddEEKNS_5ArrayIdLin1ELi1ELi0ELin1ELi1EEES6_NS_5DenseEEC2Ev"
 "_ZN5Eigen17CwiseBinaryOpImplINS_8internal13scalar_sum_opIddEEKNS_6MatrixIdLin1ELi1ELi0ELin1ELi1EEES6_NS_5DenseEEC2Ev"
 "_ZN5Eigen17CwiseBinaryOpImplINS_8internal13scalar_sum_opIddEEKNS_6MatrixIdLin1ELin1ELi0ELin1ELin1EEES6_NS_5DenseEEC2Ev"
 "_ZN5Eigen17CwiseBinaryOpImplINS_8internal17scalar_product_opIddEEKNS_12ArrayWrapperIKNS_5BlockIKNS_6MatrixIdLin1ELin1ELi0ELin1ELin1EEELin1ELin1ELb0EEEEEKNS4_IS8_EENS_5DenseEEC2Ev"
 "_ZN5Eigen17CwiseBinaryOpImplINS_8internal17scalar_product_opIddEEKNS_14CwiseNullaryOpINS1_18scalar_constant_opIdEEKNS_6MatrixIdLin1ELi1ELi0ELin1ELi1EEEEEKNS_5BlockINSC_INSC_INS_3MapINS7_IdLin1ELin1ELi0ELin1ELin1EEELi0ENS_6StrideILi0ELi0EEEEELin1ELin1ELb0EEELin1ELi1ELb1EEELin1ELi1ELb0EEENS_5DenseEEC2Ev"
 "_ZN5Eigen17CwiseBinaryOpImplINS_8internal17scalar_product_opIddEEKNS_14CwiseNullaryOpINS1_18scalar_constant_opIdEEKNS_6MatrixIdLin1ELin1ELi0ELin1ELin1EEEEES9_NS_5DenseEEC2Ev"
 "_ZN5Eigen17CwiseBinaryOpImplINS_8internal17scalar_product_opIddEEKNS_6MatrixIdLin1ELin1ELi0ELin1ELin1EEEKNS_14CwiseNullaryOpINS1_18scalar_constant_opIdEES6_EENS_5DenseEEC2Ev"
 "_ZN5Eigen17CwiseBinaryOpImplINS_8internal17scalar_product_opIddEEKNS_9TransposeIKNS_5BlockIKNS_6MatrixIdLin1ELin1ELi0ELin1ELin1EEELi1ELin1ELb0EEEEEKNS5_IS8_Lin1ELi1ELb1EEENS_5DenseEEC2Ev"
 "_ZN5Eigen17CwiseBinaryOpImplINS_8internal17scalar_product_opIddEEKNS_9TransposeIKNS_5BlockIKNS5_INS5_INS_3MapINS_6MatrixIdLin1ELin1ELi0ELin1ELin1EEELi0ENS_6StrideILi0ELi0EEEEELin1ELin1ELb0EEELin1ELin1ELb0EEELi1ELin1ELb0EEEEEKNS5_ISE_Lin1ELi1ELb1EEENS_5DenseEEC2Ev"
 "_ZN5Eigen17CwiseBinaryOpImplINS_8internal17scalar_product_opIN5CppAD2ADIdEES5_EEKNS_5ArrayIS5_Lin1ELi1ELi0ELin1ELi1EEES9_NS_5DenseEEC2Ev"
 "_ZN5Eigen17CwiseBinaryOpImplINS_8internal17scalar_product_opIN5CppAD2ADINS4_IdEEEES6_EEKNS_5ArrayIS6_Lin1ELi1ELi0ELin1ELi1EEESA_NS_5DenseEEC2Ev"
 "_ZN5Eigen17CwiseBinaryOpImplINS_8internal17scalar_product_opIN5CppAD2ADINS4_INS4_IdEEEEEES7_EEKNS_5ArrayIS7_Lin1ELi1ELi0ELin1ELi1EEESB_NS_5DenseEEC2Ev"
 "_ZN5Eigen17PermutationMatrixILin1ELin1EiE7indicesEv"
 "_ZN5Eigen17PermutationMatrixILin1ELin1EiEaSINS_14TranspositionsILin1ELin1EiEEEERS1_RKNS_18TranspositionsBaseIT_EE"
 "_ZN5Eigen17PermutationMatrixILin1ELin1EiEC1ERKS1_"
 "_ZN5Eigen17PermutationMatrixILin1ELin1EiEC1Ex"
 "_ZN5Eigen17PermutationMatrixILin1ELin1EiED1Ev"
 "_ZN5Eigen18TranspositionsBaseINS_14TranspositionsILin1ELin1EiEEE6resizeEx"
 "_ZN5Eigen18TranspositionsBaseINS_14TranspositionsILin1ELin1EiEEE7derivedEv"
 "_ZN5Eigen18TranspositionsBaseINS_14TranspositionsILin1ELin1EiEEE7indicesEv"
 "_ZN5Eigen18TranspositionsBaseINS_14TranspositionsILin1ELin1EiEEE8coeffRefEx"
 "_ZN5Eigen18TranspositionsBaseINS_14TranspositionsILin1ELin1EiEEEC2Ev"
 "_ZN5Eigen18TriangularViewImplIKNS_6MatrixIdLin1ELin1ELi0ELin1ELin1EEELj2ENS_5DenseEEC2Ev"
 "_ZN5Eigen18TriangularViewImplIKNS_6MatrixIdLin1ELin1ELi0ELin1ELin1EEELj5ENS_5DenseEEC2Ev"
 "_ZN5Eigen18TriangularViewImplINS_5BlockINS1_INS_3MapINS_6MatrixIdLin1ELin1ELi0ELin1ELin1EEELi0ENS_6StrideILi0ELi0EEEEELin1ELin1ELb0EEELin1ELin1ELb0EEELj5ENS_5DenseEEC2Ev"
 "_ZN5Eigen3MapINS_6MatrixIdLin1ELi1ELi0ELin1ELi1EEELi0ENS_6StrideILi0ELi0EEEE20cast_to_pointer_typeEPd"
 "_ZN5Eigen3MapINS_6MatrixIdLin1ELi1ELi0ELin1ELi1EEELi0ENS_6StrideILi0ELi0EEEEC1EPdxRKS4_"
 "_ZN5Eigen3MapINS_6MatrixIdLin1ELi1ELi0ELin1ELi1EEELi0ENS_6StrideILi0ELi0EEEEC1ERKS5_"
 "_ZN5Eigen3MapINS_6MatrixIdLin1ELin1ELi0ELin1ELin1EEELi0ENS_6StrideILi0ELi0EEEE20cast_to_pointer_typeEPd"
 "_ZN5Eigen3MapINS_6MatrixIdLin1ELin1ELi0ELin1ELin1EEELi0ENS_6StrideILi0ELi0EEEEC1EPdxxRKS4_"
 "_ZN5Eigen3MapINS_6MatrixIdLin1ELin1ELi0ELin1ELin1EEELi0ENS_6StrideILi0ELi0EEEEC1ERKS5_"
 "_ZN5Eigen5ArrayIbLin1ELi1ELi0ELin1ELi1EEC2Ev"
 "_ZN5Eigen5ArrayIbLin1ELi1ELi0ELin1ELi1EEC2IiEERKT_"
 "_ZN5Eigen5ArrayIbLin1ELi1ELi0ELin1ELi1EED2Ev"
 "_ZN5Eigen5ArrayIdLin1ELi1ELi0ELin1ELi1EEaSEOS1_"
 "_ZN5Eigen5ArrayIdLin1ELi1ELi0ELin1ELi1EEaSERKS1_"
 "_ZN5Eigen5ArrayIdLin1ELi1ELi0ELin1ELi1EEaSINS_13CwiseBinaryOpINS_8internal13scalar_sum_opIddEEKS1_S7_EEEERS1_RKNS_9DenseBaseIT_EE"
 "_ZN5Eigen5ArrayIdLin1ELi1ELi0ELin1ELi1EEaSINS_14CwiseNullaryOpINS_8internal18scalar_constant_opIdEES1_EEEERS1_RKNS_9DenseBaseIT_EE"
 "_ZN5Eigen5ArrayIdLin1ELi1ELi0ELin1ELi1EEC2EOS1_"
 "_ZN5Eigen5ArrayIdLin1ELi1ELi0ELin1ELi1EEC2ERKS1_"
 "_ZN5Eigen5ArrayIdLin1ELi1ELi0ELin1ELi1EEC2Ev"
 "_ZN5Eigen5ArrayIdLin1ELi1ELi0ELin1ELi1EEC2IiEERKT_"
 "_ZN5Eigen5ArrayIdLin1ELi1ELi0ELin1ELi1EEC2INS_16PartialReduxExprINS_6MatrixIdLin1ELin1ELi0ELin1ELin1EEENS_8internal10member_sumIdEELi1EEEEERKT_"
 "_ZN5Eigen5ArrayIdLin1ELi1ELi0ELin1ELi1EEC2INS_3MapINS_6MatrixIdLin1ELi1ELi0ELin1ELi1EEELi0ENS_6StrideILi0ELi0EEEEEEERKT_"
 "_ZN5Eigen5ArrayIdLin1ELi1ELi0ELin1ELi1EEC2IyEERKT_"
 "_ZN5Eigen5ArrayIdLin1ELi1ELi0ELin1ELi1EED2Ev"
 "_ZN5Eigen5ArrayIdLin1ELin1ELi0ELin1ELin1EEC1INS0_IdLin1ELi1ELi0ELin1ELi1EEEEERKNS_9EigenBaseIT_EENS_8internal9enable_ifIXsrNS9_14is_convertibleINS5_6ScalarEdEE5valueENS1_11PrivateTypeEE4typeE"
 "_ZN5Eigen5ArrayIdLin1ELin1ELi0ELin1ELin1EED1Ev"
 "_ZN5Eigen5ArrayIiLin1ELi1ELi0ELin1ELi1EEaSERKS1_"
 "_ZN5Eigen5ArrayIiLin1ELi1ELi0ELin1ELi1EEC2ERKS1_"
 "_ZN5Eigen5ArrayIiLin1ELi1ELi0ELin1ELi1EEC2Ev"
 "_ZN5Eigen5ArrayIiLin1ELi1ELi0ELin1ELi1EEC2IiEERKT_"
 "_ZN5Eigen5ArrayIiLin1ELi1ELi0ELin1ELi1EEC2INS_12CwiseUnaryOpINS_8internal14scalar_cast_opIbiEEKNS0_IbLin1ELi1ELi0ELin1ELi1EEEEEEERKT_"
 "_ZN5Eigen5ArrayIiLin1ELi1ELi0ELin1ELi1EEC2INS_12CwiseUnaryOpINS_8internal14scalar_cast_opIdiEEKNS_3MapINS_6MatrixIdLin1ELi1ELi0ELin1ELi1EEELi0ENS_6StrideILi0ELi0EEEEEEEEERKT_"
 "_ZN5Eigen5ArrayIiLin1ELi1ELi0ELin1ELi1EED2Ev"
 "_ZN5Eigen5ArrayIN5CppAD2ADIdEELin1ELi1ELi0ELin1ELi1EEaSEOS4_"
 "_ZN5Eigen5ArrayIN5CppAD2ADIdEELin1ELi1ELi0ELin1ELi1EEC2EOS4_"
 "_ZN5Eigen5ArrayIN5CppAD2ADIdEELin1ELi1ELi0ELin1ELi1EEC2ERKS4_"
 "_ZN5Eigen5ArrayIN5CppAD2ADIdEELin1ELi1ELi0ELin1ELi1EEC2Ev"
 "_ZN5Eigen5ArrayIN5CppAD2ADIdEELin1ELi1ELi0ELin1ELi1EEC2IiEERKT_"
 "_ZN5Eigen5ArrayIN5CppAD2ADIdEELin1ELi1ELi0ELin1ELi1EEC2INS_12CwiseUnaryOpINS_8internal14scalar_cast_opIdS3_EEKNS_3MapINS_6MatrixIdLin1ELi1ELi0ELin1ELi1EEELi0ENS_6StrideILi0ELi0EEEEEEEEERKT_"
 "_ZN5Eigen5ArrayIN5CppAD2ADIdEELin1ELi1ELi0ELin1ELi1EEC2IyEERKT_"
 "_ZN5Eigen5ArrayIN5CppAD2ADIdEELin1ELi1ELi0ELin1ELi1EED2Ev"
 "_ZN5Eigen5ArrayIN5CppAD2ADIdEELin1ELin1ELi0ELin1ELin1EEC1INS0_IS3_Lin1ELi1ELi0ELin1ELi1EEEEERKNS_9EigenBaseIT_EENS_8internal9enable_ifIXsrNSC_14is_convertibleINS8_6ScalarES3_EE5valueENS4_11PrivateTypeEE4typeE"
 "_ZN5Eigen5ArrayIN5CppAD2ADIdEELin1ELin1ELi0ELin1ELin1EED1Ev"
 "_ZN5Eigen5ArrayIN5CppAD2ADINS2_IdEEEELin1ELi1ELi0ELin1ELi1EEaSEOS5_"
 "_ZN5Eigen5ArrayIN5CppAD2ADINS2_IdEEEELin1ELi1ELi0ELin1ELi1EEC2EOS5_"
 "_ZN5Eigen5ArrayIN5CppAD2ADINS2_IdEEEELin1ELi1ELi0ELin1ELi1EEC2ERKS5_"
 "_ZN5Eigen5ArrayIN5CppAD2ADINS2_IdEEEELin1ELi1ELi0ELin1ELi1EEC2Ev"
 "_ZN5Eigen5ArrayIN5CppAD2ADINS2_IdEEEELin1ELi1ELi0ELin1ELi1EEC2IiEERKT_"
 "_ZN5Eigen5ArrayIN5CppAD2ADINS2_IdEEEELin1ELi1ELi0ELin1ELi1EEC2INS_12CwiseUnaryOpINS_8internal14scalar_cast_opIdS4_EEKNS_3MapINS_6MatrixIdLin1ELi1ELi0ELin1ELi1EEELi0ENS_6StrideILi0ELi0EEEEEEEEERKT_"
 "_ZN5Eigen5ArrayIN5CppAD2ADINS2_IdEEEELin1ELi1ELi0ELin1ELi1EEC2IyEERKT_"
 "_ZN5Eigen5ArrayIN5CppAD2ADINS2_IdEEEELin1ELi1ELi0ELin1ELi1EED2Ev"
 "_ZN5Eigen5ArrayIN5CppAD2ADINS2_IdEEEELin1ELin1ELi0ELin1ELin1EEC1INS0_IS4_Lin1ELi1ELi0ELin1ELi1EEEEERKNS_9EigenBaseIT_EENS_8internal9enable_ifIXsrNSD_14is_convertibleINS9_6ScalarES4_EE5valueENS5_11PrivateTypeEE4typeE"
 "_ZN5Eigen5ArrayIN5CppAD2ADINS2_IdEEEELin1ELin1ELi0ELin1ELin1EED1Ev"
 "_ZN5Eigen5ArrayIN5CppAD2ADINS2_INS2_IdEEEEEELin1ELi1ELi0ELin1ELi1EEaSEOS6_"
 "_ZN5Eigen5ArrayIN5CppAD2ADINS2_INS2_IdEEEEEELin1ELi1ELi0ELin1ELi1EEC2EOS6_"
 "_ZN5Eigen5ArrayIN5CppAD2ADINS2_INS2_IdEEEEEELin1ELi1ELi0ELin1ELi1EEC2ERKS6_"
 "_ZN5Eigen5ArrayIN5CppAD2ADINS2_INS2_IdEEEEEELin1ELi1ELi0ELin1ELi1EEC2Ev"
 "_ZN5Eigen5ArrayIN5CppAD2ADINS2_INS2_IdEEEEEELin1ELi1ELi0ELin1ELi1EEC2IiEERKT_"
 "_ZN5Eigen5ArrayIN5CppAD2ADINS2_INS2_IdEEEEEELin1ELi1ELi0ELin1ELi1EEC2INS_12CwiseUnaryOpINS_8internal14scalar_cast_opIdS5_EEKNS_3MapINS_6MatrixIdLin1ELi1ELi0ELin1ELi1EEELi0ENS_6StrideILi0ELi0EEEEEEEEERKT_"
 "_ZN5Eigen5ArrayIN5CppAD2ADINS2_INS2_IdEEEEEELin1ELi1ELi0ELin1ELi1EED2Ev"
 "_ZN5Eigen5ArrayIN5CppAD2ADINS2_INS2_IdEEEEEELin1ELin1ELi0ELin1ELin1EEC1INS0_IS5_Lin1ELi1ELi0ELin1ELi1EEEEERKNS_9EigenBaseIT_EENS_8internal9enable_ifIXsrNSE_14is_convertibleINSA_6ScalarES5_EE5valueENS6_11PrivateTypeEE4typeE"
 "_ZN5Eigen5ArrayIN5CppAD2ADINS2_INS2_IdEEEEEELin1ELin1ELi0ELin1ELin1EED1Ev"
 "_ZN5Eigen5ArrayIN8tmbutils6matrixIdEELin1ELi1ELi0ELin1ELi1EEC2ERKS4_"
 "_ZN5Eigen5ArrayIN8tmbutils6matrixIdEELin1ELi1ELi0ELin1ELi1EEC2IiEERKT_"
 "_ZN5Eigen5ArrayIN8tmbutils6matrixIdEELin1ELi1ELi0ELin1ELi1EEC2INS_11VectorBlockIS4_Lin1EEEEERKT_"
 "_ZN5Eigen5ArrayIN8tmbutils6matrixIdEELin1ELi1ELi0ELin1ELi1EED2Ev"
 "_ZN5Eigen5ArrayIN8tmbutils6vectorIdEELin1ELi1ELi0ELin1ELi1EEC2IiEERKT_"
 "_ZN5Eigen5ArrayIN8tmbutils6vectorIdEELin1ELi1ELi0ELin1ELi1EED2Ev"
 "_ZN5Eigen5ArrayIN8tmbutils6vectorIiEELin1ELi1ELi0ELin1ELi1EEC2Ev"
 "_ZN5Eigen5ArrayIN8tmbutils6vectorIiEELin1ELi1ELi0ELin1ELi1EED2Ev"
 "_ZN5Eigen5ArrayIN8tmbutils6vectorIyEELin1ELi1ELi0ELin1ELi1EED2Ev"
 "_ZN5Eigen5ArrayINS_6MatrixIdLin1ELi1ELi0ELin1ELi1EEELin1ELi1ELi0ELin1ELi1EEC2IiEERKT_"
 "_ZN5Eigen5ArrayINS_6MatrixIdLin1ELi1ELi0ELin1ELi1EEELin1ELi1ELi0ELin1ELi1EED2Ev"
 "_ZN5Eigen5ArrayIP8sphess_tIN5CppAD5ADFunIdEEELin1ELi1ELi0ELin1ELi1EED2Ev"
 "_ZN5Eigen5ArrayIPKcLin1ELi1ELi0ELin1ELi1EEC2Ev"
 "_ZN5Eigen5ArrayIPKcLin1ELi1ELi0ELin1ELi1EED2Ev"
 "_ZN5Eigen5ArrayIPN5CppAD5ADFunIdEELin1ELi1ELi0ELin1ELi1EED2Ev"
 "_ZN5Eigen5ArrayIyLin1ELi1ELi0ELin1ELi1EEC2IiEERKT_"
 "_ZN5Eigen5ArrayIyLin1ELi1ELi0ELin1ELi1EED2Ev"
 "_ZN5Eigen5BlockIKNS_12CwiseUnaryOpINS_8internal13scalar_abs_opIdEEKNS_6MatrixIdLin1ELin1ELi0ELin1ELin1EEEEELin1ELi1ELb1EEC1ERS9_x"
 "_ZN5Eigen5BlockIKNS_14CwiseNullaryOpINS_8internal18scalar_identity_opIdEENS_6MatrixIdLin1ELin1ELi0ELin1ELin1EEEEELi1ELin1ELb0EEC1ERS8_x"
 "_ZN5Eigen5BlockIKNS_6MatrixIdLin1ELin1ELi0ELin1ELin1EEELi1ELin1ELb0EEC1ERKS4_"
 "_ZN5Eigen5BlockIKNS_6MatrixIdLin1ELin1ELi0ELin1ELin1EEELi1ELin1ELb0EEC1ERS3_x"
 "_ZN5Eigen5BlockIKNS_6MatrixIdLin1ELin1ELi0ELin1ELin1EEELin1ELi1ELb1EEC1ERKS4_"
 "_ZN5Eigen5BlockIKNS_6MatrixIdLin1ELin1ELi0ELin1ELin1EEELin1ELi1ELb1EEC1ERS3_x"
 "_ZN5Eigen5BlockIKNS_6MatrixIdLin1ELin1ELi0ELin1ELin1EEELin1ELin1ELb0EEC1ERS3_xxxx"
 "_ZN5Eigen5BlockIKNS0_INS0_INS_3MapINS_6MatrixIdLin1ELin1ELi0ELin1ELin1EEELi0ENS_6StrideILi0ELi0EEEEELin1ELin1ELb0EEELin1ELin1ELb0EEELi1ELin1ELb0EEC1ERKSA_"
 "_ZN5Eigen5BlockIKNS0_INS0_INS_3MapINS_6MatrixIdLin1ELin1ELi0ELin1ELin1EEELi0ENS_6StrideILi0ELi0EEEEELin1ELin1ELb0EEELin1ELin1ELb0EEELi1ELin1ELb0EEC1ERS9_x"
 "_ZN5Eigen5BlockIKNS0_INS0_INS_3MapINS_6MatrixIdLin1ELin1ELi0ELin1ELin1EEELi0ENS_6StrideILi0ELi0EEEEELin1ELin1ELb0EEELin1ELin1ELb0EEELin1ELi1ELb1EEC1ERKSA_"
 "_ZN5Eigen5BlockIKNS0_INS0_INS_3MapINS_6MatrixIdLin1ELin1ELi0ELin1ELin1EEELi0ENS_6StrideILi0ELi0EEEEELin1ELin1ELb0EEELin1ELin1ELb0EEELin1ELi1ELb1EEC1ERS9_x"
 "_ZN5Eigen5BlockINS_3MapINS_6MatrixIdLin1ELin1ELi0ELin1ELin1EEELi0ENS_6StrideILi0ELi0EEEEELin1ELin1ELb0EEC1ERKS7_"
 "_ZN5Eigen5BlockINS_3MapINS_6MatrixIdLin1ELin1ELi0ELin1ELin1EEELi0ENS_6StrideILi0ELi0EEEEELin1ELin1ELb0EEC1ERS6_xxxx"
 "_ZN5Eigen5BlockINS_5ArrayIdLin1ELi1ELi0ELin1ELi1EEELin1ELi1ELb0EEC2ERS2_xxxx"
 "_ZN5Eigen5BlockINS_5ArrayIN5CppAD2ADIdEELin1ELi1ELi0ELin1ELi1EEELin1ELi1ELb0EEC2ERS5_xxxx"
 "_ZN5Eigen5BlockINS_5ArrayIN5CppAD2ADINS3_IdEEEELin1ELi1ELi0ELin1ELi1EEELin1ELi1ELb0EEC2ERS6_xxxx"
 "_ZN5Eigen5BlockINS_5ArrayIN5CppAD2ADINS3_INS3_IdEEEEEELin1ELi1ELi0ELin1ELi1EEELin1ELi1ELb0EEC2ERS7_xxxx"
 "_ZN5Eigen5BlockINS_5ArrayIN8tmbutils6matrixIdEELin1ELi1ELi0ELin1ELi1EEELin1ELi1ELb0EEC2ERS5_xxxx"
 "_ZN5Eigen5BlockINS_6MatrixIdLin1ELin1ELi0ELin1ELin1EEELi1ELin1ELb0EEC1ERKS3_"
 "_ZN5Eigen5BlockINS_6MatrixIdLin1ELin1ELi0ELin1ELin1EEELi1ELin1ELb0EEC1ERS2_x"
 "_ZN5Eigen5BlockINS0_INS_3MapINS_6MatrixIdLin1ELin1ELi0ELin1ELin1EEELi0ENS_6StrideILi0ELi0EEEEELin1ELin1ELb0EEELi1ELin1ELb0EEC1ERKS8_"
 "_ZN5Eigen5BlockINS0_INS_3MapINS_6MatrixIdLin1ELin1ELi0ELin1ELin1EEELi0ENS_6StrideILi0ELi0EEEEELin1ELin1ELb0EEELi1ELin1ELb0EEC1ERS7_x"
 "_ZN5Eigen5BlockINS0_INS_3MapINS_6MatrixIdLin1ELin1ELi0ELin1ELin1EEELi0ENS_6StrideILi0ELi0EEEEELin1ELin1ELb0EEELin1ELi1ELb1EEC1ERKS8_"
 "_ZN5Eigen5BlockINS0_INS_3MapINS_6MatrixIdLin1ELin1ELi0ELin1ELin1EEELi0ENS_6StrideILi0ELi0EEEEELin1ELin1ELb0EEELin1ELi1ELb1EEC1ERS7_x"
 "_ZN5Eigen5BlockINS0_INS_3MapINS_6MatrixIdLin1ELin1ELi0ELin1ELin1EEELi0ENS_6StrideILi0ELi0EEEEELin1ELin1ELb0EEELin1ELin1ELb0EEC1ERKS8_"
 "_ZN5Eigen5BlockINS0_INS_3MapINS_6MatrixIdLin1ELin1ELi0ELin1ELin1EEELi0ENS_6StrideILi0ELi0EEEEELin1ELin1ELb0EEELin1ELin1ELb0EEC1ERS7_xxxx"
 "_ZN5Eigen5BlockINS0_INS0_INS_3MapINS_6MatrixIdLin1ELin1ELi0ELin1ELin1EEELi0ENS_6StrideILi0ELi0EEEEELin1ELin1ELb0EEELi1ELin1ELb0EEELi1ELin1ELb0EEC1ERKS9_"
 "_ZN5Eigen5BlockINS0_INS0_INS_3MapINS_6MatrixIdLin1ELin1ELi0ELin1ELin1EEELi0ENS_6StrideILi0ELi0EEEEELin1ELin1ELb0EEELi1ELin1ELb0EEELi1ELin1ELb0EEC2ERS8_xxxx"
 "_ZN5Eigen5BlockINS0_INS0_INS_3MapINS_6MatrixIdLin1ELin1ELi0ELin1ELin1EEELi0ENS_6StrideILi0ELi0EEEEELin1ELin1ELb0EEELin1ELi1ELb1EEELin1ELi1ELb0EEC1ERKS9_"
 "_ZN5Eigen5BlockINS0_INS0_INS_3MapINS_6MatrixIdLin1ELin1ELi0ELin1ELin1EEELi0ENS_6StrideILi0ELi0EEEEELin1ELin1ELb0EEELin1ELi1ELb1EEELin1ELi1ELb0EEC2ERS8_xxxx"
 "_ZN5Eigen5BlockINS0_INS0_INS_3MapINS_6MatrixIdLin1ELin1ELi0ELin1ELin1EEELi0ENS_6StrideILi0ELi0EEEEELin1ELin1ELb0EEELin1ELin1ELb0EEELi1ELin1ELb0EEC1ERS8_x"
 "_ZN5Eigen5BlockINS0_INS0_INS_3MapINS_6MatrixIdLin1ELin1ELi0ELin1ELin1EEELi0ENS_6StrideILi0ELi0EEEEELin1ELin1ELb0EEELin1ELin1ELb0EEELin1ELi1ELb1EEC1ERS8_x"
 "_ZN5Eigen5SolveINS_12PartialPivLUINS_6MatrixIdLin1ELin1ELi0ELin1ELin1EEEEENS_14CwiseNullaryOpINS_8internal18scalar_identity_opIdEES3_EEEC1ERKS4_RKS9_"
 "_ZN5Eigen6MatrixIbLin1ELi1ELi0ELin1ELi1EEaSINS_14CwiseNullaryOpINS_8internal18scalar_constant_opIbEES1_EEEERS1_RKNS_9DenseBaseIT_EE"
 "_ZN5Eigen6MatrixIbLin1ELi1ELi0ELin1ELi1EEC1IxEERKT_"
 "_ZN5Eigen6MatrixIbLin1ELi1ELi0ELin1ELi1EED1Ev"
 "_ZN5Eigen6MatrixIdLin1ELi1ELi0ELin1ELi1EEaSEOS1_"
 "_ZN5Eigen6MatrixIdLin1ELi1ELi0ELin1ELi1EEaSINS_13CwiseBinaryOpINS_8internal13scalar_sum_opIddEEKS1_S7_EEEERS1_RKNS_9DenseBaseIT_EE"
 "_ZN5Eigen6MatrixIdLin1ELi1ELi0ELin1ELi1EEC1Ev"
 "_ZN5Eigen6MatrixIdLin1ELi1ELi0ELin1ELi1EEC1IyEERKT_"
 "_ZN5Eigen6MatrixIdLin1ELi1ELi0ELin1ELi1EED1Ev"
 "_ZN5Eigen6MatrixIdLin1ELin1ELi0ELin1ELin1EEaSEOS1_"
 "_ZN5Eigen6MatrixIdLin1ELin1ELi0ELin1ELin1EEaSERKS1_"
 "_ZN5Eigen6MatrixIdLin1ELin1ELi0ELin1ELin1EEaSINS_12CwiseUnaryOpINS_8internal13scalar_abs_opIdEEKNS_12ArrayWrapperIS1_EEEEEERS1_RKNS_9DenseBaseIT_EE"
 "_ZN5Eigen6MatrixIdLin1ELin1ELi0ELin1ELin1EEaSINS_14CwiseNullaryOpINS_8internal18scalar_constant_opIdEES1_EEEERS1_RKNS_9DenseBaseIT_EE"
 "_ZN5Eigen6MatrixIdLin1ELin1ELi0ELin1ELin1EEaSINS_14CwiseNullaryOpINS_8internal18scalar_identity_opIdEES1_EEEERS1_RKNS_9DenseBaseIT_EE"
 "_ZN5Eigen6MatrixIdLin1ELin1ELi0ELin1ELin1EEaSINS_5SolveINS_12PartialPivLUIS1_EENS_14CwiseNullaryOpINS_8internal18scalar_identity_opIdEES1_EEEEEERS1_RKNS_9DenseBaseIT_EE"
 "_ZN5Eigen6MatrixIdLin1ELin1ELi0ELin1ELin1EEaSINS_7InverseINS_12PartialPivLUIS1_EEEEEERS1_RKNS_9DenseBaseIT_EE"
 "_ZN5Eigen6MatrixIdLin1ELin1ELi0ELin1ELin1EEaSINS_7ProductINS_17PermutationMatrixILin1ELin1EiEENS_14CwiseNullaryOpINS_8internal18scalar_identity_opIdEES1_EELi2EEEEERS1_RKNS_9DenseBaseIT_EE"
 "_ZN5Eigen6MatrixIdLin1ELin1ELi0ELin1ELin1EEC1ERKS1_"
 "_ZN5Eigen6MatrixIdLin1ELin1ELi0ELin1ELin1EEC1IxxEERKT_RKT0_"
 "_ZN5Eigen6MatrixIdLin1ELin1ELi0ELin1ELin1EEC2ERKS1_"
 "_ZN5Eigen6MatrixIdLin1ELin1ELi0ELin1ELin1EEC2Ev"
 "_ZN5Eigen6MatrixIdLin1ELin1ELi0ELin1ELin1EEC2IiiEERKT_RKT0_"
 "_ZN5Eigen6MatrixIdLin1ELin1ELi0ELin1ELin1EEC2INS_13CwiseBinaryOpINS_8internal13scalar_sum_opIddEEKS1_S7_EEEERKT_"
 "_ZN5Eigen6MatrixIdLin1ELin1ELi0ELin1ELin1EEC2INS_13CwiseBinaryOpINS_8internal17scalar_product_opIddEEKNS_14CwiseNullaryOpINS4_18scalar_constant_opIdEEKS1_EESA_EEEERKT_"
 "_ZN5Eigen6MatrixIdLin1ELin1ELi0ELin1ELin1EEC2INS_13CwiseBinaryOpINS_8internal17scalar_product_opIddEEKS1_KNS_14CwiseNullaryOpINS4_18scalar_constant_opIdEES7_EEEEEERKT_"
 "_ZN5Eigen6MatrixIdLin1ELin1ELi0ELin1ELin1EEC2INS_13MatrixWrapperIKNS_5ArrayIdLin1ELi1ELi0ELin1ELi1EEEEEEERKT_"
 "_ZN5Eigen6MatrixIdLin1ELin1ELi0ELin1ELin1EEC2INS_7InverseIS1_EEEERKT_"
 "_ZN5Eigen6MatrixIdLin1ELin1ELi0ELin1ELin1EEC2INS_7ProductIS1_S1_Li0EEEEERKT_"
 "_ZN5Eigen6MatrixIdLin1ELin1ELi0ELin1ELin1EEC2IxxEERKT_RKT0_"
 "_ZN5Eigen6MatrixIdLin1ELin1ELi0ELin1ELin1EED1Ev"
 "_ZN5Eigen6MatrixIdLin1ELin1ELi0ELin1ELin1EED2Ev"
 "_ZN5Eigen6MatrixIiLin1ELi1ELi0ELin1ELi1EEC1ERKS1_"
 "_ZN5Eigen6MatrixIiLin1ELi1ELi0ELin1ELi1EEC1IxEERKT_"
 "_ZN5Eigen6MatrixIiLin1ELi1ELi0ELin1ELi1EED1Ev"
 "_ZN5Eigen6MatrixIiLin1ELin1ELi0ELin1ELin1EEC2INS_13MatrixWrapperIKNS_5ArrayIiLin1ELi1ELi0ELin1ELi1EEEEEEERKT_"
 "_ZN5Eigen6MatrixIiLin1ELin1ELi0ELin1ELin1EED2Ev"
 "_ZN5Eigen6MatrixIN5CppAD2ADIdEELin1ELin1ELi0ELin1ELin1EEC2IiiEERKT_RKT0_"
 "_ZN5Eigen6MatrixIN5CppAD2ADIdEELin1ELin1ELi0ELin1ELin1EED2Ev"
 "_ZN5Eigen6MatrixIN5CppAD2ADINS2_IdEEEELin1ELin1ELi0ELin1ELin1EEC2IiiEERKT_RKT0_"
 "_ZN5Eigen6MatrixIN5CppAD2ADINS2_IdEEEELin1ELin1ELi0ELin1ELin1EED2Ev"
 "_ZN5Eigen6MatrixIN5CppAD2ADINS2_INS2_IdEEEEEELin1ELin1ELi0ELin1ELin1EEC2IiiEERKT_RKT0_"
 "_ZN5Eigen6MatrixIN5CppAD2ADINS2_INS2_IdEEEEEELin1ELin1ELi0ELin1ELin1EED2Ev"
 "_ZN5Eigen6numext8div_ceilIxEET_RKS2_S4_"
 "_ZN5Eigen6StrideILi0ELi0EEC1ERKS1_"
 "_ZN5Eigen6StrideILi0ELi0EEC1Ev"
 "_ZN5Eigen7InverseINS_12PartialPivLUINS_6MatrixIdLin1ELin1ELi0ELin1ELin1EEEEEEC1ERKS4_"
 "_ZN5Eigen7InverseINS_12PartialPivLUINS_6MatrixIdLin1ELin1ELi0ELin1ELin1EEEEEED1Ev"
 "_ZN5Eigen7InverseINS_6MatrixIdLin1ELin1ELi0ELin1ELin1EEEEC1ERKS2_"
 "_ZN5Eigen7MapBaseINS_3MapINS_6MatrixIdLin1ELi1ELi0ELin1ELi1EEELi0ENS_6StrideILi0ELi0EEEEELi0EEC2EPdx"
 "_ZN5Eigen7MapBaseINS_3MapINS_6MatrixIdLin1ELi1ELi0ELin1ELi1EEELi0ENS_6StrideILi0ELi0EEEEELi0EEC2ERKS7_"
 "_ZN5Eigen7MapBaseINS_3MapINS_6MatrixIdLin1ELi1ELi0ELin1ELi1EEELi0ENS_6StrideILi0ELi0EEEEELi1EEC2EPdx"
 "_ZN5Eigen7MapBaseINS_3MapINS_6MatrixIdLin1ELi1ELi0ELin1ELi1EEELi0ENS_6StrideILi0ELi0EEEEELi1EEC2ERKS7_"
 "_ZN5Eigen7MapBaseINS_3MapINS_6MatrixIdLin1ELin1ELi0ELin1ELin1EEELi0ENS_6StrideILi0ELi0EEEEELi0EEC2EPdxx"
 "_ZN5Eigen7MapBaseINS_3MapINS_6MatrixIdLin1ELin1ELi0ELin1ELin1EEELi0ENS_6StrideILi0ELi0EEEEELi1EE4dataEv"
 "_ZN5Eigen7MapBaseINS_3MapINS_6MatrixIdLin1ELin1ELi0ELin1ELin1EEELi0ENS_6StrideILi0ELi0EEEEELi1EEC2EPdxx"
 "_ZN5Eigen7MapBaseINS_5BlockIKNS_6MatrixIdLin1ELin1ELi0ELin1ELin1EEELi1ELin1ELb0EEELi0EEC2EPKdxx"
 "_ZN5Eigen7MapBaseINS_5BlockIKNS_6MatrixIdLin1ELin1ELi0ELin1ELin1EEELi1ELin1ELb0EEELi0EEC2ERKS6_"
 "_ZN5Eigen7MapBaseINS_5BlockIKNS_6MatrixIdLin1ELin1ELi0ELin1ELin1EEELin1ELi1ELb1EEELi0EEC2EPKdxx"
 "_ZN5Eigen7MapBaseINS_5BlockIKNS_6MatrixIdLin1ELin1ELi0ELin1ELin1EEELin1ELi1ELb1EEELi0EEC2ERKS6_"
 "_ZN5Eigen7MapBaseINS_5BlockIKNS_6MatrixIdLin1ELin1ELi0ELin1ELin1EEELin1ELin1ELb0EEELi0EEC2EPKdxx"
 "_ZN5Eigen7MapBaseINS_5BlockIKNS1_INS1_INS_3MapINS_6MatrixIdLin1ELin1ELi0ELin1ELin1EEELi0ENS_6StrideILi0ELi0EEEEELin1ELin1ELb0EEELin1ELin1ELb0EEELi1ELin1ELb0EEELi0EEC2EPKdxx"
 "_ZN5Eigen7MapBaseINS_5BlockIKNS1_INS1_INS_3MapINS_6MatrixIdLin1ELin1ELi0ELin1ELin1EEELi0ENS_6StrideILi0ELi0EEEEELin1ELin1ELb0EEELin1ELin1ELb0EEELi1ELin1ELb0EEELi0EEC2ERKSC_"
 "_ZN5Eigen7MapBaseINS_5BlockIKNS1_INS1_INS_3MapINS_6MatrixIdLin1ELin1ELi0ELin1ELin1EEELi0ENS_6StrideILi0ELi0EEEEELin1ELin1ELb0EEELin1ELin1ELb0EEELin1ELi1ELb1EEELi0EEC2EPKdxx"
 "_ZN5Eigen7MapBaseINS_5BlockIKNS1_INS1_INS_3MapINS_6MatrixIdLin1ELin1ELi0ELin1ELin1EEELi0ENS_6StrideILi0ELi0EEEEELin1ELin1ELb0EEELin1ELin1ELb0EEELin1ELi1ELb1EEELi0EEC2ERKSC_"
 "_ZN5Eigen7MapBaseINS_5BlockINS_3MapINS_6MatrixIdLin1ELin1ELi0ELin1ELin1EEELi0ENS_6StrideILi0ELi0EEEEELin1ELin1ELb0EEELi0EEC2EPdxx"
 "_ZN5Eigen7MapBaseINS_5BlockINS_3MapINS_6MatrixIdLin1ELin1ELi0ELin1ELin1EEELi0ENS_6StrideILi0ELi0EEEEELin1ELin1ELb0EEELi1EE4dataEv"
 "_ZN5Eigen7MapBaseINS_5BlockINS_3MapINS_6MatrixIdLin1ELin1ELi0ELin1ELin1EEELi0ENS_6StrideILi0ELi0EEEEELin1ELin1ELb0EEELi1EE8coeffRefExx"
 "_ZN5Eigen7MapBaseINS_5BlockINS_3MapINS_6MatrixIdLin1ELin1ELi0ELin1ELin1EEELi0ENS_6StrideILi0ELi0EEEEELin1ELin1ELb0EEELi1EEC2EPdxx"
 "_ZN5Eigen7MapBaseINS_5BlockINS_5ArrayIdLin1ELi1ELi0ELin1ELi1EEELin1ELi1ELb0EEELi0EEC2EPdxx"
 "_ZN5Eigen7MapBaseINS_5BlockINS_5ArrayIdLin1ELi1ELi0ELin1ELi1EEELin1ELi1ELb0EEELi1EE4dataEv"
 "_ZN5Eigen7MapBaseINS_5BlockINS_5ArrayIdLin1ELi1ELi0ELin1ELi1EEELin1ELi1ELb0EEELi1EEC2EPdxx"
 "_ZN5Eigen7MapBaseINS_5BlockINS_5ArrayIN5CppAD2ADIdEELin1ELi1ELi0ELin1ELi1EEELin1ELi1ELb0EEELi0EEC2EPS5_xx"
 "_ZN5Eigen7MapBaseINS_5BlockINS_5ArrayIN5CppAD2ADIdEELin1ELi1ELi0ELin1ELi1EEELin1ELi1ELb0EEELi1EEC2EPS5_xx"
 "_ZN5Eigen7MapBaseINS_5BlockINS_5ArrayIN5CppAD2ADINS4_IdEEEELin1ELi1ELi0ELin1ELi1EEELin1ELi1ELb0EEELi0EEC2EPS6_xx"
 "_ZN5Eigen7MapBaseINS_5BlockINS_5ArrayIN5CppAD2ADINS4_IdEEEELin1ELi1ELi0ELin1ELi1EEELin1ELi1ELb0EEELi1EEC2EPS6_xx"
 "_ZN5Eigen7MapBaseINS_5BlockINS_5ArrayIN5CppAD2ADINS4_INS4_IdEEEEEELin1ELi1ELi0ELin1ELi1EEELin1ELi1ELb0EEELi0EEC2EPS7_xx"
 "_ZN5Eigen7MapBaseINS_5BlockINS_5ArrayIN5CppAD2ADINS4_INS4_IdEEEEEELin1ELi1ELi0ELin1ELi1EEELin1ELi1ELb0EEELi1EEC2EPS7_xx"
 "_ZN5Eigen7MapBaseINS_5BlockINS_5ArrayIN8tmbutils6matrixIdEELin1ELi1ELi0ELin1ELi1EEELin1ELi1ELb0EEELi0EEC2EPS5_xx"
 "_ZN5Eigen7MapBaseINS_5BlockINS_5ArrayIN8tmbutils6matrixIdEELin1ELi1ELi0ELin1ELi1EEELin1ELi1ELb0EEELi1EEC2EPS5_xx"
 "_ZN5Eigen7MapBaseINS_5BlockINS_6MatrixIdLin1ELin1ELi0ELin1ELin1EEELi1ELin1ELb0EEELi0EEC2EPdxx"
 "_ZN5Eigen7MapBaseINS_5BlockINS_6MatrixIdLin1ELin1ELi0ELin1ELin1EEELi1ELin1ELb0EEELi0EEC2ERKS5_"
 "_ZN5Eigen7MapBaseINS_5BlockINS_6MatrixIdLin1ELin1ELi0ELin1ELin1EEELi1ELin1ELb0EEELi1EEC2EPdxx"
 "_ZN5Eigen7MapBaseINS_5BlockINS_6MatrixIdLin1ELin1ELi0ELin1ELin1EEELi1ELin1ELb0EEELi1EEC2ERKS5_"
 "_ZN5Eigen7MapBaseINS_5BlockINS1_INS_3MapINS_6MatrixIdLin1ELin1ELi0ELin1ELin1EEELi0ENS_6StrideILi0ELi0EEEEELin1ELin1ELb0EEELi1ELin1ELb0EEELi0EEC2EPdxx"
 "_ZN5Eigen7MapBaseINS_5BlockINS1_INS_3MapINS_6MatrixIdLin1ELin1ELi0ELin1ELin1EEELi0ENS_6StrideILi0ELi0EEEEELin1ELin1ELb0EEELi1ELin1ELb0EEELi0EEC2ERKSA_"
 "_ZN5Eigen7MapBaseINS_5BlockINS1_INS_3MapINS_6MatrixIdLin1ELin1ELi0ELin1ELin1EEELi0ENS_6StrideILi0ELi0EEEEELin1ELin1ELb0EEELi1ELin1ELb0EEELi1EE4dataEv"
 "_ZN5Eigen7MapBaseINS_5BlockINS1_INS_3MapINS_6MatrixIdLin1ELin1ELi0ELin1ELin1EEELi0ENS_6StrideILi0ELi0EEEEELin1ELin1ELb0EEELi1ELin1ELb0EEELi1EEC2EPdxx"
 "_ZN5Eigen7MapBaseINS_5BlockINS1_INS_3MapINS_6MatrixIdLin1ELin1ELi0ELin1ELin1EEELi0ENS_6StrideILi0ELi0EEEEELin1ELin1ELb0EEELi1ELin1ELb0EEELi1EEC2ERKSA_"
 "_ZN5Eigen7MapBaseINS_5BlockINS1_INS_3MapINS_6MatrixIdLin1ELin1ELi0ELin1ELin1EEELi0ENS_6StrideILi0ELi0EEEEELin1ELin1ELb0EEELin1ELi1ELb1EEELi0EEC2EPdxx"
 "_ZN5Eigen7MapBaseINS_5BlockINS1_INS_3MapINS_6MatrixIdLin1ELin1ELi0ELin1ELin1EEELi0ENS_6StrideILi0ELi0EEEEELin1ELin1ELb0EEELin1ELi1ELb1EEELi0EEC2ERKSA_"
 "_ZN5Eigen7MapBaseINS_5BlockINS1_INS_3MapINS_6MatrixIdLin1ELin1ELi0ELin1ELin1EEELi0ENS_6StrideILi0ELi0EEEEELin1ELin1ELb0EEELin1ELi1ELb1EEELi1EE4dataEv"
 "_ZN5Eigen7MapBaseINS_5BlockINS1_INS_3MapINS_6MatrixIdLin1ELin1ELi0ELin1ELin1EEELi0ENS_6StrideILi0ELi0EEEEELin1ELin1ELb0EEELin1ELi1ELb1EEELi1EEC2EPdxx"
 "_ZN5Eigen7MapBaseINS_5BlockINS1_INS_3MapINS_6MatrixIdLin1ELin1ELi0ELin1ELin1EEELi0ENS_6StrideILi0ELi0EEEEELin1ELin1ELb0EEELin1ELi1ELb1EEELi1EEC2ERKSA_"
 "_ZN5Eigen7MapBaseINS_5BlockINS1_INS_3MapINS_6MatrixIdLin1ELin1ELi0ELin1ELin1EEELi0ENS_6StrideILi0ELi0EEEEELin1ELin1ELb0EEELin1ELin1ELb0EEELi0EEC2EPdxx"
 "_ZN5Eigen7MapBaseINS_5BlockINS1_INS_3MapINS_6MatrixIdLin1ELin1ELi0ELin1ELin1EEELi0ENS_6StrideILi0ELi0EEEEELin1ELin1ELb0EEELin1ELin1ELb0EEELi1EE4dataEv"
 "_ZN5Eigen7MapBaseINS_5BlockINS1_INS_3MapINS_6MatrixIdLin1ELin1ELi0ELin1ELin1EEELi0ENS_6StrideILi0ELi0EEEEELin1ELin1ELb0EEELin1ELin1ELb0EEELi1EE8coeffRefExx"
 "_ZN5Eigen7MapBaseINS_5BlockINS1_INS_3MapINS_6MatrixIdLin1ELin1ELi0ELin1ELin1EEELi0ENS_6StrideILi0ELi0EEEEELin1ELin1ELb0EEELin1ELin1ELb0EEELi1EEC2EPdxx"
 "_ZN5Eigen7MapBaseINS_5BlockINS1_INS1_INS_3MapINS_6MatrixIdLin1ELin1ELi0ELin1ELin1EEELi0ENS_6StrideILi0ELi0EEEEELin1ELin1ELb0EEELi1ELin1ELb0EEELi1ELin1ELb0EEELi0EEC2EPdxx"
 "_ZN5Eigen7MapBaseINS_5BlockINS1_INS1_INS_3MapINS_6MatrixIdLin1ELin1ELi0ELin1ELin1EEELi0ENS_6StrideILi0ELi0EEEEELin1ELin1ELb0EEELi1ELin1ELb0EEELi1ELin1ELb0EEELi0EEC2ERKSB_"
 "_ZN5Eigen7MapBaseINS_5BlockINS1_INS1_INS_3MapINS_6MatrixIdLin1ELin1ELi0ELin1ELin1EEELi0ENS_6StrideILi0ELi0EEEEELin1ELin1ELb0EEELi1ELin1ELb0EEELi1ELin1ELb0EEELi1EEC2EPdxx"
 "_ZN5Eigen7MapBaseINS_5BlockINS1_INS1_INS_3MapINS_6MatrixIdLin1ELin1ELi0ELin1ELin1EEELi0ENS_6StrideILi0ELi0EEEEELin1ELin1ELb0EEELi1ELin1ELb0EEELi1ELin1ELb0EEELi1EEC2ERKSB_"
 "_ZN5Eigen7MapBaseINS_5BlockINS1_INS1_INS_3MapINS_6MatrixIdLin1ELin1ELi0ELin1ELin1EEELi0ENS_6StrideILi0ELi0EEEEELin1ELin1ELb0EEELin1ELi1ELb1EEELin1ELi1ELb0EEELi0EEC2EPdxx"
 "_ZN5Eigen7MapBaseINS_5BlockINS1_INS1_INS_3MapINS_6MatrixIdLin1ELin1ELi0ELin1ELin1EEELi0ENS_6StrideILi0ELi0EEEEELin1ELin1ELb0EEELin1ELi1ELb1EEELin1ELi1ELb0EEELi0EEC2ERKSB_"
 "_ZN5Eigen7MapBaseINS_5BlockINS1_INS1_INS_3MapINS_6MatrixIdLin1ELin1ELi0ELin1ELin1EEELi0ENS_6StrideILi0ELi0EEEEELin1ELin1ELb0EEELin1ELi1ELb1EEELin1ELi1ELb0EEELi1EE4dataEv"
 "_ZN5Eigen7MapBaseINS_5BlockINS1_INS1_INS_3MapINS_6MatrixIdLin1ELin1ELi0ELin1ELin1EEELi0ENS_6StrideILi0ELi0EEEEELin1ELin1ELb0EEELin1ELi1ELb1EEELin1ELi1ELb0EEELi1EEC2EPdxx"
 "_ZN5Eigen7MapBaseINS_5BlockINS1_INS1_INS_3MapINS_6MatrixIdLin1ELin1ELi0ELin1ELin1EEELi0ENS_6StrideILi0ELi0EEEEELin1ELin1ELb0EEELin1ELi1ELb1EEELin1ELi1ELb0EEELi1EEC2ERKSB_"
 "_ZN5Eigen7MapBaseINS_5BlockINS1_INS1_INS_3MapINS_6MatrixIdLin1ELin1ELi0ELin1ELin1EEELi0ENS_6StrideILi0ELi0EEEEELin1ELin1ELb0EEELin1ELin1ELb0EEELi1ELin1ELb0EEELi0EEC2EPdxx"
 "_ZN5Eigen7MapBaseINS_5BlockINS1_INS1_INS_3MapINS_6MatrixIdLin1ELin1ELi0ELin1ELin1EEELi0ENS_6StrideILi0ELi0EEEEELin1ELin1ELb0EEELin1ELin1ELb0EEELi1ELin1ELb0EEELi1EEC2EPdxx"
 "_ZN5Eigen7MapBaseINS_5BlockINS1_INS1_INS_3MapINS_6MatrixIdLin1ELin1ELi0ELin1ELin1EEELi0ENS_6StrideILi0ELi0EEEEELin1ELin1ELb0EEELin1ELin1ELb0EEELin1ELi1ELb1EEELi0EEC2EPdxx"
 "_ZN5Eigen7MapBaseINS_5BlockINS1_INS1_INS_3MapINS_6MatrixIdLin1ELin1ELi0ELin1ELin1EEELi0ENS_6StrideILi0ELi0EEEEELin1ELin1ELb0EEELin1ELin1ELb0EEELin1ELi1ELb1EEELi1EE4dataEv"
 "_ZN5Eigen7MapBaseINS_5BlockINS1_INS1_INS_3MapINS_6MatrixIdLin1ELin1ELi0ELin1ELin1EEELi0ENS_6StrideILi0ELi0EEEEELin1ELin1ELb0EEELin1ELin1ELb0EEELin1ELi1ELb1EEELi1EEC2EPdxx"
 "_ZN5Eigen7NoAliasINS_5BlockINS1_INS_3MapINS_6MatrixIdLin1ELin1ELi0ELin1ELin1EEELi0ENS_6StrideILi0ELi0EEEEELin1ELin1ELb0EEELin1ELin1ELb0EEENS_10MatrixBaseEEC1ERS9_"
 "_ZN5Eigen7NoAliasINS_5BlockINS1_INS_3MapINS_6MatrixIdLin1ELin1ELi0ELin1ELin1EEELi0ENS_6StrideILi0ELi0EEEEELin1ELin1ELb0EEELin1ELin1ELb0EEENS_10MatrixBaseEEmIINS_7ProductINS1_INS1_IS8_Lin1ELi1ELb1EEELin1ELi1ELb0EEENS1_INS1_IS8_Li1ELin1ELb0EEELi1ELin1ELb0EEELi0EEEEERS9_RKNSA_IT_EE"
 "_ZN5Eigen7NoAliasINS_5BlockINS1_INS_3MapINS_6MatrixIdLin1ELin1ELi0ELin1ELin1EEELi0ENS_6StrideILi0ELi0EEEEELin1ELin1ELb0EEELin1ELin1ELb0EEENS_10MatrixBaseEEmIINS_7ProductIS9_S9_Li0EEEEERS9_RKNSA_IT_EE"
 "_ZN5Eigen7ProductINS_17PermutationMatrixILin1ELin1EiEENS_14CwiseNullaryOpINS_8internal18scalar_identity_opIdEENS_6MatrixIdLin1ELin1ELi0ELin1ELin1EEEEELi2EEC1ERKS2_RKS9_"
 "_ZN5Eigen7ProductINS_5BlockINS1_INS_3MapINS_6MatrixIdLin1ELin1ELi0ELin1ELin1EEELi0ENS_6StrideILi0ELi0EEEEELin1ELin1ELb0EEELin1ELin1ELb0EEES9_Li0EEC1ERKS9_SC_"
 "_ZN5Eigen7ProductINS_5BlockINS1_INS_3MapINS_6MatrixIdLin1ELin1ELi0ELin1ELin1EEELi0ENS_6StrideILi0ELi0EEEEELin1ELin1ELb0EEELin1ELin1ELb0EEES9_Li1EEC1ERKS9_SC_"
 "_ZN5Eigen7ProductINS_5BlockINS1_INS1_INS_3MapINS_6MatrixIdLin1ELin1ELi0ELin1ELin1EEELi0ENS_6StrideILi0ELi0EEEEELin1ELin1ELb0EEELin1ELi1ELb1EEELin1ELi1ELb0EEENS1_INS1_IS8_Li1ELin1ELb0EEELi1ELin1ELb0EEELi0EEC1ERKSA_RKSC_"
 "_ZN5Eigen7ProductINS_6MatrixIdLin1ELin1ELi0ELin1ELin1EEES2_Li0EEC1ERKS2_S5_"
 "_ZN5Eigen7ProductINS_6MatrixIdLin1ELin1ELi0ELin1ELin1EEES2_Li1EEC1ERKS2_S5_"
 "_ZN5Eigen8internal10AssignmentINS_5ArrayIdLin1ELi1ELi0ELin1ELi1EEENS_13CwiseBinaryOpINS0_13scalar_sum_opIddEEKS3_S7_EENS0_9assign_opIddEENS0_11Dense2DenseEvE3runERS3_RKS8_RKSA_"
 "_ZN5Eigen8internal10AssignmentINS_5ArrayIdLin1ELi1ELi0ELin1ELi1EEENS_14CwiseNullaryOpINS0_18scalar_constant_opIdEES3_EENS0_9assign_opIddEENS0_11Dense2DenseEvE3runERS3_RKS7_RKS9_"
 "_ZN5Eigen8internal10AssignmentINS_5ArrayIdLin1ELi1ELi0ELin1ELi1EEENS_16PartialReduxExprINS_6MatrixIdLin1ELin1ELi0ELin1ELin1EEENS0_10member_sumIdEELi1EEENS0_9assign_opIddEENS0_11Dense2DenseEvE3runERS3_RKS9_RKSB_"
 "_ZN5Eigen8internal10AssignmentINS_5ArrayIdLin1ELi1ELi0ELin1ELi1EEENS_3MapINS_6MatrixIdLin1ELi1ELi0ELin1ELi1EEELi0ENS_6StrideILi0ELi0EEEEENS0_9assign_opIddEENS0_11Dense2DenseEvE3runERS3_RKS9_RKSB_"
 "_ZN5Eigen8internal10AssignmentINS_5ArrayIdLin1ELi1ELi0ELin1ELi1EEES3_NS0_9assign_opIddEENS0_11Dense2DenseEvE3runERS3_RKS3_RKS5_"
 "_ZN5Eigen8internal10AssignmentINS_5ArrayIdLin1ELin1ELi0ELin1ELin1EEENS2_IdLin1ELi1ELi0ELin1ELi1EEENS0_9assign_opIddEENS0_11Dense2DenseEvE3runERS3_RKS4_RKS6_"
 "_ZN5Eigen8internal10AssignmentINS_5ArrayIiLin1ELi1ELi0ELin1ELi1EEENS_12CwiseUnaryOpINS0_14scalar_cast_opIbiEEKNS2_IbLin1ELi1ELi0ELin1ELi1EEEEENS0_9assign_opIiiEENS0_11Dense2DenseEvE3runERS3_RKS9_RKSB_"
 "_ZN5Eigen8internal10AssignmentINS_5ArrayIiLin1ELi1ELi0ELin1ELi1EEENS_12CwiseUnaryOpINS0_14scalar_cast_opIdiEEKNS_3MapINS_6MatrixIdLin1ELi1ELi0ELin1ELi1EEELi0ENS_6StrideILi0ELi0EEEEEEENS0_9assign_opIiiEENS0_11Dense2DenseEvE3runERS3_RKSE_RKSG_"
 "_ZN5Eigen8internal10AssignmentINS_5ArrayIiLin1ELi1ELi0ELin1ELi1EEES3_NS0_9assign_opIiiEENS0_11Dense2DenseEvE3runERS3_RKS3_RKS5_"
 "_ZN5Eigen8internal10AssignmentINS_5ArrayIN5CppAD2ADIdEELin1ELi1ELi0ELin1ELi1EEENS_12CwiseUnaryOpINS0_14scalar_cast_opIdS5_EEKNS_3MapINS_6MatrixIdLin1ELi1ELi0ELin1ELi1EEELi0ENS_6StrideILi0ELi0EEEEEEENS0_9assign_opIS5_S5_EENS0_11Dense2DenseEvE3runERS6_RKSH_RKSJ_"
 "_ZN5Eigen8internal10AssignmentINS_5ArrayIN5CppAD2ADIdEELin1ELin1ELi0ELin1ELin1EEENS2_IS5_Lin1ELi1ELi0ELin1ELi1EEENS0_9assign_opIS5_S5_EENS0_11Dense2DenseEvE3runERS6_RKS7_RKS9_"
 "_ZN5Eigen8internal10AssignmentINS_5ArrayIN5CppAD2ADINS4_IdEEEELin1ELi1ELi0ELin1ELi1EEENS_12CwiseUnaryOpINS0_14scalar_cast_opIdS6_EEKNS_3MapINS_6MatrixIdLin1ELi1ELi0ELin1ELi1EEELi0ENS_6StrideILi0ELi0EEEEEEENS0_9assign_opIS6_S6_EENS0_11Dense2DenseEvE3runERS7_RKSI_RKSK_"
 "_ZN5Eigen8internal10AssignmentINS_5ArrayIN5CppAD2ADINS4_IdEEEELin1ELin1ELi0ELin1ELin1EEENS2_IS6_Lin1ELi1ELi0ELin1ELi1EEENS0_9assign_opIS6_S6_EENS0_11Dense2DenseEvE3runERS7_RKS8_RKSA_"
 "_ZN5Eigen8internal10AssignmentINS_5ArrayIN5CppAD2ADINS4_INS4_IdEEEEEELin1ELi1ELi0ELin1ELi1EEENS_12CwiseUnaryOpINS0_14scalar_cast_opIdS7_EEKNS_3MapINS_6MatrixIdLin1ELi1ELi0ELin1ELi1EEELi0ENS_6StrideILi0ELi0EEEEEEENS0_9assign_opIS7_S7_EENS0_11Dense2DenseEvE3runERS8_RKSJ_RKSL_"
 "_ZN5Eigen8internal10AssignmentINS_5ArrayIN5CppAD2ADINS4_INS4_IdEEEEEELin1ELin1ELi0ELin1ELin1EEENS2_IS7_Lin1ELi1ELi0ELin1ELi1EEENS0_9assign_opIS7_S7_EENS0_11Dense2DenseEvE3runERS8_RKS9_RKSB_"
 "_ZN5Eigen8internal10AssignmentINS_5ArrayIN8tmbutils6matrixIdEELin1ELi1ELi0ELin1ELi1EEENS_5BlockIS6_Lin1ELi1ELb0EEENS0_9assign_opIS5_S5_EENS0_11Dense2DenseEvE3runERS6_RKS8_RKSA_"
 "_ZN5Eigen8internal10AssignmentINS_5BlockINS_5ArrayIdLin1ELi1ELi0ELin1ELi1EEELin1ELi1ELb0EEENS3_IdLin1ELin1ELi0ELin1ELin1EEENS0_9assign_opIddEENS0_11Dense2DenseEvE3runERS5_RKS6_RKS8_"
 "_ZN5Eigen8internal10AssignmentINS_5BlockINS_5ArrayIN5CppAD2ADIdEELin1ELi1ELi0ELin1ELi1EEELin1ELi1ELb0EEENS3_IS6_Lin1ELin1ELi0ELin1ELin1EEENS0_9assign_opIS6_S6_EENS0_11Dense2DenseEvE3runERS8_RKS9_RKSB_"
 "_ZN5Eigen8internal10AssignmentINS_5BlockINS_5ArrayIN5CppAD2ADINS5_IdEEEELin1ELi1ELi0ELin1ELi1EEELin1ELi1ELb0EEENS3_IS7_Lin1ELin1ELi0ELin1ELin1EEENS0_9assign_opIS7_S7_EENS0_11Dense2DenseEvE3runERS9_RKSA_RKSC_"
 "_ZN5Eigen8internal10AssignmentINS_5BlockINS_5ArrayIN5CppAD2ADINS5_INS5_IdEEEEEELin1ELi1ELi0ELin1ELi1EEELin1ELi1ELb0EEENS3_IS8_Lin1ELin1ELi0ELin1ELin1EEENS0_9assign_opIS8_S8_EENS0_11Dense2DenseEvE3runERSA_RKSB_RKSD_"
 "_ZN5Eigen8internal10AssignmentINS_5BlockINS_6MatrixIdLin1ELin1ELi0ELin1ELin1EEELi1ELin1ELb0EEENS2_IKNS_14CwiseNullaryOpINS0_18scalar_identity_opIdEES4_EELi1ELin1ELb0EEENS0_9assign_opIddEENS0_11Dense2DenseEvE3runERS5_RKSB_RKSD_"
 "_ZN5Eigen8internal10AssignmentINS_5BlockINS_6MatrixIdLin1ELin1ELi0ELin1ELin1EEELi1ELin1ELb0EEES5_NS0_14swap_assign_opIdEENS0_11Dense2DenseEvE3runERS5_RKS5_RKS7_"
 "_ZN5Eigen8internal10AssignmentINS_5BlockINS2_INS_3MapINS_6MatrixIdLin1ELin1ELi0ELin1ELin1EEELi0ENS_6StrideILi0ELi0EEEEELin1ELin1ELb0EEELi1ELin1ELb0EEESA_NS0_14swap_assign_opIdEENS0_11Dense2DenseEvE3runERSA_RKSA_RKSC_"
 "_ZN5Eigen8internal10AssignmentINS_5BlockINS2_INS_3MapINS_6MatrixIdLin1ELin1ELi0ELin1ELin1EEELi0ENS_6StrideILi0ELi0EEEEELin1ELin1ELb0EEELin1ELin1ELb0EEENS_7ProductINS2_INS2_IS9_Lin1ELi1ELb1EEELin1ELi1ELb0EEENS2_INS2_IS9_Li1ELin1ELb0EEELi1ELin1ELb0EEELi0EEENS0_13sub_assign_opIddEENS0_11Dense2DenseEvE3runERSA_RKSG_RKSI_"
 "_ZN5Eigen8internal10AssignmentINS_5BlockINS2_INS_3MapINS_6MatrixIdLin1ELin1ELi0ELin1ELin1EEELi0ENS_6StrideILi0ELi0EEEEELin1ELin1ELb0EEELin1ELin1ELb0EEENS_7ProductISA_SA_Li0EEENS0_13sub_assign_opIddEENS0_11Dense2DenseEvE3runERSA_RKSC_RKSE_"
 "_ZN5Eigen8internal10AssignmentINS_5BlockINS2_INS_3MapINS_6MatrixIdLin1ELin1ELi0ELin1ELin1EEELi0ENS_6StrideILi0ELi0EEEEELin1ELin1ELb0EEELin1ELin1ELb0EEENS_7ProductISA_SA_Li1EEENS0_13sub_assign_opIddEENS0_11Dense2DenseEvE3runERSA_RKSC_RKSE_"
 "_ZN5Eigen8internal10AssignmentINS_5BlockINS2_INS2_INS_3MapINS_6MatrixIdLin1ELin1ELi0ELin1ELin1EEELi0ENS_6StrideILi0ELi0EEEEELin1ELin1ELb0EEELin1ELi1ELb1EEELin1ELi1ELb0EEENS_14CwiseNullaryOpINS0_18scalar_constant_opIdEENS4_IdLin1ELi1ELi0ELin1ELi1EEEEENS0_13div_assign_opIddEENS0_11Dense2DenseEvE3runERSB_RKSG_RKSI_"
 "_ZN5Eigen8internal10AssignmentINS_5BlockINS2_INS2_INS_3MapINS_6MatrixIdLin1ELin1ELi0ELin1ELin1EEELi0ENS_6StrideILi0ELi0EEEEELin1ELin1ELb0EEELin1ELin1ELb0EEELi1ELin1ELb0EEESB_NS0_14swap_assign_opIdEENS0_11Dense2DenseEvE3runERSB_RKSB_RKSD_"
 "_ZN5Eigen8internal10AssignmentINS_5BlockINS2_INS2_INS_3MapINS_6MatrixIdLin1ELin1ELi0ELin1ELin1EEELi0ENS_6StrideILi0ELi0EEEEELin1ELin1ELb0EEELin1ELin1ELb0EEELin1ELi1ELb1EEENS_13CwiseBinaryOpINS0_17scalar_product_opIddEEKNS_14CwiseNullaryOpINS0_18scalar_constant_opIdEEKNS4_IdLin1ELi1ELi0ELin1ELi1EEEEEKNS2_INS2_IS9_Lin1ELi1ELb1EEELin1ELi1ELb0EEEEENS0_13sub_assign_opIddEENS0_11Dense2DenseEvE3runERSB_RKSP_RKSR_"
 "_ZN5Eigen8internal10AssignmentINS_6MatrixIbLin1ELi1ELi0ELin1ELi1EEENS_14CwiseNullaryOpINS0_18scalar_constant_opIbEES3_EENS0_9assign_opIbbEENS0_11Dense2DenseEvE3runERS3_RKS7_RKS9_"
 "_ZN5Eigen8internal10AssignmentINS_6MatrixIdLin1ELi1ELi0ELin1ELi1EEENS_13CwiseBinaryOpINS0_13scalar_sum_opIddEEKS3_S7_EENS0_9assign_opIddEENS0_11Dense2DenseEvE3runERS3_RKS8_RKSA_"
 "_ZN5Eigen8internal10AssignmentINS_6MatrixIdLin1ELin1ELi0ELin1ELin1EEENS_12CwiseUnaryOpINS0_13scalar_abs_opIdEEKNS_12ArrayWrapperIS3_EEEENS0_9assign_opIddEENS0_11Dense2DenseEvE3runERS3_RKSA_RKSC_"
 "_ZN5Eigen8internal10AssignmentINS_6MatrixIdLin1ELin1ELi0ELin1ELin1EEENS_13CwiseBinaryOpINS0_13scalar_sum_opIddEEKS3_S7_EENS0_9assign_opIddEENS0_11Dense2DenseEvE3runERS3_RKS8_RKSA_"
 "_ZN5Eigen8internal10AssignmentINS_6MatrixIdLin1ELin1ELi0ELin1ELin1EEENS_13CwiseBinaryOpINS0_17scalar_product_opIddEEKNS_14CwiseNullaryOpINS0_18scalar_constant_opIdEEKS3_EESA_EENS0_9assign_opIddEENS0_11Dense2DenseEvE3runERS3_RKSD_RKSF_"
 "_ZN5Eigen8internal10AssignmentINS_6MatrixIdLin1ELin1ELi0ELin1ELin1EEENS_13CwiseBinaryOpINS0_17scalar_product_opIddEEKS3_KNS_14CwiseNullaryOpINS0_18scalar_constant_opIdEES7_EEEENS0_9assign_opIddEENS0_11Dense2DenseEvE3runERS3_RKSD_RKSF_"
 "_ZN5Eigen8internal10AssignmentINS_6MatrixIdLin1ELin1ELi0ELin1ELin1EEENS_13MatrixWrapperIKNS_5ArrayIdLin1ELi1ELi0ELin1ELi1EEEEENS0_9assign_opIddEENS0_11Dense2DenseEvE3runERS3_RKS8_RKSA_"
 "_ZN5Eigen8internal10AssignmentINS_6MatrixIdLin1ELin1ELi0ELin1ELin1EEENS_14CwiseNullaryOpINS0_18scalar_constant_opIdEES3_EENS0_9assign_opIddEENS0_11Dense2DenseEvE3runERS3_RKS7_RKS9_"
 "_ZN5Eigen8internal10AssignmentINS_6MatrixIdLin1ELin1ELi0ELin1ELin1EEENS_14CwiseNullaryOpINS0_18scalar_identity_opIdEES3_EENS0_9assign_opIddEENS0_11Dense2DenseEvE3runERS3_RKS7_RKS9_"
 "_ZN5Eigen8internal10AssignmentINS_6MatrixIdLin1ELin1ELi0ELin1ELin1EEENS_5SolveINS_12PartialPivLUIS3_EENS_14CwiseNullaryOpINS0_18scalar_identity_opIdEES3_EEEENS0_9assign_opIddEENS0_11Dense2DenseEvE3runERS3_RKSB_RKSD_"
 "_ZN5Eigen8internal10AssignmentINS_6MatrixIdLin1ELin1ELi0ELin1ELin1EEENS_7InverseINS_12PartialPivLUIS3_EEEENS0_9assign_opIddEENS0_11Dense2DenseEvE3runERS3_RKS7_RKS9_"
 "_ZN5Eigen8internal10AssignmentINS_6MatrixIdLin1ELin1ELi0ELin1ELin1EEENS_7InverseIS3_EENS0_9assign_opIddEENS0_11Dense2DenseEvE3runERS3_RKS5_RKS7_"
 "_ZN5Eigen8internal10AssignmentINS_6MatrixIdLin1ELin1ELi0ELin1ELin1EEENS_7ProductINS_17PermutationMatrixILin1ELin1EiEENS_14CwiseNullaryOpINS0_18scalar_identity_opIdEES3_EELi2EEENS0_9assign_opIddEENS0_11Dense2DenseEvE3runERS3_RKSB_RKSD_"
 "_ZN5Eigen8internal10AssignmentINS_6MatrixIdLin1ELin1ELi0ELin1ELin1EEENS_7ProductIS3_S3_Li0EEENS0_9assign_opIddEENS0_11Dense2DenseEvE3runERS3_RKS5_RKS7_"
 "_ZN5Eigen8internal10AssignmentINS_6MatrixIdLin1ELin1ELi0ELin1ELin1EEENS_7ProductIS3_S3_Li1EEENS0_9assign_opIddEENS0_11Dense2DenseEvE3runERS3_RKS5_RKS7_"
 "_ZN5Eigen8internal10AssignmentINS_6MatrixIdLin1ELin1ELi0ELin1ELin1EEES3_NS0_13add_assign_opIddEENS0_11Dense2DenseEvE3runERS3_RKS3_RKS5_"
 "_ZN5Eigen8internal10AssignmentINS_6MatrixIdLin1ELin1ELi0ELin1ELin1EEES3_NS0_13sub_assign_opIddEENS0_11Dense2DenseEvE3runERS3_RKS3_RKS5_"
 "_ZN5Eigen8internal10AssignmentINS_6MatrixIdLin1ELin1ELi0ELin1ELin1EEES3_NS0_9assign_opIddEENS0_11Dense2DenseEvE3runERS3_RKS3_RKS5_"
 "_ZN5Eigen8internal10AssignmentINS_6MatrixIiLin1ELin1ELi0ELin1ELin1EEENS_13MatrixWrapperIKNS_5ArrayIiLin1ELi1ELi0ELin1ELi1EEEEENS0_9assign_opIiiEENS0_11Dense2DenseEvE3runERS3_RKS8_RKSA_"
 "_ZN5Eigen8internal10AssignmentINS_9TransposeINS_5BlockINS_6MatrixIdLin1ELin1ELi0ELin1ELin1EEELi1ELin1ELb0EEEEENS_5ArrayIdLin1ELi1ELi0ELin1ELi1EEENS0_9assign_opIddEENS0_11Dense2DenseEvE3runERS7_RKS9_RKSB_"
 "_ZN5Eigen8internal10CacheSizesC1Ev"
 "_ZN5Eigen8internal10member_sumIdEC1ERKS2_"
 "_ZN5Eigen8internal10member_sumIdEC1Ev"
 "_ZN5Eigen8internal10predux_maxIU8__vectordEENS0_15unpacket_traitsIT_E4typeERKS4_"
 "_ZN5Eigen8internal10predux_mulIU8__vectorxEENS0_15unpacket_traitsIT_E4typeERKS4_"
 "_ZN5Eigen8internal10redux_implINS0_13scalar_max_opIddEENS0_15redux_evaluatorINS_16PartialReduxExprIKNS_12CwiseUnaryOpINS0_13scalar_abs_opIdEEKNS_6MatrixIdLin1ELin1ELi0ELin1ELin1EEEEENS0_10member_sumIdEELi0EEEEELi0ELi0EE3runERKSH_RKS3_"
 "_ZN5Eigen8internal10redux_implINS0_13scalar_max_opIddEENS0_15redux_evaluatorINS_5ArrayIdLin1ELi1ELi0ELin1ELi1EEEEELi3ELi0EE3runERKS7_RKS3_"
 "_ZN5Eigen8internal10redux_implINS0_13scalar_sum_opIddEENS0_15redux_evaluatorINS_13CwiseBinaryOpINS0_17scalar_product_opIddEEKNS_12ArrayWrapperIKNS_5BlockIKNS_6MatrixIdLin1ELin1ELi0ELin1ELin1EEELin1ELin1ELb0EEEEEKNS8_ISC_EEEEEELi0ELi0EE3runERKSK_RKS3_"
 "_ZN5Eigen8internal10redux_implINS0_13scalar_sum_opIddEENS0_15redux_evaluatorINS_13CwiseBinaryOpINS0_17scalar_product_opIddEEKNS_9TransposeIKNS_5BlockIKNS_6MatrixIdLin1ELin1ELi0ELin1ELin1EEELi1ELin1ELb0EEEEEKNS9_ISC_Lin1ELi1ELb1EEEEEEELi0ELi0EE3runERKSK_RKS3_"
 "_ZN5Eigen8internal10redux_implINS0_13scalar_sum_opIddEENS0_15redux_evaluatorINS_13CwiseBinaryOpINS0_17scalar_product_opIddEEKNS_9TransposeIKNS_5BlockIKNS9_INS9_INS_3MapINS_6MatrixIdLin1ELin1ELi0ELin1ELin1EEELi0ENS_6StrideILi0ELi0EEEEELin1ELin1ELb0EEELin1ELin1ELb0EEELi1ELin1ELb0EEEEEKNS9_ISI_Lin1ELi1ELb1EEEEEEELi0ELi0EE3runERKSQ_RKS3_"
 "_ZN5Eigen8internal10redux_implINS0_13scalar_sum_opIddEENS0_15redux_evaluatorINS_5BlockIKNS_12CwiseUnaryOpINS0_13scalar_abs_opIdEEKNS_6MatrixIdLin1ELin1ELi0ELin1ELin1EEEEELin1ELi1ELb1EEEEELi3ELi0EE3runERKSF_RKS3_"
 "_ZN5Eigen8internal10redux_implINS0_13scalar_sum_opIddEENS0_15redux_evaluatorINS_5BlockIKNS_6MatrixIdLin1ELin1ELi0ELin1ELin1EEELi1ELin1ELb0EEEEELi0ELi0EE3runERKSA_RKS3_"
 "_ZN5Eigen8internal10redux_implINS0_13scalar_sum_opIN5CppAD2ADIdEES5_EENS0_15redux_evaluatorINS_13CwiseBinaryOpINS0_17scalar_product_opIS5_S5_EEKNS_5ArrayIS5_Lin1ELi1ELi0ELin1ELi1EEESD_EEEELi0ELi0EE3runERKSF_RKS6_"
 "_ZN5Eigen8internal10redux_implINS0_13scalar_sum_opIN5CppAD2ADINS4_IdEEEES6_EENS0_15redux_evaluatorINS_13CwiseBinaryOpINS0_17scalar_product_opIS6_S6_EEKNS_5ArrayIS6_Lin1ELi1ELi0ELin1ELi1EEESE_EEEELi0ELi0EE3runERKSG_RKS7_"
 "_ZN5Eigen8internal10redux_implINS0_13scalar_sum_opIN5CppAD2ADINS4_INS4_IdEEEEEES7_EENS0_15redux_evaluatorINS_13CwiseBinaryOpINS0_17scalar_product_opIS7_S7_EEKNS_5ArrayIS7_Lin1ELi1ELi0ELin1ELi1EEESF_EEEELi0ELi0EE3runERKSH_RKS8_"
 "_ZN5Eigen8internal10redux_implINS0_17scalar_product_opIiiEENS0_15redux_evaluatorINS_5ArrayIiLin1ELi1ELi0ELin1ELi1EEEEELi3ELi0EE3runERKS7_RKS3_"
 "_ZN5Eigen8internal10smart_copyIdEEvPKT_S4_PS2_"
 "_ZN5Eigen8internal10smart_copyIiEEvPKT_S4_PS2_"
 "_ZN5Eigen8internal10smart_copyIN5CppAD2ADIdEEEEvPKT_S7_PS5_"
 "_ZN5Eigen8internal10smart_copyIN5CppAD2ADINS3_IdEEEEEEvPKT_S8_PS6_"
 "_ZN5Eigen8internal10smart_copyIN5CppAD2ADINS3_INS3_IdEEEEEEEEvPKT_S9_PS7_"
 "_ZN5Eigen8internal10smart_copyIN8tmbutils6matrixIdEEEEvPKT_S7_PS5_"
 "_ZN5Eigen8internal11blas_traitsINS_5BlockINS2_INS_3MapINS_6MatrixIdLin1ELin1ELi0ELin1ELin1EEELi0ENS_6StrideILi0ELi0EEEEELin1ELin1ELb0EEELin1ELin1ELb0EEEE19extractScalarFactorERKSA_"
 "_ZN5Eigen8internal11blas_traitsINS_5BlockINS2_INS_3MapINS_6MatrixIdLin1ELin1ELi0ELin1ELin1EEELi0ENS_6StrideILi0ELi0EEEEELin1ELin1ELb0EEELin1ELin1ELb0EEEE7extractERKSA_"
 "_ZN5Eigen8internal11blas_traitsINS_6MatrixIdLin1ELin1ELi0ELin1ELin1EEEE19extractScalarFactorERKS3_"
 "_ZN5Eigen8internal11blas_traitsINS_6MatrixIdLin1ELin1ELi0ELin1ELin1EEEE7extractERKS3_"
 "_ZN5Eigen8internal11gebp_kernelIddxNS0_16blas_data_mapperIdxLi0ELi0ELi1EEELi4ELi4ELb0ELb0EEclERKS3_PKdS8_xxxdxxxx"
 "_ZN5Eigen8internal11gebp_traitsIddLb0ELb0EE12broadcastRhsEPKdRU8__vectordS6_S6_S6_"
 "_ZN5Eigen8internal11gebp_traitsIddLb0ELb0EE7initAccERU8__vectord"
 "_ZN5Eigen8internal11noncopyableC2Ev"
 "_ZN5Eigen8internal11noncopyableD2Ev"
 "_ZN5Eigen8internal11pbroadcast4IU8__vectordEEvPKNS0_15unpacket_traitsIT_E4typeERS4_S9_S9_S9_"
 "_ZN5Eigen8internal12aligned_freeEPv"
 "_ZN5Eigen8internal12gemm_functorIdxNS0_29general_matrix_matrix_productIxdLi0ELb0EdLi0ELb0ELi0ELi1EEENS_5BlockINS4_INS_3MapINS_6MatrixIdLin1ELin1ELi0ELin1ELin1EEELi0ENS_6StrideILi0ELi0EEEEELin1ELin1ELb0EEELin1ELin1ELb0EEESC_SC_NS0_19gemm_blocking_spaceILi0EddLin1ELin1ELin1ELi1ELb0EEEEC1ERKSC_SH_RSC_RKdRSE_"
 "_ZN5Eigen8internal12gemm_functorIdxNS0_29general_matrix_matrix_productIxdLi0ELb0EdLi0ELb0ELi0ELi1EEENS_6MatrixIdLin1ELin1ELi0ELin1ELin1EEES5_S5_NS0_19gemm_blocking_spaceILi0EddLin1ELin1ELin1ELi1ELb0EEEEC1ERKS5_SA_RS5_RKdRS7_"
 "_ZN5Eigen8internal12visitor_implINS0_17max_coeff_visitorINS_12CwiseUnaryOpINS0_21scalar_score_coeff_opIdEEKNS_5BlockINS6_INS6_INS_3MapINS_6MatrixIdLin1ELin1ELi0ELin1ELin1EEELi0ENS_6StrideILi0ELi0EEEEELin1ELin1ELb0EEELin1ELi1ELb1EEELin1ELi1ELb0EEEEEEENS0_17visitor_evaluatorISH_EELin1EE3runERKSK_RSI_"
 "_ZN5Eigen8internal13add_assign_opIddEC1Ev"
 "_ZN5Eigen8internal13coeff_visitorINS_12CwiseUnaryOpINS0_21scalar_score_coeff_opIdEEKNS_5BlockINS5_INS5_INS_3MapINS_6MatrixIdLin1ELin1ELi0ELin1ELin1EEELi0ENS_6StrideILi0ELi0EEEEELin1ELin1ELb0EEELin1ELi1ELb1EEELin1ELi1ELb0EEEEEE4initERKdxx"
 "_ZN5Eigen8internal13convert_indexIixEET_RKT0_"
 "_ZN5Eigen8internal13div_assign_opIddEC1Ev"
 "_ZN5Eigen8internal13first_alignedILi16EdxEET1_PKT0_S2_"
 "_ZN5Eigen8internal13gemm_pack_lhsIdxNS0_22const_blas_data_mapperIdxLi0EEELi4ELi2ELi0ELb0ELb0EEclEPdRKS3_xxxx"
 "_ZN5Eigen8internal13gemm_pack_rhsIdxNS0_16blas_data_mapperIdxLi0ELi0ELi1EEELi4ELi0ELb0ELb1EEclEPdRKS3_xxxx"
 "_ZN5Eigen8internal13gemm_pack_rhsIdxNS0_22const_blas_data_mapperIdxLi0EEELi4ELi0ELb0ELb0EEclEPdRKS3_xxxx"
 "_ZN5Eigen8internal13is_same_denseINS_6MatrixIdLin1ELin1ELi0ELin1ELin1EEENS_14CwiseNullaryOpINS0_18scalar_identity_opIdEES3_EEEEbRKT_RKT0_PNS0_9enable_ifIXntaasrNS0_17has_direct_accessIS8_EE3retsrNSF_ISB_EE3retES8_E4typeE"
 "_ZN5Eigen8internal13scalar_abs_opIdEC1ERKS2_"
 "_ZN5Eigen8internal13scalar_abs_opIdEC1Ev"
 "_ZN5Eigen8internal13scalar_abs_opIdEC2ERKS2_"
 "_ZN5Eigen8internal13scalar_abs_opIdEC2Ev"
 "_ZN5Eigen8internal13scalar_max_opIddEC1Ev"
 "_ZN5Eigen8internal13scalar_sum_opIddEC1ERKS2_"
 "_ZN5Eigen8internal13scalar_sum_opIddEC1Ev"
 "_ZN5Eigen8internal13scalar_sum_opIN5CppAD2ADIdEES4_EC1Ev"
 "_ZN5Eigen8internal13scalar_sum_opIN5CppAD2ADINS3_IdEEEES5_EC1Ev"
 "_ZN5Eigen8internal13scalar_sum_opIN5CppAD2ADINS3_INS3_IdEEEEEES6_EC1Ev"
 "_ZN5Eigen8internal13sub_assign_opIddEC1Ev"
 "_ZN5Eigen8internal14aligned_deleteIdEEvPT_y"
 "_ZN5Eigen8internal14aligned_mallocEy"
 "_ZN5Eigen8internal14binary_op_baseIddEC2Ev"
 "_ZN5Eigen8internal14binary_op_baseIiiEC2Ev"
 "_ZN5Eigen8internal14binary_op_baseIN5CppAD2ADIdEES4_EC2Ev"
 "_ZN5Eigen8internal14binary_op_baseIN5CppAD2ADINS3_IdEEEES5_EC2Ev"
 "_ZN5Eigen8internal14binary_op_baseIN5CppAD2ADINS3_INS3_IdEEEEEES6_EC2Ev"
 "_ZN5Eigen8internal14evaluator_baseINS_12ArrayWrapperIKNS_5BlockIKNS_6MatrixIdLin1ELin1ELi0ELin1ELin1EEELin1ELin1ELb0EEEEEEC2Ev"
 "_ZN5Eigen8internal14evaluator_baseINS_12ArrayWrapperIKNS_5BlockIKNS_6MatrixIdLin1ELin1ELi0ELin1ELin1EEELin1ELin1ELb0EEEEEED2Ev"
 "_ZN5Eigen8internal14evaluator_baseINS_12ArrayWrapperIKNS_6MatrixIdLin1ELin1ELi0ELin1ELin1EEEEEEC2Ev"
 "_ZN5Eigen8internal14evaluator_baseINS_12ArrayWrapperIKNS_6MatrixIdLin1ELin1ELi0ELin1ELin1EEEEEED2Ev"
 "_ZN5Eigen8internal14evaluator_baseINS_12ArrayWrapperINS_6MatrixIdLin1ELin1ELi0ELin1ELin1EEEEEEC2Ev"
 "_ZN5Eigen8internal14evaluator_baseINS_12ArrayWrapperINS_6MatrixIdLin1ELin1ELi0ELin1ELin1EEEEEED2Ev"
 "_ZN5Eigen8internal14evaluator_baseINS_12CwiseUnaryOpINS0_13scalar_abs_opIdEEKNS_12ArrayWrapperINS_6MatrixIdLin1ELin1ELi0ELin1ELin1EEEEEEEEC2Ev"
 "_ZN5Eigen8internal14evaluator_baseINS_12CwiseUnaryOpINS0_13scalar_abs_opIdEEKNS_12ArrayWrapperINS_6MatrixIdLin1ELin1ELi0ELin1ELin1EEEEEEEED2Ev"
 "_ZN5Eigen8internal14evaluator_baseINS_12CwiseUnaryOpINS0_13scalar_abs_opIdEEKNS_6MatrixIdLin1ELin1ELi0ELin1ELin1EEEEEEC2Ev"
 "_ZN5Eigen8internal14evaluator_baseINS_12CwiseUnaryOpINS0_13scalar_abs_opIdEEKNS_6MatrixIdLin1ELin1ELi0ELin1ELin1EEEEEED2Ev"
 "_ZN5Eigen8internal14evaluator_baseINS_12CwiseUnaryOpINS0_14scalar_cast_opIbiEEKNS_5ArrayIbLin1ELi1ELi0ELin1ELi1EEEEEEC2Ev"
 "_ZN5Eigen8internal14evaluator_baseINS_12CwiseUnaryOpINS0_14scalar_cast_opIbiEEKNS_5ArrayIbLin1ELi1ELi0ELin1ELi1EEEEEED2Ev"
 "_ZN5Eigen8internal14evaluator_baseINS_12CwiseUnaryOpINS0_14scalar_cast_opIdiEEKNS_3MapINS_6MatrixIdLin1ELi1ELi0ELin1ELi1EEELi0ENS_6StrideILi0ELi0EEEEEEEEC2Ev"
 "_ZN5Eigen8internal14evaluator_baseINS_12CwiseUnaryOpINS0_14scalar_cast_opIdiEEKNS_3MapINS_6MatrixIdLin1ELi1ELi0ELin1ELi1EEELi0ENS_6StrideILi0ELi0EEEEEEEED2Ev"
 "_ZN5Eigen8internal14evaluator_baseINS_12CwiseUnaryOpINS0_14scalar_cast_opIdN5CppAD2ADIdEEEEKNS_3MapINS_6MatrixIdLin1ELi1ELi0ELin1ELi1EEELi0ENS_6StrideILi0ELi0EEEEEEEEC2Ev"
 "_ZN5Eigen8internal14evaluator_baseINS_12CwiseUnaryOpINS0_14scalar_cast_opIdN5CppAD2ADIdEEEEKNS_3MapINS_6MatrixIdLin1ELi1ELi0ELin1ELi1EEELi0ENS_6StrideILi0ELi0EEEEEEEED2Ev"
 "_ZN5Eigen8internal14evaluator_baseINS_12CwiseUnaryOpINS0_14scalar_cast_opIdN5CppAD2ADINS5_IdEEEEEEKNS_3MapINS_6MatrixIdLin1ELi1ELi0ELin1ELi1EEELi0ENS_6StrideILi0ELi0EEEEEEEEC2Ev"
 "_ZN5Eigen8internal14evaluator_baseINS_12CwiseUnaryOpINS0_14scalar_cast_opIdN5CppAD2ADINS5_IdEEEEEEKNS_3MapINS_6MatrixIdLin1ELi1ELi0ELin1ELi1EEELi0ENS_6StrideILi0ELi0EEEEEEEED2Ev"
 "_ZN5Eigen8internal14evaluator_baseINS_12CwiseUnaryOpINS0_14scalar_cast_opIdN5CppAD2ADINS5_INS5_IdEEEEEEEEKNS_3MapINS_6MatrixIdLin1ELi1ELi0ELin1ELi1EEELi0ENS_6StrideILi0ELi0EEEEEEEEC2Ev"
 "_ZN5Eigen8internal14evaluator_baseINS_12CwiseUnaryOpINS0_14scalar_cast_opIdN5CppAD2ADINS5_INS5_IdEEEEEEEEKNS_3MapINS_6MatrixIdLin1ELi1ELi0ELin1ELi1EEELi0ENS_6StrideILi0ELi0EEEEEEEED2Ev"
 "_ZN5Eigen8internal14evaluator_baseINS_12CwiseUnaryOpINS0_21scalar_score_coeff_opIdEEKNS_5BlockINS5_INS5_INS_3MapINS_6MatrixIdLin1ELin1ELi0ELin1ELin1EEELi0ENS_6StrideILi0ELi0EEEEELin1ELin1ELb0EEELin1ELi1ELb1EEELin1ELi1ELb0EEEEEEC2Ev"
 "_ZN5Eigen8internal14evaluator_baseINS_12CwiseUnaryOpINS0_21scalar_score_coeff_opIdEEKNS_5BlockINS5_INS5_INS_3MapINS_6MatrixIdLin1ELin1ELi0ELin1ELin1EEELi0ENS_6StrideILi0ELi0EEEEELin1ELin1ELb0EEELin1ELi1ELb1EEELin1ELi1ELb0EEEEEED2Ev"
 "_ZN5Eigen8internal14evaluator_baseINS_13CwiseBinaryOpINS0_13scalar_sum_opIddEEKNS_5ArrayIdLin1ELi1ELi0ELin1ELi1EEES7_EEEC2Ev"
 "_ZN5Eigen8internal14evaluator_baseINS_13CwiseBinaryOpINS0_13scalar_sum_opIddEEKNS_5ArrayIdLin1ELi1ELi0ELin1ELi1EEES7_EEED2Ev"
 "_ZN5Eigen8internal14evaluator_baseINS_13CwiseBinaryOpINS0_13scalar_sum_opIddEEKNS_6MatrixIdLin1ELi1ELi0ELin1ELi1EEES7_EEEC2Ev"
 "_ZN5Eigen8internal14evaluator_baseINS_13CwiseBinaryOpINS0_13scalar_sum_opIddEEKNS_6MatrixIdLin1ELi1ELi0ELin1ELi1EEES7_EEED2Ev"
 "_ZN5Eigen8internal14evaluator_baseINS_13CwiseBinaryOpINS0_13scalar_sum_opIddEEKNS_6MatrixIdLin1ELin1ELi0ELin1ELin1EEES7_EEEC2Ev"
 "_ZN5Eigen8internal14evaluator_baseINS_13CwiseBinaryOpINS0_13scalar_sum_opIddEEKNS_6MatrixIdLin1ELin1ELi0ELin1ELin1EEES7_EEED2Ev"
 "_ZN5Eigen8internal14evaluator_baseINS_13CwiseBinaryOpINS0_17scalar_product_opIddEEKNS_12ArrayWrapperIKNS_5BlockIKNS_6MatrixIdLin1ELin1ELi0ELin1ELin1EEELin1ELin1ELb0EEEEEKNS5_IS9_EEEEEC2Ev"
 "_ZN5Eigen8internal14evaluator_baseINS_13CwiseBinaryOpINS0_17scalar_product_opIddEEKNS_12ArrayWrapperIKNS_5BlockIKNS_6MatrixIdLin1ELin1ELi0ELin1ELin1EEELin1ELin1ELb0EEEEEKNS5_IS9_EEEEED2Ev"
 "_ZN5Eigen8internal14evaluator_baseINS_13CwiseBinaryOpINS0_17scalar_product_opIddEEKNS_14CwiseNullaryOpINS0_18scalar_constant_opIdEEKNS_6MatrixIdLin1ELi1ELi0ELin1ELi1EEEEEKNS_5BlockINSD_INSD_INS_3MapINS8_IdLin1ELin1ELi0ELin1ELin1EEELi0ENS_6StrideILi0ELi0EEEEELin1ELin1ELb0EEELin1ELi1ELb1EEELin1ELi1ELb0EEEEEEC2Ev"
 "_ZN5Eigen8internal14evaluator_baseINS_13CwiseBinaryOpINS0_17scalar_product_opIddEEKNS_14CwiseNullaryOpINS0_18scalar_constant_opIdEEKNS_6MatrixIdLin1ELi1ELi0ELin1ELi1EEEEEKNS_5BlockINSD_INSD_INS_3MapINS8_IdLin1ELin1ELi0ELin1ELin1EEELi0ENS_6StrideILi0ELi0EEEEELin1ELin1ELb0EEELin1ELi1ELb1EEELin1ELi1ELb0EEEEEED2Ev"
 "_ZN5Eigen8internal14evaluator_baseINS_13CwiseBinaryOpINS0_17scalar_product_opIddEEKNS_14CwiseNullaryOpINS0_18scalar_constant_opIdEEKNS_6MatrixIdLin1ELin1ELi0ELin1ELin1EEEEESA_EEEC2Ev"
 "_ZN5Eigen8internal14evaluator_baseINS_13CwiseBinaryOpINS0_17scalar_product_opIddEEKNS_14CwiseNullaryOpINS0_18scalar_constant_opIdEEKNS_6MatrixIdLin1ELin1ELi0ELin1ELin1EEEEESA_EEED2Ev"
 "_ZN5Eigen8internal14evaluator_baseINS_13CwiseBinaryOpINS0_17scalar_product_opIddEEKNS_6MatrixIdLin1ELin1ELi0ELin1ELin1EEEKNS_14CwiseNullaryOpINS0_18scalar_constant_opIdEES7_EEEEEC2Ev"
 "_ZN5Eigen8internal14evaluator_baseINS_13CwiseBinaryOpINS0_17scalar_product_opIddEEKNS_6MatrixIdLin1ELin1ELi0ELin1ELin1EEEKNS_14CwiseNullaryOpINS0_18scalar_constant_opIdEES7_EEEEED2Ev"
 "_ZN5Eigen8internal14evaluator_baseINS_13CwiseBinaryOpINS0_17scalar_product_opIddEEKNS_9TransposeIKNS_5BlockIKNS_6MatrixIdLin1ELin1ELi0ELin1ELin1EEELi1ELin1ELb0EEEEEKNS6_IS9_Lin1ELi1ELb1EEEEEEC2Ev"
 "_ZN5Eigen8internal14evaluator_baseINS_13CwiseBinaryOpINS0_17scalar_product_opIddEEKNS_9TransposeIKNS_5BlockIKNS_6MatrixIdLin1ELin1ELi0ELin1ELin1EEELi1ELin1ELb0EEEEEKNS6_IS9_Lin1ELi1ELb1EEEEEED2Ev"
 "_ZN5Eigen8internal14evaluator_baseINS_13CwiseBinaryOpINS0_17scalar_product_opIddEEKNS_9TransposeIKNS_5BlockIKNS6_INS6_INS_3MapINS_6MatrixIdLin1ELin1ELi0ELin1ELin1EEELi0ENS_6StrideILi0ELi0EEEEELin1ELin1ELb0EEELin1ELin1ELb0EEELi1ELin1ELb0EEEEEKNS6_ISF_Lin1ELi1ELb1EEEEEEC2Ev"
 "_ZN5Eigen8internal14evaluator_baseINS_13CwiseBinaryOpINS0_17scalar_product_opIddEEKNS_9TransposeIKNS_5BlockIKNS6_INS6_INS_3MapINS_6MatrixIdLin1ELin1ELi0ELin1ELin1EEELi0ENS_6StrideILi0ELi0EEEEELin1ELin1ELb0EEELin1ELin1ELb0EEELi1ELin1ELb0EEEEEKNS6_ISF_Lin1ELi1ELb1EEEEEED2Ev"
 "_ZN5Eigen8internal14evaluator_baseINS_13CwiseBinaryOpINS0_17scalar_product_opIN5CppAD2ADIdEES6_EEKNS_5ArrayIS6_Lin1ELi1ELi0ELin1ELi1EEESA_EEEC2Ev"
 "_ZN5Eigen8internal14evaluator_baseINS_13CwiseBinaryOpINS0_17scalar_product_opIN5CppAD2ADIdEES6_EEKNS_5ArrayIS6_Lin1ELi1ELi0ELin1ELi1EEESA_EEED2Ev"
 "_ZN5Eigen8internal14evaluator_baseINS_13CwiseBinaryOpINS0_17scalar_product_opIN5CppAD2ADINS5_IdEEEES7_EEKNS_5ArrayIS7_Lin1ELi1ELi0ELin1ELi1EEESB_EEEC2Ev"
 "_ZN5Eigen8internal14evaluator_baseINS_13CwiseBinaryOpINS0_17scalar_product_opIN5CppAD2ADINS5_IdEEEES7_EEKNS_5ArrayIS7_Lin1ELi1ELi0ELin1ELi1EEESB_EEED2Ev"
 "_ZN5Eigen8internal14evaluator_baseINS_13CwiseBinaryOpINS0_17scalar_product_opIN5CppAD2ADINS5_INS5_IdEEEEEES8_EEKNS_5ArrayIS8_Lin1ELi1ELi0ELin1ELi1EEESC_EEEC2Ev"
 "_ZN5Eigen8internal14evaluator_baseINS_13CwiseBinaryOpINS0_17scalar_product_opIN5CppAD2ADINS5_INS5_IdEEEEEES8_EEKNS_5ArrayIS8_Lin1ELi1ELi0ELin1ELi1EEESC_EEED2Ev"
 "_ZN5Eigen8internal14evaluator_baseINS_13MatrixWrapperIKNS_5ArrayIdLin1ELi1ELi0ELin1ELi1EEEEEEC2Ev"
 "_ZN5Eigen8internal14evaluator_baseINS_13MatrixWrapperIKNS_5ArrayIdLin1ELi1ELi0ELin1ELi1EEEEEED2Ev"
 "_ZN5Eigen8internal14evaluator_baseINS_13MatrixWrapperIKNS_5ArrayIiLin1ELi1ELi0ELin1ELi1EEEEEEC2Ev"
 "_ZN5Eigen8internal14evaluator_baseINS_13MatrixWrapperIKNS_5ArrayIiLin1ELi1ELi0ELin1ELi1EEEEEED2Ev"
 "_ZN5Eigen8internal14evaluator_baseINS_14CwiseNullaryOpINS0_18scalar_constant_opIbEENS_6MatrixIbLin1ELi1ELi0ELin1ELi1EEEEEEC2Ev"
 "_ZN5Eigen8internal14evaluator_baseINS_14CwiseNullaryOpINS0_18scalar_constant_opIbEENS_6MatrixIbLin1ELi1ELi0ELin1ELi1EEEEEED2Ev"
 "_ZN5Eigen8internal14evaluator_baseINS_14CwiseNullaryOpINS0_18scalar_constant_opIdEEKNS_6MatrixIdLin1ELi1ELi0ELin1ELi1EEEEEEC2Ev"
 "_ZN5Eigen8internal14evaluator_baseINS_14CwiseNullaryOpINS0_18scalar_constant_opIdEEKNS_6MatrixIdLin1ELi1ELi0ELin1ELi1EEEEEED2Ev"
 "_ZN5Eigen8internal14evaluator_baseINS_14CwiseNullaryOpINS0_18scalar_constant_opIdEEKNS_6MatrixIdLin1ELin1ELi0ELin1ELin1EEEEEEC2Ev"
 "_ZN5Eigen8internal14evaluator_baseINS_14CwiseNullaryOpINS0_18scalar_constant_opIdEEKNS_6MatrixIdLin1ELin1ELi0ELin1ELin1EEEEEED2Ev"
 "_ZN5Eigen8internal14evaluator_baseINS_14CwiseNullaryOpINS0_18scalar_constant_opIdEENS_5ArrayIdLin1ELi1ELi0ELin1ELi1EEEEEEC2Ev"
 "_ZN5Eigen8internal14evaluator_baseINS_14CwiseNullaryOpINS0_18scalar_constant_opIdEENS_5ArrayIdLin1ELi1ELi0ELin1ELi1EEEEEED2Ev"
 "_ZN5Eigen8internal14evaluator_baseINS_14CwiseNullaryOpINS0_18scalar_constant_opIdEENS_6MatrixIdLin1ELi1ELi0ELin1ELi1EEEEEEC2Ev"
 "_ZN5Eigen8internal14evaluator_baseINS_14CwiseNullaryOpINS0_18scalar_constant_opIdEENS_6MatrixIdLin1ELi1ELi0ELin1ELi1EEEEEED2Ev"
 "_ZN5Eigen8internal14evaluator_baseINS_14CwiseNullaryOpINS0_18scalar_constant_opIdEENS_6MatrixIdLin1ELin1ELi0ELin1ELin1EEEEEEC2Ev"
 "_ZN5Eigen8internal14evaluator_baseINS_14CwiseNullaryOpINS0_18scalar_constant_opIdEENS_6MatrixIdLin1ELin1ELi0ELin1ELin1EEEEEED2Ev"
 "_ZN5Eigen8internal14evaluator_baseINS_14CwiseNullaryOpINS0_18scalar_identity_opIdEENS_6MatrixIdLin1ELin1ELi0ELin1ELin1EEEEEEC2Ev"
 "_ZN5Eigen8internal14evaluator_baseINS_14CwiseNullaryOpINS0_18scalar_identity_opIdEENS_6MatrixIdLin1ELin1ELi0ELin1ELin1EEEEEED2Ev"
 "_ZN5Eigen8internal14evaluator_baseINS_16PartialReduxExprIKNS_12CwiseUnaryOpINS0_13scalar_abs_opIdEEKNS_6MatrixIdLin1ELin1ELi0ELin1ELin1EEEEENS0_10member_sumIdEELi0EEEEC2Ev"
 "_ZN5Eigen8internal14evaluator_baseINS_16PartialReduxExprIKNS_12CwiseUnaryOpINS0_13scalar_abs_opIdEEKNS_6MatrixIdLin1ELin1ELi0ELin1ELin1EEEEENS0_10member_sumIdEELi0EEEED2Ev"
 "_ZN5Eigen8internal14evaluator_baseINS_16PartialReduxExprINS_6MatrixIdLin1ELin1ELi0ELin1ELin1EEENS0_10member_sumIdEELi1EEEEC2Ev"
 "_ZN5Eigen8internal14evaluator_baseINS_16PartialReduxExprINS_6MatrixIdLin1ELin1ELi0ELin1ELin1EEENS0_10member_sumIdEELi1EEEED2Ev"
 "_ZN5Eigen8internal14evaluator_baseINS_3MapINS_6MatrixIdLin1ELi1ELi0ELin1ELi1EEELi0ENS_6StrideILi0ELi0EEEEEEC2Ev"
 "_ZN5Eigen8internal14evaluator_baseINS_3MapINS_6MatrixIdLin1ELi1ELi0ELin1ELi1EEELi0ENS_6StrideILi0ELi0EEEEEED2Ev"
 "_ZN5Eigen8internal14evaluator_baseINS_5ArrayIbLin1ELi1ELi0ELin1ELi1EEEEC2Ev"
 "_ZN5Eigen8internal14evaluator_baseINS_5ArrayIbLin1ELi1ELi0ELin1ELi1EEEED2Ev"
 "_ZN5Eigen8internal14evaluator_baseINS_5ArrayIdLin1ELi1ELi0ELin1ELi1EEEEC2Ev"
 "_ZN5Eigen8internal14evaluator_baseINS_5ArrayIdLin1ELi1ELi0ELin1ELi1EEEED2Ev"
 "_ZN5Eigen8internal14evaluator_baseINS_5ArrayIdLin1ELin1ELi0ELin1ELin1EEEEC2Ev"
 "_ZN5Eigen8internal14evaluator_baseINS_5ArrayIdLin1ELin1ELi0ELin1ELin1EEEED2Ev"
 "_ZN5Eigen8internal14evaluator_baseINS_5ArrayIiLin1ELi1ELi0ELin1ELi1EEEEC2Ev"
 "_ZN5Eigen8internal14evaluator_baseINS_5ArrayIiLin1ELi1ELi0ELin1ELi1EEEED2Ev"
 "_ZN5Eigen8internal14evaluator_baseINS_5ArrayIN5CppAD2ADIdEELin1ELi1ELi0ELin1ELi1EEEEC2Ev"
 "_ZN5Eigen8internal14evaluator_baseINS_5ArrayIN5CppAD2ADIdEELin1ELi1ELi0ELin1ELi1EEEED2Ev"
 "_ZN5Eigen8internal14evaluator_baseINS_5ArrayIN5CppAD2ADIdEELin1ELin1ELi0ELin1ELin1EEEEC2Ev"
 "_ZN5Eigen8internal14evaluator_baseINS_5ArrayIN5CppAD2ADIdEELin1ELin1ELi0ELin1ELin1EEEED2Ev"
 "_ZN5Eigen8internal14evaluator_baseINS_5ArrayIN5CppAD2ADINS4_IdEEEELin1ELi1ELi0ELin1ELi1EEEEC2Ev"
 "_ZN5Eigen8internal14evaluator_baseINS_5ArrayIN5CppAD2ADINS4_IdEEEELin1ELi1ELi0ELin1ELi1EEEED2Ev"
 "_ZN5Eigen8internal14evaluator_baseINS_5ArrayIN5CppAD2ADINS4_IdEEEELin1ELin1ELi0ELin1ELin1EEEEC2Ev"
 "_ZN5Eigen8internal14evaluator_baseINS_5ArrayIN5CppAD2ADINS4_IdEEEELin1ELin1ELi0ELin1ELin1EEEED2Ev"
 "_ZN5Eigen8internal14evaluator_baseINS_5ArrayIN5CppAD2ADINS4_INS4_IdEEEEEELin1ELi1ELi0ELin1ELi1EEEEC2Ev"
 "_ZN5Eigen8internal14evaluator_baseINS_5ArrayIN5CppAD2ADINS4_INS4_IdEEEEEELin1ELi1ELi0ELin1ELi1EEEED2Ev"
 "_ZN5Eigen8internal14evaluator_baseINS_5ArrayIN5CppAD2ADINS4_INS4_IdEEEEEELin1ELin1ELi0ELin1ELin1EEEEC2Ev"
 "_ZN5Eigen8internal14evaluator_baseINS_5ArrayIN5CppAD2ADINS4_INS4_IdEEEEEELin1ELin1ELi0ELin1ELin1EEEED2Ev"
 "_ZN5Eigen8internal14evaluator_baseINS_5ArrayIN8tmbutils6matrixIdEELin1ELi1ELi0ELin1ELi1EEEEC2Ev"
 "_ZN5Eigen8internal14evaluator_baseINS_5ArrayIN8tmbutils6matrixIdEELin1ELi1ELi0ELin1ELi1EEEED2Ev"
 "_ZN5Eigen8internal14evaluator_baseINS_5ArrayIN8tmbutils6vectorIdEELin1ELi1ELi0ELin1ELi1EEEEC2Ev"
 "_ZN5Eigen8internal14evaluator_baseINS_5ArrayIN8tmbutils6vectorIdEELin1ELi1ELi0ELin1ELi1EEEED2Ev"
 "_ZN5Eigen8internal14evaluator_baseINS_5ArrayIN8tmbutils6vectorIiEELin1ELi1ELi0ELin1ELi1EEEEC2Ev"
 "_ZN5Eigen8internal14evaluator_baseINS_5ArrayIN8tmbutils6vectorIiEELin1ELi1ELi0ELin1ELi1EEEED2Ev"
 "_ZN5Eigen8internal14evaluator_baseINS_5ArrayIN8tmbutils6vectorIyEELin1ELi1ELi0ELin1ELi1EEEEC2Ev"
 "_ZN5Eigen8internal14evaluator_baseINS_5ArrayIN8tmbutils6vectorIyEELin1ELi1ELi0ELin1ELi1EEEED2Ev"
 "_ZN5Eigen8internal14evaluator_baseINS_5ArrayINS_6MatrixIdLin1ELi1ELi0ELin1ELi1EEELin1ELi1ELi0ELin1ELi1EEEEC2Ev"
 "_ZN5Eigen8internal14evaluator_baseINS_5ArrayINS_6MatrixIdLin1ELi1ELi0ELin1ELi1EEELin1ELi1ELi0ELin1ELi1EEEED2Ev"
 "_ZN5Eigen8internal14evaluator_baseINS_5ArrayIPKcLin1ELi1ELi0ELin1ELi1EEEEC2Ev"
 "_ZN5Eigen8internal14evaluator_baseINS_5ArrayIPKcLin1ELi1ELi0ELin1ELi1EEEED2Ev"
 "_ZN5Eigen8internal14evaluator_baseINS_5ArrayIPN5CppAD5ADFunIdEELin1ELi1ELi0ELin1ELi1EEEEC2Ev"
 "_ZN5Eigen8internal14evaluator_baseINS_5ArrayIPN5CppAD5ADFunIdEELin1ELi1ELi0ELin1ELi1EEEED2Ev"
 "_ZN5Eigen8internal14evaluator_baseINS_5ArrayIyLin1ELi1ELi0ELin1ELi1EEEEC2Ev"
 "_ZN5Eigen8internal14evaluator_baseINS_5ArrayIyLin1ELi1ELi0ELin1ELi1EEEED2Ev"
 "_ZN5Eigen8internal14evaluator_baseINS_5BlockIKNS_12CwiseUnaryOpINS0_13scalar_abs_opIdEEKNS_6MatrixIdLin1ELin1ELi0ELin1ELin1EEEEELin1ELi1ELb1EEEEC2Ev"
 "_ZN5Eigen8internal14evaluator_baseINS_5BlockIKNS_12CwiseUnaryOpINS0_13scalar_abs_opIdEEKNS_6MatrixIdLin1ELin1ELi0ELin1ELin1EEEEELin1ELi1ELb1EEEED2Ev"
 "_ZN5Eigen8internal14evaluator_baseINS_5BlockIKNS_14CwiseNullaryOpINS0_18scalar_identity_opIdEENS_6MatrixIdLin1ELin1ELi0ELin1ELin1EEEEELi1ELin1ELb0EEEEC2Ev"
 "_ZN5Eigen8internal14evaluator_baseINS_5BlockIKNS_14CwiseNullaryOpINS0_18scalar_identity_opIdEENS_6MatrixIdLin1ELin1ELi0ELin1ELin1EEEEELi1ELin1ELb0EEEED2Ev"
 "_ZN5Eigen8internal14evaluator_baseINS_5BlockIKNS_6MatrixIdLin1ELin1ELi0ELin1ELin1EEELi1ELin1ELb0EEEEC2Ev"
 "_ZN5Eigen8internal14evaluator_baseINS_5BlockIKNS_6MatrixIdLin1ELin1ELi0ELin1ELin1EEELi1ELin1ELb0EEEED2Ev"
 "_ZN5Eigen8internal14evaluator_baseINS_5BlockIKNS_6MatrixIdLin1ELin1ELi0ELin1ELin1EEELin1ELi1ELb1EEEEC2Ev"
 "_ZN5Eigen8internal14evaluator_baseINS_5BlockIKNS_6MatrixIdLin1ELin1ELi0ELin1ELin1EEELin1ELi1ELb1EEEED2Ev"
 "_ZN5Eigen8internal14evaluator_baseINS_5BlockIKNS_6MatrixIdLin1ELin1ELi0ELin1ELin1EEELin1ELin1ELb0EEEEC2Ev"
 "_ZN5Eigen8internal14evaluator_baseINS_5BlockIKNS_6MatrixIdLin1ELin1ELi0ELin1ELin1EEELin1ELin1ELb0EEEED2Ev"
 "_ZN5Eigen8internal14evaluator_baseINS_5BlockIKNS2_INS2_INS_3MapINS_6MatrixIdLin1ELin1ELi0ELin1ELin1EEELi0ENS_6StrideILi0ELi0EEEEELin1ELin1ELb0EEELin1ELin1ELb0EEELi1ELin1ELb0EEEEC2Ev"
 "_ZN5Eigen8internal14evaluator_baseINS_5BlockIKNS2_INS2_INS_3MapINS_6MatrixIdLin1ELin1ELi0ELin1ELin1EEELi0ENS_6StrideILi0ELi0EEEEELin1ELin1ELb0EEELin1ELin1ELb0EEELi1ELin1ELb0EEEED2Ev"
 "_ZN5Eigen8internal14evaluator_baseINS_5BlockIKNS2_INS2_INS_3MapINS_6MatrixIdLin1ELin1ELi0ELin1ELin1EEELi0ENS_6StrideILi0ELi0EEEEELin1ELin1ELb0EEELin1ELin1ELb0EEELin1ELi1ELb1EEEEC2Ev"
 "_ZN5Eigen8internal14evaluator_baseINS_5BlockIKNS2_INS2_INS_3MapINS_6MatrixIdLin1ELin1ELi0ELin1ELin1EEELi0ENS_6StrideILi0ELi0EEEEELin1ELin1ELb0EEELin1ELin1ELb0EEELin1ELi1ELb1EEEED2Ev"
 "_ZN5Eigen8internal14evaluator_baseINS_5BlockINS_5ArrayIdLin1ELi1ELi0ELin1ELi1EEELin1ELi1ELb0EEEEC2Ev"
 "_ZN5Eigen8internal14evaluator_baseINS_5BlockINS_5ArrayIdLin1ELi1ELi0ELin1ELi1EEELin1ELi1ELb0EEEED2Ev"
 "_ZN5Eigen8internal14evaluator_baseINS_5BlockINS_5ArrayIN5CppAD2ADIdEELin1ELi1ELi0ELin1ELi1EEELin1ELi1ELb0EEEEC2Ev"
 "_ZN5Eigen8internal14evaluator_baseINS_5BlockINS_5ArrayIN5CppAD2ADIdEELin1ELi1ELi0ELin1ELi1EEELin1ELi1ELb0EEEED2Ev"
 "_ZN5Eigen8internal14evaluator_baseINS_5BlockINS_5ArrayIN5CppAD2ADINS5_IdEEEELin1ELi1ELi0ELin1ELi1EEELin1ELi1ELb0EEEEC2Ev"
 "_ZN5Eigen8internal14evaluator_baseINS_5BlockINS_5ArrayIN5CppAD2ADINS5_IdEEEELin1ELi1ELi0ELin1ELi1EEELin1ELi1ELb0EEEED2Ev"
 "_ZN5Eigen8internal14evaluator_baseINS_5BlockINS_5ArrayIN5CppAD2ADINS5_INS5_IdEEEEEELin1ELi1ELi0ELin1ELi1EEELin1ELi1ELb0EEEEC2Ev"
 "_ZN5Eigen8internal14evaluator_baseINS_5BlockINS_5ArrayIN5CppAD2ADINS5_INS5_IdEEEEEELin1ELi1ELi0ELin1ELi1EEELin1ELi1ELb0EEEED2Ev"
 "_ZN5Eigen8internal14evaluator_baseINS_5BlockINS_5ArrayIN8tmbutils6matrixIdEELin1ELi1ELi0ELin1ELi1EEELin1ELi1ELb0EEEEC2Ev"
 "_ZN5Eigen8internal14evaluator_baseINS_5BlockINS_5ArrayIN8tmbutils6matrixIdEELin1ELi1ELi0ELin1ELi1EEELin1ELi1ELb0EEEED2Ev"
 "_ZN5Eigen8internal14evaluator_baseINS_5BlockINS_6MatrixIdLin1ELin1ELi0ELin1ELin1EEELi1ELin1ELb0EEEEC2Ev"
 "_ZN5Eigen8internal14evaluator_baseINS_5BlockINS_6MatrixIdLin1ELin1ELi0ELin1ELin1EEELi1ELin1ELb0EEEED2Ev"
 "_ZN5Eigen8internal14evaluator_baseINS_5BlockINS2_INS_3MapINS_6MatrixIdLin1ELin1ELi0ELin1ELin1EEELi0ENS_6StrideILi0ELi0EEEEELin1ELin1ELb0EEELi1ELin1ELb0EEEEC2Ev"
 "_ZN5Eigen8internal14evaluator_baseINS_5BlockINS2_INS_3MapINS_6MatrixIdLin1ELin1ELi0ELin1ELin1EEELi0ENS_6StrideILi0ELi0EEEEELin1ELin1ELb0EEELi1ELin1ELb0EEEED2Ev"
 "_ZN5Eigen8internal14evaluator_baseINS_5BlockINS2_INS_3MapINS_6MatrixIdLin1ELin1ELi0ELin1ELin1EEELi0ENS_6StrideILi0ELi0EEEEELin1ELin1ELb0EEELin1ELin1ELb0EEEEC2Ev"
 "_ZN5Eigen8internal14evaluator_baseINS_5BlockINS2_INS_3MapINS_6MatrixIdLin1ELin1ELi0ELin1ELin1EEELi0ENS_6StrideILi0ELi0EEEEELin1ELin1ELb0EEELin1ELin1ELb0EEEED2Ev"
 "_ZN5Eigen8internal14evaluator_baseINS_5BlockINS2_INS2_INS_3MapINS_6MatrixIdLin1ELin1ELi0ELin1ELin1EEELi0ENS_6StrideILi0ELi0EEEEELin1ELin1ELb0EEELi1ELin1ELb0EEELi1ELin1ELb0EEEEC2Ev"
 "_ZN5Eigen8internal14evaluator_baseINS_5BlockINS2_INS2_INS_3MapINS_6MatrixIdLin1ELin1ELi0ELin1ELin1EEELi0ENS_6StrideILi0ELi0EEEEELin1ELin1ELb0EEELi1ELin1ELb0EEELi1ELin1ELb0EEEED2Ev"
 "_ZN5Eigen8internal14evaluator_baseINS_5BlockINS2_INS2_INS_3MapINS_6MatrixIdLin1ELin1ELi0ELin1ELin1EEELi0ENS_6StrideILi0ELi0EEEEELin1ELin1ELb0EEELin1ELi1ELb1EEELin1ELi1ELb0EEEEC2Ev"
 "_ZN5Eigen8internal14evaluator_baseINS_5BlockINS2_INS2_INS_3MapINS_6MatrixIdLin1ELin1ELi0ELin1ELin1EEELi0ENS_6StrideILi0ELi0EEEEELin1ELin1ELb0EEELin1ELi1ELb1EEELin1ELi1ELb0EEEED2Ev"
 "_ZN5Eigen8internal14evaluator_baseINS_5BlockINS2_INS2_INS_3MapINS_6MatrixIdLin1ELin1ELi0ELin1ELin1EEELi0ENS_6StrideILi0ELi0EEEEELin1ELin1ELb0EEELin1ELin1ELb0EEELi1ELin1ELb0EEEEC2Ev"
 "_ZN5Eigen8internal14evaluator_baseINS_5BlockINS2_INS2_INS_3MapINS_6MatrixIdLin1ELin1ELi0ELin1ELin1EEELi0ENS_6StrideILi0ELi0EEEEELin1ELin1ELb0EEELin1ELin1ELb0EEELi1ELin1ELb0EEEED2Ev"
 "_ZN5Eigen8internal14evaluator_baseINS_5BlockINS2_INS2_INS_3MapINS_6MatrixIdLin1ELin1ELi0ELin1ELin1EEELi0ENS_6StrideILi0ELi0EEEEELin1ELin1ELb0EEELin1ELin1ELb0EEELin1ELi1ELb1EEEEC2Ev"
 "_ZN5Eigen8internal14evaluator_baseINS_5BlockINS2_INS2_INS_3MapINS_6MatrixIdLin1ELin1ELi0ELin1ELin1EEELi0ENS_6StrideILi0ELi0EEEEELin1ELin1ELb0EEELin1ELin1ELb0EEELin1ELi1ELb1EEEED2Ev"
 "_ZN5Eigen8internal14evaluator_baseINS_6MatrixIbLin1ELi1ELi0ELin1ELi1EEEEC2Ev"
 "_ZN5Eigen8internal14evaluator_baseINS_6MatrixIbLin1ELi1ELi0ELin1ELi1EEEED2Ev"
 "_ZN5Eigen8internal14evaluator_baseINS_6MatrixIdLin1ELi1ELi0ELin1ELi1EEEEC2Ev"
 "_ZN5Eigen8internal14evaluator_baseINS_6MatrixIdLin1ELi1ELi0ELin1ELi1EEEED2Ev"
 "_ZN5Eigen8internal14evaluator_baseINS_6MatrixIdLin1ELin1ELi0ELin1ELin1EEEEC2Ev"
 "_ZN5Eigen8internal14evaluator_baseINS_6MatrixIdLin1ELin1ELi0ELin1ELin1EEEED2Ev"
 "_ZN5Eigen8internal14evaluator_baseINS_6MatrixIiLin1ELin1ELi0ELin1ELin1EEEEC2Ev"
 "_ZN5Eigen8internal14evaluator_baseINS_6MatrixIiLin1ELin1ELi0ELin1ELin1EEEED2Ev"
 "_ZN5Eigen8internal14evaluator_baseINS_6MatrixIN5CppAD2ADIdEELin1ELin1ELi0ELin1ELin1EEEEC2Ev"
 "_ZN5Eigen8internal14evaluator_baseINS_6MatrixIN5CppAD2ADIdEELin1ELin1ELi0ELin1ELin1EEEED2Ev"
 "_ZN5Eigen8internal14evaluator_baseINS_6MatrixIN5CppAD2ADINS4_IdEEEELin1ELin1ELi0ELin1ELin1EEEEC2Ev"
 "_ZN5Eigen8internal14evaluator_baseINS_6MatrixIN5CppAD2ADINS4_IdEEEELin1ELin1ELi0ELin1ELin1EEEED2Ev"
 "_ZN5Eigen8internal14evaluator_baseINS_6MatrixIN5CppAD2ADINS4_INS4_IdEEEEEELin1ELin1ELi0ELin1ELin1EEEEC2Ev"
 "_ZN5Eigen8internal14evaluator_baseINS_6MatrixIN5CppAD2ADINS4_INS4_IdEEEEEELin1ELin1ELi0ELin1ELin1EEEED2Ev"
 "_ZN5Eigen8internal14evaluator_baseINS_7ProductINS_5BlockINS3_INS_3MapINS_6MatrixIdLin1ELin1ELi0ELin1ELin1EEELi0ENS_6StrideILi0ELi0EEEEELin1ELin1ELb0EEELin1ELin1ELb0EEESB_Li1EEEEC2Ev"
 "_ZN5Eigen8internal14evaluator_baseINS_7ProductINS_5BlockINS3_INS_3MapINS_6MatrixIdLin1ELin1ELi0ELin1ELin1EEELi0ENS_6StrideILi0ELi0EEEEELin1ELin1ELb0EEELin1ELin1ELb0EEESB_Li1EEEED2Ev"
 "_ZN5Eigen8internal14evaluator_baseINS_7ProductINS_6MatrixIdLin1ELin1ELi0ELin1ELin1EEES4_Li1EEEEC2Ev"
 "_ZN5Eigen8internal14evaluator_baseINS_7ProductINS_6MatrixIdLin1ELin1ELi0ELin1ELin1EEES4_Li1EEEED2Ev"
 "_ZN5Eigen8internal14evaluator_baseINS_9TransposeIKNS_5BlockIKNS_6MatrixIdLin1ELin1ELi0ELin1ELin1EEELi1ELin1ELb0EEEEEEC2Ev"
 "_ZN5Eigen8internal14evaluator_baseINS_9TransposeIKNS_5BlockIKNS_6MatrixIdLin1ELin1ELi0ELin1ELin1EEELi1ELin1ELb0EEEEEED2Ev"
 "_ZN5Eigen8internal14evaluator_baseINS_9TransposeIKNS_5BlockIKNS3_INS3_INS_3MapINS_6MatrixIdLin1ELin1ELi0ELin1ELin1EEELi0ENS_6StrideILi0ELi0EEEEELin1ELin1ELb0EEELin1ELin1ELb0EEELi1ELin1ELb0EEEEEEC2Ev"
 "_ZN5Eigen8internal14evaluator_baseINS_9TransposeIKNS_5BlockIKNS3_INS3_INS_3MapINS_6MatrixIdLin1ELin1ELi0ELin1ELin1EEELi0ENS_6StrideILi0ELi0EEEEELin1ELin1ELb0EEELin1ELin1ELb0EEELi1ELin1ELb0EEEEEED2Ev"
 "_ZN5Eigen8internal14evaluator_baseINS_9TransposeINS_5BlockINS_6MatrixIdLin1ELin1ELi0ELin1ELin1EEELi1ELin1ELb0EEEEEEC2Ev"
 "_ZN5Eigen8internal14evaluator_baseINS_9TransposeINS_5BlockINS_6MatrixIdLin1ELin1ELi0ELin1ELin1EEELi1ELin1ELb0EEEEEED2Ev"
 "_ZN5Eigen8internal14scalar_cast_opIbiEC1ERKS2_"
 "_ZN5Eigen8internal14scalar_cast_opIbiEC1Ev"
 "_ZN5Eigen8internal14scalar_cast_opIdiEC1ERKS2_"
 "_ZN5Eigen8internal14scalar_cast_opIdiEC1Ev"
 "_ZN5Eigen8internal14scalar_cast_opIdN5CppAD2ADIdEEEC1ERKS5_"
 "_ZN5Eigen8internal14scalar_cast_opIdN5CppAD2ADIdEEEC1Ev"
 "_ZN5Eigen8internal14scalar_cast_opIdN5CppAD2ADINS3_IdEEEEEC1ERKS6_"
 "_ZN5Eigen8internal14scalar_cast_opIdN5CppAD2ADINS3_IdEEEEEC1Ev"
 "_ZN5Eigen8internal14scalar_cast_opIdN5CppAD2ADINS3_INS3_IdEEEEEEEC1ERKS7_"
 "_ZN5Eigen8internal14scalar_cast_opIdN5CppAD2ADINS3_INS3_IdEEEEEEEC1Ev"
 "_ZN5Eigen8internal14swap_assign_opIdEC1Ev"
 "_ZN5Eigen8internal15aligned_reallocEPvyy"
 "_ZN5Eigen8internal15block_evaluatorIKNS_12CwiseUnaryOpINS0_13scalar_abs_opIdEEKNS_6MatrixIdLin1ELin1ELi0ELin1ELin1EEEEELin1ELi1ELb1ELb0EEC2ERKNS_5BlockIS9_Lin1ELi1ELb1EEE"
 "_ZN5Eigen8internal15block_evaluatorIKNS_12CwiseUnaryOpINS0_13scalar_abs_opIdEEKNS_6MatrixIdLin1ELin1ELi0ELin1ELin1EEEEELin1ELi1ELb1ELb0EED2Ev"
 "_ZN5Eigen8internal15block_evaluatorIKNS_14CwiseNullaryOpINS0_18scalar_identity_opIdEENS_6MatrixIdLin1ELin1ELi0ELin1ELin1EEEEELi1ELin1ELb0ELb0EEC2ERKNS_5BlockIS8_Li1ELin1ELb0EEE"
 "_ZN5Eigen8internal15block_evaluatorIKNS_14CwiseNullaryOpINS0_18scalar_identity_opIdEENS_6MatrixIdLin1ELin1ELi0ELin1ELin1EEEEELi1ELin1ELb0ELb0EED2Ev"
 "_ZN5Eigen8internal15block_evaluatorIKNS_5BlockINS2_INS_3MapINS_6MatrixIdLin1ELin1ELi0ELin1ELin1EEELi0ENS_6StrideILi0ELi0EEEEELin1ELin1ELb0EEELin1ELin1ELb0EEELi1ELin1ELb0ELb1EEC2ERKNS2_ISB_Li1ELin1ELb0EEE"
 "_ZN5Eigen8internal15block_evaluatorIKNS_5BlockINS2_INS_3MapINS_6MatrixIdLin1ELin1ELi0ELin1ELin1EEELi0ENS_6StrideILi0ELi0EEEEELin1ELin1ELb0EEELin1ELin1ELb0EEELi1ELin1ELb0ELb1EED2Ev"
 "_ZN5Eigen8internal15block_evaluatorIKNS_5BlockINS2_INS_3MapINS_6MatrixIdLin1ELin1ELi0ELin1ELin1EEELi0ENS_6StrideILi0ELi0EEEEELin1ELin1ELb0EEELin1ELin1ELb0EEELin1ELi1ELb1ELb1EEC2ERKNS2_ISB_Lin1ELi1ELb1EEE"
 "_ZN5Eigen8internal15block_evaluatorIKNS_5BlockINS2_INS_3MapINS_6MatrixIdLin1ELin1ELi0ELin1ELin1EEELi0ENS_6StrideILi0ELi0EEEEELin1ELin1ELb0EEELin1ELin1ELb0EEELin1ELi1ELb1ELb1EED2Ev"
 "_ZN5Eigen8internal15block_evaluatorIKNS_6MatrixIdLin1ELin1ELi0ELin1ELin1EEELi1ELin1ELb0ELb1EEC2ERKNS_5BlockIS4_Li1ELin1ELb0EEE"
 "_ZN5Eigen8internal15block_evaluatorIKNS_6MatrixIdLin1ELin1ELi0ELin1ELin1EEELi1ELin1ELb0ELb1EED2Ev"
 "_ZN5Eigen8internal15block_evaluatorIKNS_6MatrixIdLin1ELin1ELi0ELin1ELin1EEELin1ELi1ELb1ELb1EEC2ERKNS_5BlockIS4_Lin1ELi1ELb1EEE"
 "_ZN5Eigen8internal15block_evaluatorIKNS_6MatrixIdLin1ELin1ELi0ELin1ELin1EEELin1ELi1ELb1ELb1EED2Ev"
 "_ZN5Eigen8internal15block_evaluatorIKNS_6MatrixIdLin1ELin1ELi0ELin1ELin1EEELin1ELin1ELb0ELb1EEC2ERKNS_5BlockIS4_Lin1ELin1ELb0EEE"
 "_ZN5Eigen8internal15block_evaluatorIKNS_6MatrixIdLin1ELin1ELi0ELin1ELin1EEELin1ELin1ELb0ELb1EED2Ev"
 "_ZN5Eigen8internal15block_evaluatorINS_5ArrayIdLin1ELi1ELi0ELin1ELi1EEELin1ELi1ELb0ELb1EEC2ERKNS_5BlockIS3_Lin1ELi1ELb0EEE"
 "_ZN5Eigen8internal15block_evaluatorINS_5ArrayIdLin1ELi1ELi0ELin1ELi1EEELin1ELi1ELb0ELb1EED2Ev"
 "_ZN5Eigen8internal15block_evaluatorINS_5ArrayIN5CppAD2ADIdEELin1ELi1ELi0ELin1ELi1EEELin1ELi1ELb0ELb1EEC2ERKNS_5BlockIS6_Lin1ELi1ELb0EEE"
 "_ZN5Eigen8internal15block_evaluatorINS_5ArrayIN5CppAD2ADIdEELin1ELi1ELi0ELin1ELi1EEELin1ELi1ELb0ELb1EED2Ev"
 "_ZN5Eigen8internal15block_evaluatorINS_5ArrayIN5CppAD2ADINS4_IdEEEELin1ELi1ELi0ELin1ELi1EEELin1ELi1ELb0ELb1EEC2ERKNS_5BlockIS7_Lin1ELi1ELb0EEE"
 "_ZN5Eigen8internal15block_evaluatorINS_5ArrayIN5CppAD2ADINS4_IdEEEELin1ELi1ELi0ELin1ELi1EEELin1ELi1ELb0ELb1EED2Ev"
 "_ZN5Eigen8internal15block_evaluatorINS_5ArrayIN5CppAD2ADINS4_INS4_IdEEEEEELin1ELi1ELi0ELin1ELi1EEELin1ELi1ELb0ELb1EEC2ERKNS_5BlockIS8_Lin1ELi1ELb0EEE"
 "_ZN5Eigen8internal15block_evaluatorINS_5ArrayIN5CppAD2ADINS4_INS4_IdEEEEEELin1ELi1ELi0ELin1ELi1EEELin1ELi1ELb0ELb1EED2Ev"
 "_ZN5Eigen8internal15block_evaluatorINS_5ArrayIN8tmbutils6matrixIdEELin1ELi1ELi0ELin1ELi1EEELin1ELi1ELb0ELb1EEC2ERKNS_5BlockIS6_Lin1ELi1ELb0EEE"
 "_ZN5Eigen8internal15block_evaluatorINS_5ArrayIN8tmbutils6matrixIdEELin1ELi1ELi0ELin1ELi1EEELin1ELi1ELb0ELb1EED2Ev"
 "_ZN5Eigen8internal15block_evaluatorINS_5BlockINS_3MapINS_6MatrixIdLin1ELin1ELi0ELin1ELin1EEELi0ENS_6StrideILi0ELi0EEEEELin1ELin1ELb0EEELi1ELin1ELb0ELb1EEC2ERKNS2_IS9_Li1ELin1ELb0EEE"
 "_ZN5Eigen8internal15block_evaluatorINS_5BlockINS_3MapINS_6MatrixIdLin1ELin1ELi0ELin1ELin1EEELi0ENS_6StrideILi0ELi0EEEEELin1ELin1ELb0EEELi1ELin1ELb0ELb1EED2Ev"
 "_ZN5Eigen8internal15block_evaluatorINS_5BlockINS_3MapINS_6MatrixIdLin1ELin1ELi0ELin1ELin1EEELi0ENS_6StrideILi0ELi0EEEEELin1ELin1ELb0EEELin1ELin1ELb0ELb1EEC2ERKNS2_IS9_Lin1ELin1ELb0EEE"
 "_ZN5Eigen8internal15block_evaluatorINS_5BlockINS_3MapINS_6MatrixIdLin1ELin1ELi0ELin1ELin1EEELi0ENS_6StrideILi0ELi0EEEEELin1ELin1ELb0EEELin1ELin1ELb0ELb1EED2Ev"
 "_ZN5Eigen8internal15block_evaluatorINS_5BlockINS2_INS_3MapINS_6MatrixIdLin1ELin1ELi0ELin1ELin1EEELi0ENS_6StrideILi0ELi0EEEEELin1ELin1ELb0EEELi1ELin1ELb0EEELi1ELin1ELb0ELb1EEC2ERKNS2_ISA_Li1ELin1ELb0EEE"
 "_ZN5Eigen8internal15block_evaluatorINS_5BlockINS2_INS_3MapINS_6MatrixIdLin1ELin1ELi0ELin1ELin1EEELi0ENS_6StrideILi0ELi0EEEEELin1ELin1ELb0EEELi1ELin1ELb0EEELi1ELin1ELb0ELb1EED2Ev"
 "_ZN5Eigen8internal15block_evaluatorINS_5BlockINS2_INS_3MapINS_6MatrixIdLin1ELin1ELi0ELin1ELin1EEELi0ENS_6StrideILi0ELi0EEEEELin1ELin1ELb0EEELin1ELi1ELb1EEELin1ELi1ELb0ELb1EEC2ERKNS2_ISA_Lin1ELi1ELb0EEE"
 "_ZN5Eigen8internal15block_evaluatorINS_5BlockINS2_INS_3MapINS_6MatrixIdLin1ELin1ELi0ELin1ELin1EEELi0ENS_6StrideILi0ELi0EEEEELin1ELin1ELb0EEELin1ELi1ELb1EEELin1ELi1ELb0ELb1EED2Ev"
 "_ZN5Eigen8internal15block_evaluatorINS_5BlockINS2_INS_3MapINS_6MatrixIdLin1ELin1ELi0ELin1ELin1EEELi0ENS_6StrideILi0ELi0EEEEELin1ELin1ELb0EEELin1ELin1ELb0EEELi1ELin1ELb0ELb1EEC2ERKNS2_ISA_Li1ELin1ELb0EEE"
 "_ZN5Eigen8internal15block_evaluatorINS_5BlockINS2_INS_3MapINS_6MatrixIdLin1ELin1ELi0ELin1ELin1EEELi0ENS_6StrideILi0ELi0EEEEELin1ELin1ELb0EEELin1ELin1ELb0EEELi1ELin1ELb0ELb1EED2Ev"
 "_ZN5Eigen8internal15block_evaluatorINS_5BlockINS2_INS_3MapINS_6MatrixIdLin1ELin1ELi0ELin1ELin1EEELi0ENS_6StrideILi0ELi0EEEEELin1ELin1ELb0EEELin1ELin1ELb0EEELin1ELi1ELb1ELb1EEC2ERKNS2_ISA_Lin1ELi1ELb1EEE"
 "_ZN5Eigen8internal15block_evaluatorINS_5BlockINS2_INS_3MapINS_6MatrixIdLin1ELin1ELi0ELin1ELin1EEELi0ENS_6StrideILi0ELi0EEEEELin1ELin1ELb0EEELin1ELin1ELb0EEELin1ELi1ELb1ELb1EED2Ev"
 "_ZN5Eigen8internal15block_evaluatorINS_6MatrixIdLin1ELin1ELi0ELin1ELin1EEELi1ELin1ELb0ELb1EEC2ERKNS_5BlockIS3_Li1ELin1ELb0EEE"
 "_ZN5Eigen8internal15block_evaluatorINS_6MatrixIdLin1ELin1ELi0ELin1ELin1EEELi1ELin1ELb0ELb1EED2Ev"
 "_ZN5Eigen8internal15BlockImpl_denseIKNS_12CwiseUnaryOpINS0_13scalar_abs_opIdEEKNS_6MatrixIdLin1ELin1ELi0ELin1ELin1EEEEELin1ELi1ELb1ELb0EEC2ERS9_x"
 "_ZN5Eigen8internal15BlockImpl_denseIKNS_14CwiseNullaryOpINS0_18scalar_identity_opIdEENS_6MatrixIdLin1ELin1ELi0ELin1ELin1EEEEELi1ELin1ELb0ELb0EEC2ERS8_x"
 "_ZN5Eigen8internal15BlockImpl_denseIKNS_5BlockINS2_INS_3MapINS_6MatrixIdLin1ELin1ELi0ELin1ELin1EEELi0ENS_6StrideILi0ELi0EEEEELin1ELin1ELb0EEELin1ELin1ELb0EEELi1ELin1ELb0ELb1EE4initEv"
 "_ZN5Eigen8internal15BlockImpl_denseIKNS_5BlockINS2_INS_3MapINS_6MatrixIdLin1ELin1ELi0ELin1ELin1EEELi0ENS_6StrideILi0ELi0EEEEELin1ELin1ELb0EEELin1ELin1ELb0EEELi1ELin1ELb0ELb1EEC2ERKSC_"
 "_ZN5Eigen8internal15BlockImpl_denseIKNS_5BlockINS2_INS_3MapINS_6MatrixIdLin1ELin1ELi0ELin1ELin1EEELi0ENS_6StrideILi0ELi0EEEEELin1ELin1ELb0EEELin1ELin1ELb0EEELi1ELin1ELb0ELb1EEC2ERSB_x"
 "_ZN5Eigen8internal15BlockImpl_denseIKNS_5BlockINS2_INS_3MapINS_6MatrixIdLin1ELin1ELi0ELin1ELin1EEELi0ENS_6StrideILi0ELi0EEEEELin1ELin1ELb0EEELin1ELin1ELb0EEELin1ELi1ELb1ELb1EE4initEv"
 "_ZN5Eigen8internal15BlockImpl_denseIKNS_5BlockINS2_INS_3MapINS_6MatrixIdLin1ELin1ELi0ELin1ELin1EEELi0ENS_6StrideILi0ELi0EEEEELin1ELin1ELb0EEELin1ELin1ELb0EEELin1ELi1ELb1ELb1EEC2ERKSC_"
 "_ZN5Eigen8internal15BlockImpl_denseIKNS_5BlockINS2_INS_3MapINS_6MatrixIdLin1ELin1ELi0ELin1ELin1EEELi0ENS_6StrideILi0ELi0EEEEELin1ELin1ELb0EEELin1ELin1ELb0EEELin1ELi1ELb1ELb1EEC2ERSB_x"
 "_ZN5Eigen8internal15BlockImpl_denseIKNS_6MatrixIdLin1ELin1ELi0ELin1ELin1EEELi1ELin1ELb0ELb1EE4initEv"
 "_ZN5Eigen8internal15BlockImpl_denseIKNS_6MatrixIdLin1ELin1ELi0ELin1ELin1EEELi1ELin1ELb0ELb1EEC2ERKS5_"
 "_ZN5Eigen8internal15BlockImpl_denseIKNS_6MatrixIdLin1ELin1ELi0ELin1ELin1EEELi1ELin1ELb0ELb1EEC2ERS4_x"
 "_ZN5Eigen8internal15BlockImpl_denseIKNS_6MatrixIdLin1ELin1ELi0ELin1ELin1EEELin1ELi1ELb1ELb1EE4initEv"
 "_ZN5Eigen8internal15BlockImpl_denseIKNS_6MatrixIdLin1ELin1ELi0ELin1ELin1EEELin1ELi1ELb1ELb1EEC2ERKS5_"
 "_ZN5Eigen8internal15BlockImpl_denseIKNS_6MatrixIdLin1ELin1ELi0ELin1ELin1EEELin1ELi1ELb1ELb1EEC2ERS4_x"
 "_ZN5Eigen8internal15BlockImpl_denseIKNS_6MatrixIdLin1ELin1ELi0ELin1ELin1EEELin1ELin1ELb0ELb1EE4initEv"
 "_ZN5Eigen8internal15BlockImpl_denseIKNS_6MatrixIdLin1ELin1ELi0ELin1ELin1EEELin1ELin1ELb0ELb1EEC2ERS4_xxxx"
 "_ZN5Eigen8internal15BlockImpl_denseINS_3MapINS_6MatrixIdLin1ELin1ELi0ELin1ELin1EEELi0ENS_6StrideILi0ELi0EEEEELin1ELin1ELb0ELb1EE4initEv"
 "_ZN5Eigen8internal15BlockImpl_denseINS_3MapINS_6MatrixIdLin1ELin1ELi0ELin1ELin1EEELi0ENS_6StrideILi0ELi0EEEEELin1ELin1ELb0ELb1EEC2ERKS8_"
 "_ZN5Eigen8internal15BlockImpl_denseINS_3MapINS_6MatrixIdLin1ELin1ELi0ELin1ELin1EEELi0ENS_6StrideILi0ELi0EEEEELin1ELin1ELb0ELb1EEC2ERS7_xxxx"
 "_ZN5Eigen8internal15BlockImpl_denseINS_5ArrayIdLin1ELi1ELi0ELin1ELi1EEELin1ELi1ELb0ELb1EE4initEv"
 "_ZN5Eigen8internal15BlockImpl_denseINS_5ArrayIdLin1ELi1ELi0ELin1ELi1EEELin1ELi1ELb0ELb1EEC2ERS3_xxxx"
 "_ZN5Eigen8internal15BlockImpl_denseINS_5ArrayIN5CppAD2ADIdEELin1ELi1ELi0ELin1ELi1EEELin1ELi1ELb0ELb1EE4initEv"
 "_ZN5Eigen8internal15BlockImpl_denseINS_5ArrayIN5CppAD2ADIdEELin1ELi1ELi0ELin1ELi1EEELin1ELi1ELb0ELb1EEC2ERS6_xxxx"
 "_ZN5Eigen8internal15BlockImpl_denseINS_5ArrayIN5CppAD2ADINS4_IdEEEELin1ELi1ELi0ELin1ELi1EEELin1ELi1ELb0ELb1EE4initEv"
 "_ZN5Eigen8internal15BlockImpl_denseINS_5ArrayIN5CppAD2ADINS4_IdEEEELin1ELi1ELi0ELin1ELi1EEELin1ELi1ELb0ELb1EEC2ERS7_xxxx"
 "_ZN5Eigen8internal15BlockImpl_denseINS_5ArrayIN5CppAD2ADINS4_INS4_IdEEEEEELin1ELi1ELi0ELin1ELi1EEELin1ELi1ELb0ELb1EE4initEv"
 "_ZN5Eigen8internal15BlockImpl_denseINS_5ArrayIN5CppAD2ADINS4_INS4_IdEEEEEELin1ELi1ELi0ELin1ELi1EEELin1ELi1ELb0ELb1EEC2ERS8_xxxx"
 "_ZN5Eigen8internal15BlockImpl_denseINS_5ArrayIN8tmbutils6matrixIdEELin1ELi1ELi0ELin1ELi1EEELin1ELi1ELb0ELb1EE4initEv"
 "_ZN5Eigen8internal15BlockImpl_denseINS_5ArrayIN8tmbutils6matrixIdEELin1ELi1ELi0ELin1ELi1EEELin1ELi1ELb0ELb1EEC2ERS6_xxxx"
 "_ZN5Eigen8internal15BlockImpl_denseINS_5BlockINS_3MapINS_6MatrixIdLin1ELin1ELi0ELin1ELin1EEELi0ENS_6StrideILi0ELi0EEEEELin1ELin1ELb0EEELi1ELin1ELb0ELb1EE4initEv"
 "_ZN5Eigen8internal15BlockImpl_denseINS_5BlockINS_3MapINS_6MatrixIdLin1ELin1ELi0ELin1ELin1EEELi0ENS_6StrideILi0ELi0EEEEELin1ELin1ELb0EEELi1ELin1ELb0ELb1EEC2ERKSA_"
 "_ZN5Eigen8internal15BlockImpl_denseINS_5BlockINS_3MapINS_6MatrixIdLin1ELin1ELi0ELin1ELin1EEELi0ENS_6StrideILi0ELi0EEEEELin1ELin1ELb0EEELi1ELin1ELb0ELb1EEC2ERS9_x"
 "_ZN5Eigen8internal15BlockImpl_denseINS_5BlockINS_3MapINS_6MatrixIdLin1ELin1ELi0ELin1ELin1EEELi0ENS_6StrideILi0ELi0EEEEELin1ELin1ELb0EEELin1ELi1ELb1ELb1EE4initEv"
 "_ZN5Eigen8internal15BlockImpl_denseINS_5BlockINS_3MapINS_6MatrixIdLin1ELin1ELi0ELin1ELin1EEELi0ENS_6StrideILi0ELi0EEEEELin1ELin1ELb0EEELin1ELi1ELb1ELb1EEC2ERKSA_"
 "_ZN5Eigen8internal15BlockImpl_denseINS_5BlockINS_3MapINS_6MatrixIdLin1ELin1ELi0ELin1ELin1EEELi0ENS_6StrideILi0ELi0EEEEELin1ELin1ELb0EEELin1ELi1ELb1ELb1EEC2ERS9_x"
 "_ZN5Eigen8internal15BlockImpl_denseINS_5BlockINS_3MapINS_6MatrixIdLin1ELin1ELi0ELin1ELin1EEELi0ENS_6StrideILi0ELi0EEEEELin1ELin1ELb0EEELin1ELin1ELb0ELb1EE4initEv"
 "_ZN5Eigen8internal15BlockImpl_denseINS_5BlockINS_3MapINS_6MatrixIdLin1ELin1ELi0ELin1ELin1EEELi0ENS_6StrideILi0ELi0EEEEELin1ELin1ELb0EEELin1ELin1ELb0ELb1EEC2ERKSA_"
 "_ZN5Eigen8internal15BlockImpl_denseINS_5BlockINS_3MapINS_6MatrixIdLin1ELin1ELi0ELin1ELin1EEELi0ENS_6StrideILi0ELi0EEEEELin1ELin1ELb0EEELin1ELin1ELb0ELb1EEC2ERS9_xxxx"
 "_ZN5Eigen8internal15BlockImpl_denseINS_5BlockINS2_INS_3MapINS_6MatrixIdLin1ELin1ELi0ELin1ELin1EEELi0ENS_6StrideILi0ELi0EEEEELin1ELin1ELb0EEELi1ELin1ELb0EEELi1ELin1ELb0ELb1EE4initEv"
 "_ZN5Eigen8internal15BlockImpl_denseINS_5BlockINS2_INS_3MapINS_6MatrixIdLin1ELin1ELi0ELin1ELin1EEELi0ENS_6StrideILi0ELi0EEEEELin1ELin1ELb0EEELi1ELin1ELb0EEELi1ELin1ELb0ELb1EEC2ERKSB_"
 "_ZN5Eigen8internal15BlockImpl_denseINS_5BlockINS2_INS_3MapINS_6MatrixIdLin1ELin1ELi0ELin1ELin1EEELi0ENS_6StrideILi0ELi0EEEEELin1ELin1ELb0EEELi1ELin1ELb0EEELi1ELin1ELb0ELb1EEC2ERSA_xxxx"
 "_ZN5Eigen8internal15BlockImpl_denseINS_5BlockINS2_INS_3MapINS_6MatrixIdLin1ELin1ELi0ELin1ELin1EEELi0ENS_6StrideILi0ELi0EEEEELin1ELin1ELb0EEELin1ELi1ELb1EEELin1ELi1ELb0ELb1EE4initEv"
 "_ZN5Eigen8internal15BlockImpl_denseINS_5BlockINS2_INS_3MapINS_6MatrixIdLin1ELin1ELi0ELin1ELin1EEELi0ENS_6StrideILi0ELi0EEEEELin1ELin1ELb0EEELin1ELi1ELb1EEELin1ELi1ELb0ELb1EEC2ERKSB_"
 "_ZN5Eigen8internal15BlockImpl_denseINS_5BlockINS2_INS_3MapINS_6MatrixIdLin1ELin1ELi0ELin1ELin1EEELi0ENS_6StrideILi0ELi0EEEEELin1ELin1ELb0EEELin1ELi1ELb1EEELin1ELi1ELb0ELb1EEC2ERSA_xxxx"
 "_ZN5Eigen8internal15BlockImpl_denseINS_5BlockINS2_INS_3MapINS_6MatrixIdLin1ELin1ELi0ELin1ELin1EEELi0ENS_6StrideILi0ELi0EEEEELin1ELin1ELb0EEELin1ELin1ELb0EEELi1ELin1ELb0ELb1EE4initEv"
 "_ZN5Eigen8internal15BlockImpl_denseINS_5BlockINS2_INS_3MapINS_6MatrixIdLin1ELin1ELi0ELin1ELin1EEELi0ENS_6StrideILi0ELi0EEEEELin1ELin1ELb0EEELin1ELin1ELb0EEELi1ELin1ELb0ELb1EEC2ERSA_x"
 "_ZN5Eigen8internal15BlockImpl_denseINS_5BlockINS2_INS_3MapINS_6MatrixIdLin1ELin1ELi0ELin1ELin1EEELi0ENS_6StrideILi0ELi0EEEEELin1ELin1ELb0EEELin1ELin1ELb0EEELin1ELi1ELb1ELb1EE4initEv"
 "_ZN5Eigen8internal15BlockImpl_denseINS_5BlockINS2_INS_3MapINS_6MatrixIdLin1ELin1ELi0ELin1ELin1EEELi0ENS_6StrideILi0ELi0EEEEELin1ELin1ELb0EEELin1ELin1ELb0EEELin1ELi1ELb1ELb1EEC2ERSA_x"
 "_ZN5Eigen8internal15BlockImpl_denseINS_6MatrixIdLin1ELin1ELi0ELin1ELin1EEELi1ELin1ELb0ELb1EE4initEv"
 "_ZN5Eigen8internal15BlockImpl_denseINS_6MatrixIdLin1ELin1ELi0ELin1ELin1EEELi1ELin1ELb0ELb1EEC2ERKS4_"
 "_ZN5Eigen8internal15BlockImpl_denseINS_6MatrixIdLin1ELin1ELi0ELin1ELin1EEELi1ELin1ELb0ELb1EEC2ERS3_x"
 "_ZN5Eigen8internal15call_assignmentINS_5ArrayIdLin1ELi1ELi0ELin1ELi1EEENS_13CwiseBinaryOpINS0_13scalar_sum_opIddEEKS3_S7_EEEEvRT_RKT0_"
 "_ZN5Eigen8internal15call_assignmentINS_5ArrayIdLin1ELi1ELi0ELin1ELi1EEENS_13CwiseBinaryOpINS0_13scalar_sum_opIddEEKS3_S7_EENS0_9assign_opIddEEEEvRT_RKT0_RKT1_NS0_9enable_ifIXntsrNS0_25evaluator_assume_aliasingISD_NS0_16evaluator_traitsISD_E5ShapeEEE5valueEPvE4typeE"
 "_ZN5Eigen8internal15call_assignmentINS_5ArrayIdLin1ELi1ELi0ELin1ELi1EEENS_14CwiseNullaryOpINS0_18scalar_constant_opIdEES3_EEEEvRT_RKT0_"
 "_ZN5Eigen8internal15call_assignmentINS_5ArrayIdLin1ELi1ELi0ELin1ELi1EEENS_14CwiseNullaryOpINS0_18scalar_constant_opIdEES3_EENS0_9assign_opIddEEEEvRT_RKT0_RKT1_NS0_9enable_ifIXntsrNS0_25evaluator_assume_aliasingISC_NS0_16evaluator_traitsISC_E5ShapeEEE5valueEPvE4typeE"
 "_ZN5Eigen8internal15call_assignmentINS_5ArrayIdLin1ELi1ELi0ELin1ELi1EEES3_EEvRT_RKT0_"
 "_ZN5Eigen8internal15call_assignmentINS_5ArrayIdLin1ELi1ELi0ELin1ELi1EEES3_NS0_9assign_opIddEEEEvRT_RKT0_RKT1_NS0_9enable_ifIXntsrNS0_25evaluator_assume_aliasingIS8_NS0_16evaluator_traitsIS8_E5ShapeEEE5valueEPvE4typeE"
 "_ZN5Eigen8internal15call_assignmentINS_5ArrayIiLin1ELi1ELi0ELin1ELi1EEES3_EEvRT_RKT0_"
 "_ZN5Eigen8internal15call_assignmentINS_5ArrayIiLin1ELi1ELi0ELin1ELi1EEES3_NS0_9assign_opIiiEEEEvRT_RKT0_RKT1_NS0_9enable_ifIXntsrNS0_25evaluator_assume_aliasingIS8_NS0_16evaluator_traitsIS8_E5ShapeEEE5valueEPvE4typeE"
 "_ZN5Eigen8internal15call_assignmentINS_5BlockINS_5ArrayIdLin1ELi1ELi0ELin1ELi1EEELin1ELi1ELb0EEENS3_IdLin1ELin1ELi0ELin1ELin1EEEEEvRT_RKT0_"
 "_ZN5Eigen8internal15call_assignmentINS_5BlockINS_5ArrayIdLin1ELi1ELi0ELin1ELi1EEELin1ELi1ELb0EEENS3_IdLin1ELin1ELi0ELin1ELin1EEENS0_9assign_opIddEEEEvRT_RKT0_RKT1_NS0_9enable_ifIXntsrNS0_25evaluator_assume_aliasingISB_NS0_16evaluator_traitsISB_E5ShapeEEE5valueEPvE4typeE"
 "_ZN5Eigen8internal15call_assignmentINS_5BlockINS_5ArrayIN5CppAD2ADIdEELin1ELi1ELi0ELin1ELi1EEELin1ELi1ELb0EEENS3_IS6_Lin1ELin1ELi0ELin1ELin1EEEEEvRT_RKT0_"
 "_ZN5Eigen8internal15call_assignmentINS_5BlockINS_5ArrayIN5CppAD2ADIdEELin1ELi1ELi0ELin1ELi1EEELin1ELi1ELb0EEENS3_IS6_Lin1ELin1ELi0ELin1ELin1EEENS0_9assign_opIS6_S6_EEEEvRT_RKT0_RKT1_NS0_9enable_ifIXntsrNS0_25evaluator_assume_aliasingISE_NS0_16evaluator_traitsISE_E5ShapeEEE5valueEPvE4typeE"
 "_ZN5Eigen8internal15call_assignmentINS_5BlockINS_5ArrayIN5CppAD2ADINS5_IdEEEELin1ELi1ELi0ELin1ELi1EEELin1ELi1ELb0EEENS3_IS7_Lin1ELin1ELi0ELin1ELin1EEEEEvRT_RKT0_"
 "_ZN5Eigen8internal15call_assignmentINS_5BlockINS_5ArrayIN5CppAD2ADINS5_IdEEEELin1ELi1ELi0ELin1ELi1EEELin1ELi1ELb0EEENS3_IS7_Lin1ELin1ELi0ELin1ELin1EEENS0_9assign_opIS7_S7_EEEEvRT_RKT0_RKT1_NS0_9enable_ifIXntsrNS0_25evaluator_assume_aliasingISF_NS0_16evaluator_traitsISF_E5ShapeEEE5valueEPvE4typeE"
 "_ZN5Eigen8internal15call_assignmentINS_5BlockINS_5ArrayIN5CppAD2ADINS5_INS5_IdEEEEEELin1ELi1ELi0ELin1ELi1EEELin1ELi1ELb0EEENS3_IS8_Lin1ELin1ELi0ELin1ELin1EEEEEvRT_RKT0_"
 "_ZN5Eigen8internal15call_assignmentINS_5BlockINS_5ArrayIN5CppAD2ADINS5_INS5_IdEEEEEELin1ELi1ELi0ELin1ELi1EEELin1ELi1ELb0EEENS3_IS8_Lin1ELin1ELi0ELin1ELin1EEENS0_9assign_opIS8_S8_EEEEvRT_RKT0_RKT1_NS0_9enable_ifIXntsrNS0_25evaluator_assume_aliasingISG_NS0_16evaluator_traitsISG_E5ShapeEEE5valueEPvE4typeE"
 "_ZN5Eigen8internal15call_assignmentINS_5BlockINS_6MatrixIdLin1ELin1ELi0ELin1ELin1EEELi1ELin1ELb0EEENS_5ArrayIdLin1ELi1ELi0ELin1ELi1EEEEEvRT_RKT0_"
 "_ZN5Eigen8internal15call_assignmentINS_5BlockINS_6MatrixIdLin1ELin1ELi0ELin1ELin1EEELi1ELin1ELb0EEENS_5ArrayIdLin1ELi1ELi0ELin1ELi1EEENS0_9assign_opIddEEEEvRT_RKT0_RKT1_NS0_9enable_ifIXntsrNS0_25evaluator_assume_aliasingISC_NS0_16evaluator_traitsISC_E5ShapeEEE5valueEPvE4typeE"
 "_ZN5Eigen8internal15call_assignmentINS_5BlockINS_6MatrixIdLin1ELin1ELi0ELin1ELin1EEELi1ELin1ELb0EEENS2_IKNS_14CwiseNullaryOpINS0_18scalar_identity_opIdEES4_EELi1ELin1ELb0EEEEEvRT_RKT0_"
 "_ZN5Eigen8internal15call_assignmentINS_5BlockINS_6MatrixIdLin1ELin1ELi0ELin1ELin1EEELi1ELin1ELb0EEENS2_IKNS_14CwiseNullaryOpINS0_18scalar_identity_opIdEES4_EELi1ELin1ELb0EEENS0_9assign_opIddEEEEvRT_RKT0_RKT1_NS0_9enable_ifIXntsrNS0_25evaluator_assume_aliasingISG_NS0_16evaluator_traitsISG_E5ShapeEEE5valueEPvE4typeE"
 "_ZN5Eigen8internal15call_assignmentINS_5BlockINS_6MatrixIdLin1ELin1ELi0ELin1ELin1EEELi1ELin1ELb0EEES5_NS0_14swap_assign_opIdEEEEvRT_RKT0_RKT1_NS0_9enable_ifIXntsrNS0_25evaluator_assume_aliasingISA_NS0_16evaluator_traitsISA_E5ShapeEEE5valueEPvE4typeE"
 "_ZN5Eigen8internal15call_assignmentINS_5BlockINS2_INS_3MapINS_6MatrixIdLin1ELin1ELi0ELin1ELin1EEELi0ENS_6StrideILi0ELi0EEEEELin1ELin1ELb0EEELi1ELin1ELb0EEESA_NS0_14swap_assign_opIdEEEEvRT_RKT0_RKT1_NS0_9enable_ifIXntsrNS0_25evaluator_assume_aliasingISF_NS0_16evaluator_traitsISF_E5ShapeEEE5valueEPvE4typeE"
 "_ZN5Eigen8internal15call_assignmentINS_5BlockINS2_INS2_INS_3MapINS_6MatrixIdLin1ELin1ELi0ELin1ELin1EEELi0ENS_6StrideILi0ELi0EEEEELin1ELin1ELb0EEELin1ELi1ELb1EEELin1ELi1ELb0EEENS_14CwiseNullaryOpINS0_18scalar_constant_opIdEENS4_IdLin1ELi1ELi0ELin1ELi1EEEEENS0_13div_assign_opIddEEEEvRT_RKT0_RKT1_NS0_9enable_ifIXntsrNS0_25evaluator_assume_aliasingISL_NS0_16evaluator_traitsISL_E5ShapeEEE5valueEPvE4typeE"
 "_ZN5Eigen8internal15call_assignmentINS_5BlockINS2_INS2_INS_3MapINS_6MatrixIdLin1ELin1ELi0ELin1ELin1EEELi0ENS_6StrideILi0ELi0EEEEELin1ELin1ELb0EEELin1ELin1ELb0EEELi1ELin1ELb0EEESB_NS0_14swap_assign_opIdEEEEvRT_RKT0_RKT1_NS0_9enable_ifIXntsrNS0_25evaluator_assume_aliasingISG_NS0_16evaluator_traitsISG_E5ShapeEEE5valueEPvE4typeE"
 "_ZN5Eigen8internal15call_assignmentINS_5BlockINS2_INS2_INS_3MapINS_6MatrixIdLin1ELin1ELi0ELin1ELin1EEELi0ENS_6StrideILi0ELi0EEEEELin1ELin1ELb0EEELin1ELin1ELb0EEELin1ELi1ELb1EEENS_13CwiseBinaryOpINS0_17scalar_product_opIddEEKNS_14CwiseNullaryOpINS0_18scalar_constant_opIdEEKNS4_IdLin1ELi1ELi0ELin1ELi1EEEEEKNS2_INS2_IS9_Lin1ELi1ELb1EEELin1ELi1ELb0EEEEENS0_13sub_assign_opIddEEEEvRT_RKT0_RKT1_NS0_9enable_ifIXntsrNS0_25evaluator_assume_aliasingISU_NS0_16evaluator_traitsISU_E5ShapeEEE5valueEPvE4typeE"
 "_ZN5Eigen8internal15call_assignmentINS_6MatrixIbLin1ELi1ELi0ELin1ELi1EEENS_14CwiseNullaryOpINS0_18scalar_constant_opIbEES3_EEEEvRT_RKT0_"
 "_ZN5Eigen8internal15call_assignmentINS_6MatrixIbLin1ELi1ELi0ELin1ELi1EEENS_14CwiseNullaryOpINS0_18scalar_constant_opIbEES3_EENS0_9assign_opIbbEEEEvRT_RKT0_RKT1_NS0_9enable_ifIXntsrNS0_25evaluator_assume_aliasingISC_NS0_16evaluator_traitsISC_E5ShapeEEE5valueEPvE4typeE"
 "_ZN5Eigen8internal15call_assignmentINS_6MatrixIdLin1ELi1ELi0ELin1ELi1EEENS_13CwiseBinaryOpINS0_13scalar_sum_opIddEEKS3_S7_EEEEvRT_RKT0_"
 "_ZN5Eigen8internal15call_assignmentINS_6MatrixIdLin1ELi1ELi0ELin1ELi1EEENS_13CwiseBinaryOpINS0_13scalar_sum_opIddEEKS3_S7_EENS0_9assign_opIddEEEEvRT_RKT0_RKT1_NS0_9enable_ifIXntsrNS0_25evaluator_assume_aliasingISD_NS0_16evaluator_traitsISD_E5ShapeEEE5valueEPvE4typeE"
 "_ZN5Eigen8internal15call_assignmentINS_6MatrixIdLin1ELin1ELi0ELin1ELin1EEENS_12CwiseUnaryOpINS0_13scalar_abs_opIdEEKNS_12ArrayWrapperIS3_EEEEEEvRT_RKT0_"
 "_ZN5Eigen8internal15call_assignmentINS_6MatrixIdLin1ELin1ELi0ELin1ELin1EEENS_12CwiseUnaryOpINS0_13scalar_abs_opIdEEKNS_12ArrayWrapperIS3_EEEENS0_9assign_opIddEEEEvRT_RKT0_RKT1_NS0_9enable_ifIXntsrNS0_25evaluator_assume_aliasingISF_NS0_16evaluator_traitsISF_E5ShapeEEE5valueEPvE4typeE"
 "_ZN5Eigen8internal15call_assignmentINS_6MatrixIdLin1ELin1ELi0ELin1ELin1EEENS_14CwiseNullaryOpINS0_18scalar_constant_opIdEES3_EEEEvRT_RKT0_"
 "_ZN5Eigen8internal15call_assignmentINS_6MatrixIdLin1ELin1ELi0ELin1ELin1EEENS_14CwiseNullaryOpINS0_18scalar_constant_opIdEES3_EENS0_9assign_opIddEEEEvRT_RKT0_RKT1_NS0_9enable_ifIXntsrNS0_25evaluator_assume_aliasingISC_NS0_16evaluator_traitsISC_E5ShapeEEE5valueEPvE4typeE"
 "_ZN5Eigen8internal15call_assignmentINS_6MatrixIdLin1ELin1ELi0ELin1ELin1EEENS_14CwiseNullaryOpINS0_18scalar_identity_opIdEES3_EEEEvRT_RKT0_"
 "_ZN5Eigen8internal15call_assignmentINS_6MatrixIdLin1ELin1ELi0ELin1ELin1EEENS_14CwiseNullaryOpINS0_18scalar_identity_opIdEES3_EENS0_9assign_opIddEEEEvRT_RKT0_RKT1_NS0_9enable_ifIXntsrNS0_25evaluator_assume_aliasingISC_NS0_16evaluator_traitsISC_E5ShapeEEE5valueEPvE4typeE"
 "_ZN5Eigen8internal15call_assignmentINS_6MatrixIdLin1ELin1ELi0ELin1ELin1EEENS_5SolveINS_12PartialPivLUIS3_EENS_14CwiseNullaryOpINS0_18scalar_identity_opIdEES3_EEEEEEvRT_RKT0_"
 "_ZN5Eigen8internal15call_assignmentINS_6MatrixIdLin1ELin1ELi0ELin1ELin1EEENS_5SolveINS_12PartialPivLUIS3_EENS_14CwiseNullaryOpINS0_18scalar_identity_opIdEES3_EEEENS0_9assign_opIddEEEEvRT_RKT0_RKT1_NS0_9enable_ifIXntsrNS0_25evaluator_assume_aliasingISG_NS0_16evaluator_traitsISG_E5ShapeEEE5valueEPvE4typeE"
 "_ZN5Eigen8internal15call_assignmentINS_6MatrixIdLin1ELin1ELi0ELin1ELin1EEENS_7InverseINS_12PartialPivLUIS3_EEEEEEvRT_RKT0_"
 "_ZN5Eigen8internal15call_assignmentINS_6MatrixIdLin1ELin1ELi0ELin1ELin1EEENS_7InverseINS_12PartialPivLUIS3_EEEENS0_9assign_opIddEEEEvRT_RKT0_RKT1_NS0_9enable_ifIXntsrNS0_25evaluator_assume_aliasingISC_NS0_16evaluator_traitsISC_E5ShapeEEE5valueEPvE4typeE"
 "_ZN5Eigen8internal15call_assignmentINS_6MatrixIdLin1ELin1ELi0ELin1ELin1EEENS_7ProductINS_17PermutationMatrixILin1ELin1EiEENS_14CwiseNullaryOpINS0_18scalar_identity_opIdEES3_EELi2EEEEEvRT_RKT0_"
 "_ZN5Eigen8internal15call_assignmentINS_6MatrixIdLin1ELin1ELi0ELin1ELin1EEENS_7ProductINS_17PermutationMatrixILin1ELin1EiEENS_14CwiseNullaryOpINS0_18scalar_identity_opIdEES3_EELi2EEENS0_9assign_opIddEEEEvRT_RKT0_RKT1_NS0_9enable_ifIXntsrNS0_25evaluator_assume_aliasingISG_NS0_16evaluator_traitsISG_E5ShapeEEE5valueEPvE4typeE"
 "_ZN5Eigen8internal15call_assignmentINS_6MatrixIdLin1ELin1ELi0ELin1ELin1EEES3_EEvRT_RKT0_"
 "_ZN5Eigen8internal15call_assignmentINS_6MatrixIdLin1ELin1ELi0ELin1ELin1EEES3_NS0_13add_assign_opIddEEEEvRT_RKT0_RKT1_NS0_9enable_ifIXntsrNS0_25evaluator_assume_aliasingIS8_NS0_16evaluator_traitsIS8_E5ShapeEEE5valueEPvE4typeE"
 "_ZN5Eigen8internal15call_assignmentINS_6MatrixIdLin1ELin1ELi0ELin1ELin1EEES3_NS0_13sub_assign_opIddEEEEvRT_RKT0_RKT1_NS0_9enable_ifIXntsrNS0_25evaluator_assume_aliasingIS8_NS0_16evaluator_traitsIS8_E5ShapeEEE5valueEPvE4typeE"
 "_ZN5Eigen8internal15call_assignmentINS_6MatrixIdLin1ELin1ELi0ELin1ELin1EEES3_NS0_9assign_opIddEEEEvRT_RKT0_RKT1_NS0_9enable_ifIXntsrNS0_25evaluator_assume_aliasingIS8_NS0_16evaluator_traitsIS8_E5ShapeEEE5valueEPvE4typeE"
 "_ZN5Eigen8internal15compute_inverseINS_6MatrixIdLin1ELin1ELi0ELin1ELin1EEES3_Lin1EE3runERKS3_RS3_"
 "_ZN5Eigen8internal15cpuid_is_vendorEPiPKi"
 "_ZN5Eigen8internal15level3_blockingIddE6blockAEv"
 "_ZN5Eigen8internal15level3_blockingIddE6blockBEv"
 "_ZN5Eigen8internal15level3_blockingIddEC2Ev"
 "_ZN5Eigen8internal15partial_lu_implIdLi0EiE10blocked_luExxPdxPiRix"
 "_ZN5Eigen8internal15partial_lu_implIdLi0EiE12unblocked_luERNS_5BlockINS_3MapINS_6MatrixIdLin1ELin1ELi0ELin1ELin1EEELi0ENS_6StrideILi0ELi0EEEEELin1ELin1ELb0EEEPiRi"
 "_ZN5Eigen8internal15queryCacheSizesERiS1_S1_"
 "_ZN5Eigen8internal15redux_evaluatorINS_13CwiseBinaryOpINS0_17scalar_product_opIddEEKNS_12ArrayWrapperIKNS_5BlockIKNS_6MatrixIdLin1ELin1ELi0ELin1ELin1EEELin1ELin1ELb0EEEEEKNS5_IS9_EEEEEC1ERKSG_"
 "_ZN5Eigen8internal15redux_evaluatorINS_13CwiseBinaryOpINS0_17scalar_product_opIddEEKNS_12ArrayWrapperIKNS_5BlockIKNS_6MatrixIdLin1ELin1ELi0ELin1ELin1EEELin1ELin1ELb0EEEEEKNS5_IS9_EEEEED1Ev"
 "_ZN5Eigen8internal15redux_evaluatorINS_13CwiseBinaryOpINS0_17scalar_product_opIddEEKNS_9TransposeIKNS_5BlockIKNS_6MatrixIdLin1ELin1ELi0ELin1ELin1EEELi1ELin1ELb0EEEEEKNS6_IS9_Lin1ELi1ELb1EEEEEEC1ERKSG_"
 "_ZN5Eigen8internal15redux_evaluatorINS_13CwiseBinaryOpINS0_17scalar_product_opIddEEKNS_9TransposeIKNS_5BlockIKNS_6MatrixIdLin1ELin1ELi0ELin1ELin1EEELi1ELin1ELb0EEEEEKNS6_IS9_Lin1ELi1ELb1EEEEEED1Ev"
 "_ZN5Eigen8internal15redux_evaluatorINS_13CwiseBinaryOpINS0_17scalar_product_opIddEEKNS_9TransposeIKNS_5BlockIKNS6_INS6_INS_3MapINS_6MatrixIdLin1ELin1ELi0ELin1ELin1EEELi0ENS_6StrideILi0ELi0EEEEELin1ELin1ELb0EEELin1ELin1ELb0EEELi1ELin1ELb0EEEEEKNS6_ISF_Lin1ELi1ELb1EEEEEEC1ERKSM_"
 "_ZN5Eigen8internal15redux_evaluatorINS_13CwiseBinaryOpINS0_17scalar_product_opIddEEKNS_9TransposeIKNS_5BlockIKNS6_INS6_INS_3MapINS_6MatrixIdLin1ELin1ELi0ELin1ELin1EEELi0ENS_6StrideILi0ELi0EEEEELin1ELin1ELb0EEELin1ELin1ELb0EEELi1ELin1ELb0EEEEEKNS6_ISF_Lin1ELi1ELb1EEEEEED1Ev"
 "_ZN5Eigen8internal15redux_evaluatorINS_13CwiseBinaryOpINS0_17scalar_product_opIN5CppAD2ADIdEES6_EEKNS_5ArrayIS6_Lin1ELi1ELi0ELin1ELi1EEESA_EEEC1ERKSB_"
 "_ZN5Eigen8internal15redux_evaluatorINS_13CwiseBinaryOpINS0_17scalar_product_opIN5CppAD2ADIdEES6_EEKNS_5ArrayIS6_Lin1ELi1ELi0ELin1ELi1EEESA_EEED1Ev"
 "_ZN5Eigen8internal15redux_evaluatorINS_13CwiseBinaryOpINS0_17scalar_product_opIN5CppAD2ADINS5_IdEEEES7_EEKNS_5ArrayIS7_Lin1ELi1ELi0ELin1ELi1EEESB_EEEC1ERKSC_"
 "_ZN5Eigen8internal15redux_evaluatorINS_13CwiseBinaryOpINS0_17scalar_product_opIN5CppAD2ADINS5_IdEEEES7_EEKNS_5ArrayIS7_Lin1ELi1ELi0ELin1ELi1EEESB_EEED1Ev"
 "_ZN5Eigen8internal15redux_evaluatorINS_13CwiseBinaryOpINS0_17scalar_product_opIN5CppAD2ADINS5_INS5_IdEEEEEES8_EEKNS_5ArrayIS8_Lin1ELi1ELi0ELin1ELi1EEESC_EEEC1ERKSD_"
 "_ZN5Eigen8internal15redux_evaluatorINS_13CwiseBinaryOpINS0_17scalar_product_opIN5CppAD2ADINS5_INS5_IdEEEEEES8_EEKNS_5ArrayIS8_Lin1ELi1ELi0ELin1ELi1EEESC_EEED1Ev"
 "_ZN5Eigen8internal15redux_evaluatorINS_16PartialReduxExprIKNS_12CwiseUnaryOpINS0_13scalar_abs_opIdEEKNS_6MatrixIdLin1ELin1ELi0ELin1ELin1EEEEENS0_10member_sumIdEELi0EEEEC1ERKSD_"
 "_ZN5Eigen8internal15redux_evaluatorINS_16PartialReduxExprIKNS_12CwiseUnaryOpINS0_13scalar_abs_opIdEEKNS_6MatrixIdLin1ELin1ELi0ELin1ELin1EEEEENS0_10member_sumIdEELi0EEEED1Ev"
 "_ZN5Eigen8internal15redux_evaluatorINS_5ArrayIdLin1ELi1ELi0ELin1ELi1EEEEC1ERKS3_"
 "_ZN5Eigen8internal15redux_evaluatorINS_5ArrayIdLin1ELi1ELi0ELin1ELi1EEEED1Ev"
 "_ZN5Eigen8internal15redux_evaluatorINS_5ArrayIiLin1ELi1ELi0ELin1ELi1EEEEC1ERKS3_"
 "_ZN5Eigen8internal15redux_evaluatorINS_5ArrayIiLin1ELi1ELi0ELin1ELi1EEEED1Ev"
 "_ZN5Eigen8internal15redux_evaluatorINS_5BlockIKNS_12CwiseUnaryOpINS0_13scalar_abs_opIdEEKNS_6MatrixIdLin1ELin1ELi0ELin1ELin1EEEEELin1ELi1ELb1EEEEC1ERKSB_"
 "_ZN5Eigen8internal15redux_evaluatorINS_5BlockIKNS_12CwiseUnaryOpINS0_13scalar_abs_opIdEEKNS_6MatrixIdLin1ELin1ELi0ELin1ELin1EEEEELin1ELi1ELb1EEEED1Ev"
 "_ZN5Eigen8internal15redux_evaluatorINS_5BlockIKNS_6MatrixIdLin1ELin1ELi0ELin1ELin1EEELi1ELin1ELb0EEEEC1ERKS6_"
 "_ZN5Eigen8internal15redux_evaluatorINS_5BlockIKNS_6MatrixIdLin1ELin1ELi0ELin1ELin1EEELi1ELin1ELb0EEEED1Ev"
 "_ZN5Eigen8internal15unary_evaluatorINS_12ArrayWrapperIKNS_5BlockIKNS_6MatrixIdLin1ELin1ELi0ELin1ELin1EEELin1ELin1ELb0EEEEENS0_10IndexBasedEdEC2ERKS9_"
 "_ZN5Eigen8internal15unary_evaluatorINS_12ArrayWrapperIKNS_5BlockIKNS_6MatrixIdLin1ELin1ELi0ELin1ELin1EEELin1ELin1ELb0EEEEENS0_10IndexBasedEdED2Ev"
 "_ZN5Eigen8internal15unary_evaluatorINS_12ArrayWrapperIKNS_6MatrixIdLin1ELin1ELi0ELin1ELin1EEEEENS0_10IndexBasedEdEC2ERKS6_"
 "_ZN5Eigen8internal15unary_evaluatorINS_12ArrayWrapperIKNS_6MatrixIdLin1ELin1ELi0ELin1ELin1EEEEENS0_10IndexBasedEdED2Ev"
 "_ZN5Eigen8internal15unary_evaluatorINS_12ArrayWrapperINS_6MatrixIdLin1ELin1ELi0ELin1ELin1EEEEENS0_10IndexBasedEdEC2ERKS5_"
 "_ZN5Eigen8internal15unary_evaluatorINS_12ArrayWrapperINS_6MatrixIdLin1ELin1ELi0ELin1ELin1EEEEENS0_10IndexBasedEdED2Ev"
 "_ZN5Eigen8internal15unary_evaluatorINS_12CwiseUnaryOpINS0_13scalar_abs_opIdEEKNS_12ArrayWrapperINS_6MatrixIdLin1ELin1ELi0ELin1ELin1EEEEEEENS0_10IndexBasedEdEC2ERKSA_"
 "_ZN5Eigen8internal15unary_evaluatorINS_12CwiseUnaryOpINS0_13scalar_abs_opIdEEKNS_12ArrayWrapperINS_6MatrixIdLin1ELin1ELi0ELin1ELin1EEEEEEENS0_10IndexBasedEdED2Ev"
 "_ZN5Eigen8internal15unary_evaluatorINS_12CwiseUnaryOpINS0_13scalar_abs_opIdEEKNS_6MatrixIdLin1ELin1ELi0ELin1ELin1EEEEENS0_10IndexBasedEdEC2ERKS8_"
 "_ZN5Eigen8internal15unary_evaluatorINS_12CwiseUnaryOpINS0_13scalar_abs_opIdEEKNS_6MatrixIdLin1ELin1ELi0ELin1ELin1EEEEENS0_10IndexBasedEdED2Ev"
 "_ZN5Eigen8internal15unary_evaluatorINS_12CwiseUnaryOpINS0_14scalar_cast_opIbiEEKNS_5ArrayIbLin1ELi1ELi0ELin1ELi1EEEEENS0_10IndexBasedEiEC2ERKS8_"
 "_ZN5Eigen8internal15unary_evaluatorINS_12CwiseUnaryOpINS0_14scalar_cast_opIbiEEKNS_5ArrayIbLin1ELi1ELi0ELin1ELi1EEEEENS0_10IndexBasedEiED2Ev"
 "_ZN5Eigen8internal15unary_evaluatorINS_12CwiseUnaryOpINS0_14scalar_cast_opIdiEEKNS_3MapINS_6MatrixIdLin1ELi1ELi0ELin1ELi1EEELi0ENS_6StrideILi0ELi0EEEEEEENS0_10IndexBasedEiEC2ERKSC_"
 "_ZN5Eigen8internal15unary_evaluatorINS_12CwiseUnaryOpINS0_14scalar_cast_opIdiEEKNS_3MapINS_6MatrixIdLin1ELi1ELi0ELin1ELi1EEELi0ENS_6StrideILi0ELi0EEEEEEENS0_10IndexBasedEiED2Ev"
 "_ZN5Eigen8internal15unary_evaluatorINS_12CwiseUnaryOpINS0_14scalar_cast_opIdN5CppAD2ADIdEEEEKNS_3MapINS_6MatrixIdLin1ELi1ELi0ELin1ELi1EEELi0ENS_6StrideILi0ELi0EEEEEEENS0_10IndexBasedES6_EC2ERKSF_"
 "_ZN5Eigen8internal15unary_evaluatorINS_12CwiseUnaryOpINS0_14scalar_cast_opIdN5CppAD2ADIdEEEEKNS_3MapINS_6MatrixIdLin1ELi1ELi0ELin1ELi1EEELi0ENS_6StrideILi0ELi0EEEEEEENS0_10IndexBasedES6_ED2Ev"
 "_ZN5Eigen8internal15unary_evaluatorINS_12CwiseUnaryOpINS0_14scalar_cast_opIdN5CppAD2ADINS5_IdEEEEEEKNS_3MapINS_6MatrixIdLin1ELi1ELi0ELin1ELi1EEELi0ENS_6StrideILi0ELi0EEEEEEENS0_10IndexBasedES7_EC2ERKSG_"
 "_ZN5Eigen8internal15unary_evaluatorINS_12CwiseUnaryOpINS0_14scalar_cast_opIdN5CppAD2ADINS5_IdEEEEEEKNS_3MapINS_6MatrixIdLin1ELi1ELi0ELin1ELi1EEELi0ENS_6StrideILi0ELi0EEEEEEENS0_10IndexBasedES7_ED2Ev"
 "_ZN5Eigen8internal15unary_evaluatorINS_12CwiseUnaryOpINS0_14scalar_cast_opIdN5CppAD2ADINS5_INS5_IdEEEEEEEEKNS_3MapINS_6MatrixIdLin1ELi1ELi0ELin1ELi1EEELi0ENS_6StrideILi0ELi0EEEEEEENS0_10IndexBasedES8_EC2ERKSH_"
 "_ZN5Eigen8internal15unary_evaluatorINS_12CwiseUnaryOpINS0_14scalar_cast_opIdN5CppAD2ADINS5_INS5_IdEEEEEEEEKNS_3MapINS_6MatrixIdLin1ELi1ELi0ELin1ELi1EEELi0ENS_6StrideILi0ELi0EEEEEEENS0_10IndexBasedES8_ED2Ev"
 "_ZN5Eigen8internal15unary_evaluatorINS_12CwiseUnaryOpINS0_21scalar_score_coeff_opIdEEKNS_5BlockINS5_INS5_INS_3MapINS_6MatrixIdLin1ELin1ELi0ELin1ELin1EEELi0ENS_6StrideILi0ELi0EEEEELin1ELin1ELb0EEELin1ELi1ELb1EEELin1ELi1ELb0EEEEENS0_10IndexBasedEdEC2ERKSG_"
 "_ZN5Eigen8internal15unary_evaluatorINS_12CwiseUnaryOpINS0_21scalar_score_coeff_opIdEEKNS_5BlockINS5_INS5_INS_3MapINS_6MatrixIdLin1ELin1ELi0ELin1ELin1EEELi0ENS_6StrideILi0ELi0EEEEELin1ELin1ELb0EEELin1ELi1ELb1EEELin1ELi1ELb0EEEEENS0_10IndexBasedEdED2Ev"
 "_ZN5Eigen8internal15unary_evaluatorINS_13MatrixWrapperIKNS_5ArrayIdLin1ELi1ELi0ELin1ELi1EEEEENS0_10IndexBasedEdEC2ERKS6_"
 "_ZN5Eigen8internal15unary_evaluatorINS_13MatrixWrapperIKNS_5ArrayIdLin1ELi1ELi0ELin1ELi1EEEEENS0_10IndexBasedEdED2Ev"
 "_ZN5Eigen8internal15unary_evaluatorINS_13MatrixWrapperIKNS_5ArrayIiLin1ELi1ELi0ELin1ELi1EEEEENS0_10IndexBasedEiEC2ERKS6_"
 "_ZN5Eigen8internal15unary_evaluatorINS_13MatrixWrapperIKNS_5ArrayIiLin1ELi1ELi0ELin1ELi1EEEEENS0_10IndexBasedEiED2Ev"
 "_ZN5Eigen8internal15unary_evaluatorINS_5BlockIKNS_12CwiseUnaryOpINS0_13scalar_abs_opIdEEKNS_6MatrixIdLin1ELin1ELi0ELin1ELin1EEEEELin1ELi1ELb1EEENS0_10IndexBasedEdEC2ERKSB_"
 "_ZN5Eigen8internal15unary_evaluatorINS_5BlockIKNS_12CwiseUnaryOpINS0_13scalar_abs_opIdEEKNS_6MatrixIdLin1ELin1ELi0ELin1ELin1EEEEELin1ELi1ELb1EEENS0_10IndexBasedEdED2Ev"
 "_ZN5Eigen8internal15unary_evaluatorINS_5BlockIKNS_14CwiseNullaryOpINS0_18scalar_identity_opIdEENS_6MatrixIdLin1ELin1ELi0ELin1ELin1EEEEELi1ELin1ELb0EEENS0_10IndexBasedEdEC2ERKSA_"
 "_ZN5Eigen8internal15unary_evaluatorINS_5BlockIKNS_14CwiseNullaryOpINS0_18scalar_identity_opIdEENS_6MatrixIdLin1ELin1ELi0ELin1ELin1EEEEELi1ELin1ELb0EEENS0_10IndexBasedEdED2Ev"
 "_ZN5Eigen8internal15unary_evaluatorINS_9TransposeIKNS_5BlockIKNS_6MatrixIdLin1ELin1ELi0ELin1ELin1EEELi1ELin1ELb0EEEEENS0_10IndexBasedEdEC2ERKS9_"
 "_ZN5Eigen8internal15unary_evaluatorINS_9TransposeIKNS_5BlockIKNS_6MatrixIdLin1ELin1ELi0ELin1ELin1EEELi1ELin1ELb0EEEEENS0_10IndexBasedEdED2Ev"
 "_ZN5Eigen8internal15unary_evaluatorINS_9TransposeIKNS_5BlockIKNS3_INS3_INS_3MapINS_6MatrixIdLin1ELin1ELi0ELin1ELin1EEELi0ENS_6StrideILi0ELi0EEEEELin1ELin1ELb0EEELin1ELin1ELb0EEELi1ELin1ELb0EEEEENS0_10IndexBasedEdEC2ERKSF_"
 "_ZN5Eigen8internal15unary_evaluatorINS_9TransposeIKNS_5BlockIKNS3_INS3_INS_3MapINS_6MatrixIdLin1ELin1ELi0ELin1ELin1EEELi0ENS_6StrideILi0ELi0EEEEELin1ELin1ELb0EEELin1ELin1ELb0EEELi1ELin1ELb0EEEEENS0_10IndexBasedEdED2Ev"
 "_ZN5Eigen8internal15unary_evaluatorINS_9TransposeINS_5BlockINS_6MatrixIdLin1ELin1ELi0ELin1ELin1EEELi1ELin1ELb0EEEEENS0_10IndexBasedEdE8coeffRefEx"
 "_ZN5Eigen8internal15unary_evaluatorINS_9TransposeINS_5BlockINS_6MatrixIdLin1ELin1ELi0ELin1ELin1EEELi1ELin1ELb0EEEEENS0_10IndexBasedEdEC2ERKS7_"
 "_ZN5Eigen8internal15unary_evaluatorINS_9TransposeINS_5BlockINS_6MatrixIdLin1ELin1ELi0ELin1ELin1EEELi1ELin1ELb0EEEEENS0_10IndexBasedEdED2Ev"
 "_ZN5Eigen8internal16binary_evaluatorINS_13CwiseBinaryOpINS0_13scalar_sum_opIddEEKNS_5ArrayIdLin1ELi1ELi0ELin1ELi1EEES7_EENS0_10IndexBasedES9_ddEC2ERKS8_"
 "_ZN5Eigen8internal16binary_evaluatorINS_13CwiseBinaryOpINS0_13scalar_sum_opIddEEKNS_5ArrayIdLin1ELi1ELi0ELin1ELi1EEES7_EENS0_10IndexBasedES9_ddED2Ev"
 "_ZN5Eigen8internal16binary_evaluatorINS_13CwiseBinaryOpINS0_13scalar_sum_opIddEEKNS_6MatrixIdLin1ELi1ELi0ELin1ELi1EEES7_EENS0_10IndexBasedES9_ddEC2ERKS8_"
 "_ZN5Eigen8internal16binary_evaluatorINS_13CwiseBinaryOpINS0_13scalar_sum_opIddEEKNS_6MatrixIdLin1ELi1ELi0ELin1ELi1EEES7_EENS0_10IndexBasedES9_ddED2Ev"
 "_ZN5Eigen8internal16binary_evaluatorINS_13CwiseBinaryOpINS0_13scalar_sum_opIddEEKNS_6MatrixIdLin1ELin1ELi0ELin1ELin1EEES7_EENS0_10IndexBasedES9_ddEC2ERKS8_"
 "_ZN5Eigen8internal16binary_evaluatorINS_13CwiseBinaryOpINS0_13scalar_sum_opIddEEKNS_6MatrixIdLin1ELin1ELi0ELin1ELin1EEES7_EENS0_10IndexBasedES9_ddED2Ev"
 "_ZN5Eigen8internal16binary_evaluatorINS_13CwiseBinaryOpINS0_17scalar_product_opIddEEKNS_12ArrayWrapperIKNS_5BlockIKNS_6MatrixIdLin1ELin1ELi0ELin1ELin1EEELin1ELin1ELb0EEEEEKNS5_IS9_EEEENS0_10IndexBasedESH_ddEC2ERKSG_"
 "_ZN5Eigen8internal16binary_evaluatorINS_13CwiseBinaryOpINS0_17scalar_product_opIddEEKNS_12ArrayWrapperIKNS_5BlockIKNS_6MatrixIdLin1ELin1ELi0ELin1ELin1EEELin1ELin1ELb0EEEEEKNS5_IS9_EEEENS0_10IndexBasedESH_ddED2Ev"
 "_ZN5Eigen8internal16binary_evaluatorINS_13CwiseBinaryOpINS0_17scalar_product_opIddEEKNS_14CwiseNullaryOpINS0_18scalar_constant_opIdEEKNS_6MatrixIdLin1ELi1ELi0ELin1ELi1EEEEEKNS_5BlockINSD_INSD_INS_3MapINS8_IdLin1ELin1ELi0ELin1ELin1EEELi0ENS_6StrideILi0ELi0EEEEELin1ELin1ELb0EEELin1ELi1ELb1EEELin1ELi1ELb0EEEEENS0_10IndexBasedESO_ddEC2ERKSN_"
 "_ZN5Eigen8internal16binary_evaluatorINS_13CwiseBinaryOpINS0_17scalar_product_opIddEEKNS_14CwiseNullaryOpINS0_18scalar_constant_opIdEEKNS_6MatrixIdLin1ELi1ELi0ELin1ELi1EEEEEKNS_5BlockINSD_INSD_INS_3MapINS8_IdLin1ELin1ELi0ELin1ELin1EEELi0ENS_6StrideILi0ELi0EEEEELin1ELin1ELb0EEELin1ELi1ELb1EEELin1ELi1ELb0EEEEENS0_10IndexBasedESO_ddED2Ev"
 "_ZN5Eigen8internal16binary_evaluatorINS_13CwiseBinaryOpINS0_17scalar_product_opIddEEKNS_14CwiseNullaryOpINS0_18scalar_constant_opIdEEKNS_6MatrixIdLin1ELin1ELi0ELin1ELin1EEEEESA_EENS0_10IndexBasedESE_ddEC2ERKSD_"
 "_ZN5Eigen8internal16binary_evaluatorINS_13CwiseBinaryOpINS0_17scalar_product_opIddEEKNS_14CwiseNullaryOpINS0_18scalar_constant_opIdEEKNS_6MatrixIdLin1ELin1ELi0ELin1ELin1EEEEESA_EENS0_10IndexBasedESE_ddED2Ev"
 "_ZN5Eigen8internal16binary_evaluatorINS_13CwiseBinaryOpINS0_17scalar_product_opIddEEKNS_6MatrixIdLin1ELin1ELi0ELin1ELin1EEEKNS_14CwiseNullaryOpINS0_18scalar_constant_opIdEES7_EEEENS0_10IndexBasedESE_ddEC2ERKSD_"
 "_ZN5Eigen8internal16binary_evaluatorINS_13CwiseBinaryOpINS0_17scalar_product_opIddEEKNS_6MatrixIdLin1ELin1ELi0ELin1ELin1EEEKNS_14CwiseNullaryOpINS0_18scalar_constant_opIdEES7_EEEENS0_10IndexBasedESE_ddED2Ev"
 "_ZN5Eigen8internal16binary_evaluatorINS_13CwiseBinaryOpINS0_17scalar_product_opIddEEKNS_9TransposeIKNS_5BlockIKNS_6MatrixIdLin1ELin1ELi0ELin1ELin1EEELi1ELin1ELb0EEEEEKNS6_IS9_Lin1ELi1ELb1EEEEENS0_10IndexBasedESH_ddEC2ERKSG_"
 "_ZN5Eigen8internal16binary_evaluatorINS_13CwiseBinaryOpINS0_17scalar_product_opIddEEKNS_9TransposeIKNS_5BlockIKNS_6MatrixIdLin1ELin1ELi0ELin1ELin1EEELi1ELin1ELb0EEEEEKNS6_IS9_Lin1ELi1ELb1EEEEENS0_10IndexBasedESH_ddED2Ev"
 "_ZN5Eigen8internal16binary_evaluatorINS_13CwiseBinaryOpINS0_17scalar_product_opIddEEKNS_9TransposeIKNS_5BlockIKNS6_INS6_INS_3MapINS_6MatrixIdLin1ELin1ELi0ELin1ELin1EEELi0ENS_6StrideILi0ELi0EEEEELin1ELin1ELb0EEELin1ELin1ELb0EEELi1ELin1ELb0EEEEEKNS6_ISF_Lin1ELi1ELb1EEEEENS0_10IndexBasedESN_ddEC2ERKSM_"
 "_ZN5Eigen8internal16binary_evaluatorINS_13CwiseBinaryOpINS0_17scalar_product_opIddEEKNS_9TransposeIKNS_5BlockIKNS6_INS6_INS_3MapINS_6MatrixIdLin1ELin1ELi0ELin1ELin1EEELi0ENS_6StrideILi0ELi0EEEEELin1ELin1ELb0EEELin1ELin1ELb0EEELi1ELin1ELb0EEEEEKNS6_ISF_Lin1ELi1ELb1EEEEENS0_10IndexBasedESN_ddED2Ev"
 "_ZN5Eigen8internal16binary_evaluatorINS_13CwiseBinaryOpINS0_17scalar_product_opIN5CppAD2ADIdEES6_EEKNS_5ArrayIS6_Lin1ELi1ELi0ELin1ELi1EEESA_EENS0_10IndexBasedESC_S6_S6_EC2ERKSB_"
 "_ZN5Eigen8internal16binary_evaluatorINS_13CwiseBinaryOpINS0_17scalar_product_opIN5CppAD2ADIdEES6_EEKNS_5ArrayIS6_Lin1ELi1ELi0ELin1ELi1EEESA_EENS0_10IndexBasedESC_S6_S6_ED2Ev"
 "_ZN5Eigen8internal16binary_evaluatorINS_13CwiseBinaryOpINS0_17scalar_product_opIN5CppAD2ADINS5_IdEEEES7_EEKNS_5ArrayIS7_Lin1ELi1ELi0ELin1ELi1EEESB_EENS0_10IndexBasedESD_S7_S7_EC2ERKSC_"
 "_ZN5Eigen8internal16binary_evaluatorINS_13CwiseBinaryOpINS0_17scalar_product_opIN5CppAD2ADINS5_IdEEEES7_EEKNS_5ArrayIS7_Lin1ELi1ELi0ELin1ELi1EEESB_EENS0_10IndexBasedESD_S7_S7_ED2Ev"
 "_ZN5Eigen8internal16binary_evaluatorINS_13CwiseBinaryOpINS0_17scalar_product_opIN5CppAD2ADINS5_INS5_IdEEEEEES8_EEKNS_5ArrayIS8_Lin1ELi1ELi0ELin1ELi1EEESC_EENS0_10IndexBasedESE_S8_S8_EC2ERKSD_"
 "_ZN5Eigen8internal16binary_evaluatorINS_13CwiseBinaryOpINS0_17scalar_product_opIN5CppAD2ADINS5_INS5_IdEEEEEES8_EEKNS_5ArrayIS8_Lin1ELi1ELi0ELin1ELi1EEESC_EENS0_10IndexBasedESE_S8_S8_ED2Ev"
 "_ZN5Eigen8internal16matrix_swap_implINS_5ArrayIdLin1ELi1ELi0ELin1ELi1EEES3_Lb1EE3runERS3_S5_"
 "_ZN5Eigen8internal16matrix_swap_implINS_5ArrayIN5CppAD2ADIdEELin1ELi1ELi0ELin1ELi1EEES6_Lb1EE3runERS6_S8_"
 "_ZN5Eigen8internal16matrix_swap_implINS_5ArrayIN5CppAD2ADINS4_IdEEEELin1ELi1ELi0ELin1ELi1EEES7_Lb1EE3runERS7_S9_"
 "_ZN5Eigen8internal16matrix_swap_implINS_5ArrayIN5CppAD2ADINS4_INS4_IdEEEEEELin1ELi1ELi0ELin1ELi1EEES8_Lb1EE3runERS8_SA_"
 "_ZN5Eigen8internal16matrix_swap_implINS_6MatrixIdLin1ELi1ELi0ELin1ELi1EEES3_Lb1EE3runERS3_S5_"
 "_ZN5Eigen8internal16matrix_swap_implINS_6MatrixIdLin1ELin1ELi0ELin1ELin1EEES3_Lb1EE3runERS3_S5_"
 "_ZN5Eigen8internal16parallelize_gemmILb1ENS0_12gemm_functorIdxNS0_29general_matrix_matrix_productIxdLi0ELb0EdLi0ELb0ELi0ELi1EEENS_5BlockINS5_INS_3MapINS_6MatrixIdLin1ELin1ELi0ELin1ELin1EEELi0ENS_6StrideILi0ELi0EEEEELin1ELin1ELb0EEELin1ELin1ELb0EEESD_SD_NS0_19gemm_blocking_spaceILi0EddLin1ELin1ELin1ELi1ELb0EEEEExEEvRKT0_T1_SK_SK_b"
 "_ZN5Eigen8internal16parallelize_gemmILb1ENS0_12gemm_functorIdxNS0_29general_matrix_matrix_productIxdLi0ELb0EdLi0ELb0ELi0ELi1EEENS_6MatrixIdLin1ELin1ELi0ELin1ELin1EEES6_S6_NS0_19gemm_blocking_spaceILi0EddLin1ELin1ELin1ELi1ELb0EEEEExEEvRKT0_T1_SD_SD_b"
 "_ZN5Eigen8internal16setIdentity_implINS_6MatrixIdLin1ELin1ELi0ELin1ELin1EEELb0EE3runERS3_"
 "_ZN5Eigen8internal17mapbase_evaluatorINS_3MapINS_6MatrixIdLin1ELi1ELi0ELin1ELi1EEELi0ENS_6StrideILi0ELi0EEEEES4_EC2ERKS7_"
 "_ZN5Eigen8internal17mapbase_evaluatorINS_3MapINS_6MatrixIdLin1ELi1ELi0ELin1ELi1EEELi0ENS_6StrideILi0ELi0EEEEES4_ED2Ev"
 "_ZN5Eigen8internal17mapbase_evaluatorINS_5BlockIKNS_6MatrixIdLin1ELin1ELi0ELin1ELin1EEELi1ELin1ELb0EEENS3_IdLi1ELin1ELi1ELi1ELin1EEEEC2ERKS6_"
 "_ZN5Eigen8internal17mapbase_evaluatorINS_5BlockIKNS_6MatrixIdLin1ELin1ELi0ELin1ELin1EEELi1ELin1ELb0EEENS3_IdLi1ELin1ELi1ELi1ELin1EEEED2Ev"
 "_ZN5Eigen8internal17mapbase_evaluatorINS_5BlockIKNS_6MatrixIdLin1ELin1ELi0ELin1ELin1EEELin1ELi1ELb1EEENS3_IdLin1ELi1ELi0ELin1ELi1EEEEC2ERKS6_"
 "_ZN5Eigen8internal17mapbase_evaluatorINS_5BlockIKNS_6MatrixIdLin1ELin1ELi0ELin1ELin1EEELin1ELi1ELb1EEENS3_IdLin1ELi1ELi0ELin1ELi1EEEED2Ev"
 "_ZN5Eigen8internal17mapbase_evaluatorINS_5BlockIKNS_6MatrixIdLin1ELin1ELi0ELin1ELin1EEELin1ELin1ELb0EEES4_EC2ERKS6_"
 "_ZN5Eigen8internal17mapbase_evaluatorINS_5BlockIKNS_6MatrixIdLin1ELin1ELi0ELin1ELin1EEELin1ELin1ELb0EEES4_ED2Ev"
 "_ZN5Eigen8internal17mapbase_evaluatorINS_5BlockIKNS2_INS2_INS_3MapINS_6MatrixIdLin1ELin1ELi0ELin1ELin1EEELi0ENS_6StrideILi0ELi0EEEEELin1ELin1ELb0EEELin1ELin1ELb0EEELi1ELin1ELb0EEENS4_IdLi1ELin1ELi1ELi1ELin1EEEEC2ERKSC_"
 "_ZN5Eigen8internal17mapbase_evaluatorINS_5BlockIKNS2_INS2_INS_3MapINS_6MatrixIdLin1ELin1ELi0ELin1ELin1EEELi0ENS_6StrideILi0ELi0EEEEELin1ELin1ELb0EEELin1ELin1ELb0EEELi1ELin1ELb0EEENS4_IdLi1ELin1ELi1ELi1ELin1EEEED2Ev"
 "_ZN5Eigen8internal17mapbase_evaluatorINS_5BlockIKNS2_INS2_INS_3MapINS_6MatrixIdLin1ELin1ELi0ELin1ELin1EEELi0ENS_6StrideILi0ELi0EEEEELin1ELin1ELb0EEELin1ELin1ELb0EEELin1ELi1ELb1EEENS4_IdLin1ELi1ELi0ELin1ELi1EEEEC2ERKSC_"
 "_ZN5Eigen8internal17mapbase_evaluatorINS_5BlockIKNS2_INS2_INS_3MapINS_6MatrixIdLin1ELin1ELi0ELin1ELin1EEELi0ENS_6StrideILi0ELi0EEEEELin1ELin1ELb0EEELin1ELin1ELb0EEELin1ELi1ELb1EEENS4_IdLin1ELi1ELi0ELin1ELi1EEEED2Ev"
 "_ZN5Eigen8internal17mapbase_evaluatorINS_5BlockINS_5ArrayIdLin1ELi1ELi0ELin1ELi1EEELin1ELi1ELb0EEES4_E8coeffRefEx"
 "_ZN5Eigen8internal17mapbase_evaluatorINS_5BlockINS_5ArrayIdLin1ELi1ELi0ELin1ELi1EEELin1ELi1ELb0EEES4_EC2ERKS5_"
 "_ZN5Eigen8internal17mapbase_evaluatorINS_5BlockINS_5ArrayIdLin1ELi1ELi0ELin1ELi1EEELin1ELi1ELb0EEES4_ED2Ev"
 "_ZN5Eigen8internal17mapbase_evaluatorINS_5BlockINS_5ArrayIN5CppAD2ADIdEELin1ELi1ELi0ELin1ELi1EEELin1ELi1ELb0EEES7_E8coeffRefEx"
 "_ZN5Eigen8internal17mapbase_evaluatorINS_5BlockINS_5ArrayIN5CppAD2ADIdEELin1ELi1ELi0ELin1ELi1EEELin1ELi1ELb0EEES7_EC2ERKS8_"
 "_ZN5Eigen8internal17mapbase_evaluatorINS_5BlockINS_5ArrayIN5CppAD2ADIdEELin1ELi1ELi0ELin1ELi1EEELin1ELi1ELb0EEES7_ED2Ev"
 "_ZN5Eigen8internal17mapbase_evaluatorINS_5BlockINS_5ArrayIN5CppAD2ADINS5_IdEEEELin1ELi1ELi0ELin1ELi1EEELin1ELi1ELb0EEES8_E8coeffRefEx"
 "_ZN5Eigen8internal17mapbase_evaluatorINS_5BlockINS_5ArrayIN5CppAD2ADINS5_IdEEEELin1ELi1ELi0ELin1ELi1EEELin1ELi1ELb0EEES8_EC2ERKS9_"
 "_ZN5Eigen8internal17mapbase_evaluatorINS_5BlockINS_5ArrayIN5CppAD2ADINS5_IdEEEELin1ELi1ELi0ELin1ELi1EEELin1ELi1ELb0EEES8_ED2Ev"
 "_ZN5Eigen8internal17mapbase_evaluatorINS_5BlockINS_5ArrayIN5CppAD2ADINS5_INS5_IdEEEEEELin1ELi1ELi0ELin1ELi1EEELin1ELi1ELb0EEES9_E8coeffRefEx"
 "_ZN5Eigen8internal17mapbase_evaluatorINS_5BlockINS_5ArrayIN5CppAD2ADINS5_INS5_IdEEEEEELin1ELi1ELi0ELin1ELi1EEELin1ELi1ELb0EEES9_EC2ERKSA_"
 "_ZN5Eigen8internal17mapbase_evaluatorINS_5BlockINS_5ArrayIN5CppAD2ADINS5_INS5_IdEEEEEELin1ELi1ELi0ELin1ELi1EEELin1ELi1ELb0EEES9_ED2Ev"
 "_ZN5Eigen8internal17mapbase_evaluatorINS_5BlockINS_5ArrayIN8tmbutils6matrixIdEELin1ELi1ELi0ELin1ELi1EEELin1ELi1ELb0EEES7_EC2ERKS8_"
 "_ZN5Eigen8internal17mapbase_evaluatorINS_5BlockINS_5ArrayIN8tmbutils6matrixIdEELin1ELi1ELi0ELin1ELi1EEELin1ELi1ELb0EEES7_ED2Ev"
 "_ZN5Eigen8internal17mapbase_evaluatorINS_5BlockINS_6MatrixIdLin1ELin1ELi0ELin1ELin1EEELi1ELin1ELb0EEENS3_IdLi1ELin1ELi1ELi1ELin1EEEE8coeffRefEx"
 "_ZN5Eigen8internal17mapbase_evaluatorINS_5BlockINS_6MatrixIdLin1ELin1ELi0ELin1ELin1EEELi1ELin1ELb0EEENS3_IdLi1ELin1ELi1ELi1ELin1EEEEC2ERKS5_"
 "_ZN5Eigen8internal17mapbase_evaluatorINS_5BlockINS_6MatrixIdLin1ELin1ELi0ELin1ELin1EEELi1ELin1ELb0EEENS3_IdLi1ELin1ELi1ELi1ELin1EEEED2Ev"
 "_ZN5Eigen8internal17mapbase_evaluatorINS_5BlockINS2_INS_3MapINS_6MatrixIdLin1ELin1ELi0ELin1ELin1EEELi0ENS_6StrideILi0ELi0EEEEELin1ELin1ELb0EEELi1ELin1ELb0EEENS4_IdLi1ELin1ELi1ELi1ELin1EEEE8coeffRefEx"
 "_ZN5Eigen8internal17mapbase_evaluatorINS_5BlockINS2_INS_3MapINS_6MatrixIdLin1ELin1ELi0ELin1ELin1EEELi0ENS_6StrideILi0ELi0EEEEELin1ELin1ELb0EEELi1ELin1ELb0EEENS4_IdLi1ELin1ELi1ELi1ELin1EEEEC2ERKSA_"
 "_ZN5Eigen8internal17mapbase_evaluatorINS_5BlockINS2_INS_3MapINS_6MatrixIdLin1ELin1ELi0ELin1ELin1EEELi0ENS_6StrideILi0ELi0EEEEELin1ELin1ELb0EEELi1ELin1ELb0EEENS4_IdLi1ELin1ELi1ELi1ELin1EEEED2Ev"
 "_ZN5Eigen8internal17mapbase_evaluatorINS_5BlockINS2_INS_3MapINS_6MatrixIdLin1ELin1ELi0ELin1ELin1EEELi0ENS_6StrideILi0ELi0EEEEELin1ELin1ELb0EEELin1ELin1ELb0EEES5_E8coeffRefExx"
 "_ZN5Eigen8internal17mapbase_evaluatorINS_5BlockINS2_INS_3MapINS_6MatrixIdLin1ELin1ELi0ELin1ELin1EEELi0ENS_6StrideILi0ELi0EEEEELin1ELin1ELb0EEELin1ELin1ELb0EEES5_EC2ERKSA_"
 "_ZN5Eigen8internal17mapbase_evaluatorINS_5BlockINS2_INS_3MapINS_6MatrixIdLin1ELin1ELi0ELin1ELin1EEELi0ENS_6StrideILi0ELi0EEEEELin1ELin1ELb0EEELin1ELin1ELb0EEES5_ED2Ev"
 "_ZN5Eigen8internal17mapbase_evaluatorINS_5BlockINS2_INS2_INS_3MapINS_6MatrixIdLin1ELin1ELi0ELin1ELin1EEELi0ENS_6StrideILi0ELi0EEEEELin1ELin1ELb0EEELi1ELin1ELb0EEELi1ELin1ELb0EEENS4_IdLi1ELin1ELi1ELi1ELin1EEEEC2ERKSB_"
 "_ZN5Eigen8internal17mapbase_evaluatorINS_5BlockINS2_INS2_INS_3MapINS_6MatrixIdLin1ELin1ELi0ELin1ELin1EEELi0ENS_6StrideILi0ELi0EEEEELin1ELin1ELb0EEELi1ELin1ELb0EEELi1ELin1ELb0EEENS4_IdLi1ELin1ELi1ELi1ELin1EEEED2Ev"
 "_ZN5Eigen8internal17mapbase_evaluatorINS_5BlockINS2_INS2_INS_3MapINS_6MatrixIdLin1ELin1ELi0ELin1ELin1EEELi0ENS_6StrideILi0ELi0EEEEELin1ELin1ELb0EEELin1ELi1ELb1EEELin1ELi1ELb0EEENS4_IdLin1ELi1ELi0ELin1ELi1EEEE8coeffRefEx"
 "_ZN5Eigen8internal17mapbase_evaluatorINS_5BlockINS2_INS2_INS_3MapINS_6MatrixIdLin1ELin1ELi0ELin1ELin1EEELi0ENS_6StrideILi0ELi0EEEEELin1ELin1ELb0EEELin1ELi1ELb1EEELin1ELi1ELb0EEENS4_IdLin1ELi1ELi0ELin1ELi1EEEEC2ERKSB_"
 "_ZN5Eigen8internal17mapbase_evaluatorINS_5BlockINS2_INS2_INS_3MapINS_6MatrixIdLin1ELin1ELi0ELin1ELin1EEELi0ENS_6StrideILi0ELi0EEEEELin1ELin1ELb0EEELin1ELi1ELb1EEELin1ELi1ELb0EEENS4_IdLin1ELi1ELi0ELin1ELi1EEEED2Ev"
 "_ZN5Eigen8internal17mapbase_evaluatorINS_5BlockINS2_INS2_INS_3MapINS_6MatrixIdLin1ELin1ELi0ELin1ELin1EEELi0ENS_6StrideILi0ELi0EEEEELin1ELin1ELb0EEELin1ELin1ELb0EEELi1ELin1ELb0EEENS4_IdLi1ELin1ELi1ELi1ELin1EEEE8coeffRefEx"
 "_ZN5Eigen8internal17mapbase_evaluatorINS_5BlockINS2_INS2_INS_3MapINS_6MatrixIdLin1ELin1ELi0ELin1ELin1EEELi0ENS_6StrideILi0ELi0EEEEELin1ELin1ELb0EEELin1ELin1ELb0EEELi1ELin1ELb0EEENS4_IdLi1ELin1ELi1ELi1ELin1EEEEC2ERKSB_"
 "_ZN5Eigen8internal17mapbase_evaluatorINS_5BlockINS2_INS2_INS_3MapINS_6MatrixIdLin1ELin1ELi0ELin1ELin1EEELi0ENS_6StrideILi0ELi0EEEEELin1ELin1ELb0EEELin1ELin1ELb0EEELi1ELin1ELb0EEENS4_IdLi1ELin1ELi1ELi1ELin1EEEED2Ev"
 "_ZN5Eigen8internal17mapbase_evaluatorINS_5BlockINS2_INS2_INS_3MapINS_6MatrixIdLin1ELin1ELi0ELin1ELin1EEELi0ENS_6StrideILi0ELi0EEEEELin1ELin1ELb0EEELin1ELin1ELb0EEELin1ELi1ELb1EEENS4_IdLin1ELi1ELi0ELin1ELi1EEEE8coeffRefEx"
 "_ZN5Eigen8internal17mapbase_evaluatorINS_5BlockINS2_INS2_INS_3MapINS_6MatrixIdLin1ELin1ELi0ELin1ELin1EEELi0ENS_6StrideILi0ELi0EEEEELin1ELin1ELb0EEELin1ELin1ELb0EEELin1ELi1ELb1EEENS4_IdLin1ELi1ELi0ELin1ELi1EEEEC2ERKSB_"
 "_ZN5Eigen8internal17mapbase_evaluatorINS_5BlockINS2_INS2_INS_3MapINS_6MatrixIdLin1ELin1ELi0ELin1ELin1EEELi0ENS_6StrideILi0ELi0EEEEELin1ELin1ELb0EEELin1ELin1ELb0EEELin1ELi1ELb1EEENS4_IdLin1ELi1ELi0ELin1ELi1EEEED2Ev"
 "_ZN5Eigen8internal17max_coeff_visitorINS_12CwiseUnaryOpINS0_21scalar_score_coeff_opIdEEKNS_5BlockINS5_INS5_INS_3MapINS_6MatrixIdLin1ELin1ELi0ELin1ELin1EEELi0ENS_6StrideILi0ELi0EEEEELin1ELin1ELb0EEELin1ELi1ELb1EEELin1ELi1ELb0EEEEEEclERKdxx"
 "_ZN5Eigen8internal17product_evaluatorINS_7ProductINS_5BlockINS3_INS_3MapINS_6MatrixIdLin1ELin1ELi0ELin1ELin1EEELi0ENS_6StrideILi0ELi0EEEEELin1ELin1ELb0EEELin1ELin1ELb0EEESB_Li1EEELi8ENS_10DenseShapeESD_ddEC2ERKSC_"
 "_ZN5Eigen8internal17product_evaluatorINS_7ProductINS_5BlockINS3_INS_3MapINS_6MatrixIdLin1ELin1ELi0ELin1ELin1EEELi0ENS_6StrideILi0ELi0EEEEELin1ELin1ELb0EEELin1ELin1ELb0EEESB_Li1EEELi8ENS_10DenseShapeESD_ddED2Ev"
 "_ZN5Eigen8internal17product_evaluatorINS_7ProductINS_6MatrixIdLin1ELin1ELi0ELin1ELin1EEES4_Li1EEELi8ENS_10DenseShapeES6_ddEC2ERKS5_"
 "_ZN5Eigen8internal17product_evaluatorINS_7ProductINS_6MatrixIdLin1ELin1ELi0ELin1ELin1EEES4_Li1EEELi8ENS_10DenseShapeES6_ddED2Ev"
 "_ZN5Eigen8internal17resize_if_allowedINS_5ArrayIdLin1ELi1ELi0ELin1ELi1EEENS_13CwiseBinaryOpINS0_13scalar_sum_opIddEEKS3_S7_EEddEEvRT_RKT0_RKNS0_9assign_opIT1_T2_EE"
 "_ZN5Eigen8internal17resize_if_allowedINS_5ArrayIdLin1ELi1ELi0ELin1ELi1EEENS_14CwiseNullaryOpINS0_18scalar_constant_opIdEES3_EEddEEvRT_RKT0_RKNS0_9assign_opIT1_T2_EE"
 "_ZN5Eigen8internal17resize_if_allowedINS_5ArrayIdLin1ELi1ELi0ELin1ELi1EEENS_16PartialReduxExprINS_6MatrixIdLin1ELin1ELi0ELin1ELin1EEENS0_10member_sumIdEELi1EEEddEEvRT_RKT0_RKNS0_9assign_opIT1_T2_EE"
 "_ZN5Eigen8internal17resize_if_allowedINS_5ArrayIdLin1ELi1ELi0ELin1ELi1EEENS_3MapINS_6MatrixIdLin1ELi1ELi0ELin1ELi1EEELi0ENS_6StrideILi0ELi0EEEEEddEEvRT_RKT0_RKNS0_9assign_opIT1_T2_EE"
 "_ZN5Eigen8internal17resize_if_allowedINS_5ArrayIdLin1ELi1ELi0ELin1ELi1EEES3_ddEEvRT_RKT0_RKNS0_9assign_opIT1_T2_EE"
 "_ZN5Eigen8internal17resize_if_allowedINS_5ArrayIdLin1ELin1ELi0ELin1ELin1EEENS2_IdLin1ELi1ELi0ELin1ELi1EEEddEEvRT_RKT0_RKNS0_9assign_opIT1_T2_EE"
 "_ZN5Eigen8internal17resize_if_allowedINS_5ArrayIiLin1ELi1ELi0ELin1ELi1EEENS_12CwiseUnaryOpINS0_14scalar_cast_opIbiEEKNS2_IbLin1ELi1ELi0ELin1ELi1EEEEEiiEEvRT_RKT0_RKNS0_9assign_opIT1_T2_EE"
 "_ZN5Eigen8internal17resize_if_allowedINS_5ArrayIiLin1ELi1ELi0ELin1ELi1EEENS_12CwiseUnaryOpINS0_14scalar_cast_opIdiEEKNS_3MapINS_6MatrixIdLin1ELi1ELi0ELin1ELi1EEELi0ENS_6StrideILi0ELi0EEEEEEEiiEEvRT_RKT0_RKNS0_9assign_opIT1_T2_EE"
 "_ZN5Eigen8internal17resize_if_allowedINS_5ArrayIiLin1ELi1ELi0ELin1ELi1EEES3_iiEEvRT_RKT0_RKNS0_9assign_opIT1_T2_EE"
 "_ZN5Eigen8internal17resize_if_allowedINS_5ArrayIN5CppAD2ADIdEELin1ELi1ELi0ELin1ELi1EEENS_12CwiseUnaryOpINS0_14scalar_cast_opIdS5_EEKNS_3MapINS_6MatrixIdLin1ELi1ELi0ELin1ELi1EEELi0ENS_6StrideILi0ELi0EEEEEEES5_S5_EEvRT_RKT0_RKNS0_9assign_opIT1_T2_EE"
 "_ZN5Eigen8internal17resize_if_allowedINS_5ArrayIN5CppAD2ADIdEELin1ELin1ELi0ELin1ELin1EEENS2_IS5_Lin1ELi1ELi0ELin1ELi1EEES5_S5_EEvRT_RKT0_RKNS0_9assign_opIT1_T2_EE"
 "_ZN5Eigen8internal17resize_if_allowedINS_5ArrayIN5CppAD2ADINS4_IdEEEELin1ELi1ELi0ELin1ELi1EEENS_12CwiseUnaryOpINS0_14scalar_cast_opIdS6_EEKNS_3MapINS_6MatrixIdLin1ELi1ELi0ELin1ELi1EEELi0ENS_6StrideILi0ELi0EEEEEEES6_S6_EEvRT_RKT0_RKNS0_9assign_opIT1_T2_EE"
 "_ZN5Eigen8internal17resize_if_allowedINS_5ArrayIN5CppAD2ADINS4_IdEEEELin1ELin1ELi0ELin1ELin1EEENS2_IS6_Lin1ELi1ELi0ELin1ELi1EEES6_S6_EEvRT_RKT0_RKNS0_9assign_opIT1_T2_EE"
 "_ZN5Eigen8internal17resize_if_allowedINS_5ArrayIN5CppAD2ADINS4_INS4_IdEEEEEELin1ELi1ELi0ELin1ELi1EEENS_12CwiseUnaryOpINS0_14scalar_cast_opIdS7_EEKNS_3MapINS_6MatrixIdLin1ELi1ELi0ELin1ELi1EEELi0ENS_6StrideILi0ELi0EEEEEEES7_S7_EEvRT_RKT0_RKNS0_9assign_opIT1_T2_EE"
 "_ZN5Eigen8internal17resize_if_allowedINS_5ArrayIN5CppAD2ADINS4_INS4_IdEEEEEELin1ELin1ELi0ELin1ELin1EEENS2_IS7_Lin1ELi1ELi0ELin1ELi1EEES7_S7_EEvRT_RKT0_RKNS0_9assign_opIT1_T2_EE"
 "_ZN5Eigen8internal17resize_if_allowedINS_5ArrayIN8tmbutils6matrixIdEELin1ELi1ELi0ELin1ELi1EEENS_5BlockIS6_Lin1ELi1ELb0EEES5_S5_EEvRT_RKT0_RKNS0_9assign_opIT1_T2_EE"
 "_ZN5Eigen8internal17resize_if_allowedINS_5BlockINS_5ArrayIdLin1ELi1ELi0ELin1ELi1EEELin1ELi1ELb0EEENS3_IdLin1ELin1ELi0ELin1ELin1EEEddEEvRT_RKT0_RKNS0_9assign_opIT1_T2_EE"
 "_ZN5Eigen8internal17resize_if_allowedINS_5BlockINS_5ArrayIN5CppAD2ADIdEELin1ELi1ELi0ELin1ELi1EEELin1ELi1ELb0EEENS3_IS6_Lin1ELin1ELi0ELin1ELin1EEES6_S6_EEvRT_RKT0_RKNS0_9assign_opIT1_T2_EE"
 "_ZN5Eigen8internal17resize_if_allowedINS_5BlockINS_5ArrayIN5CppAD2ADINS5_IdEEEELin1ELi1ELi0ELin1ELi1EEELin1ELi1ELb0EEENS3_IS7_Lin1ELin1ELi0ELin1ELin1EEES7_S7_EEvRT_RKT0_RKNS0_9assign_opIT1_T2_EE"
 "_ZN5Eigen8internal17resize_if_allowedINS_5BlockINS_5ArrayIN5CppAD2ADINS5_INS5_IdEEEEEELin1ELi1ELi0ELin1ELi1EEELin1ELi1ELb0EEENS3_IS8_Lin1ELin1ELi0ELin1ELin1EEES8_S8_EEvRT_RKT0_RKNS0_9assign_opIT1_T2_EE"
 "_ZN5Eigen8internal17resize_if_allowedINS_5BlockINS_6MatrixIdLin1ELin1ELi0ELin1ELin1EEELi1ELin1ELb0EEENS2_IKNS_14CwiseNullaryOpINS0_18scalar_identity_opIdEES4_EELi1ELin1ELb0EEEddEEvRT_RKT0_RKNS0_9assign_opIT1_T2_EE"
 "_ZN5Eigen8internal17resize_if_allowedINS_5BlockINS_6MatrixIdLin1ELin1ELi0ELin1ELin1EEELi1ELin1ELb0EEES5_NS0_14swap_assign_opIdEEEEvRT_RKT0_RKT1_"
 "_ZN5Eigen8internal17resize_if_allowedINS_5BlockINS2_INS_3MapINS_6MatrixIdLin1ELin1ELi0ELin1ELin1EEELi0ENS_6StrideILi0ELi0EEEEELin1ELin1ELb0EEELi1ELin1ELb0EEESA_NS0_14swap_assign_opIdEEEEvRT_RKT0_RKT1_"
 "_ZN5Eigen8internal17resize_if_allowedINS_5BlockINS2_INS_3MapINS_6MatrixIdLin1ELin1ELi0ELin1ELin1EEELi0ENS_6StrideILi0ELi0EEEEELin1ELin1ELb0EEELin1ELin1ELb0EEENS_7ProductISA_SA_Li1EEENS0_13sub_assign_opIddEEEEvRT_RKT0_RKT1_"
 "_ZN5Eigen8internal17resize_if_allowedINS_5BlockINS2_INS2_INS_3MapINS_6MatrixIdLin1ELin1ELi0ELin1ELin1EEELi0ENS_6StrideILi0ELi0EEEEELin1ELin1ELb0EEELin1ELi1ELb1EEELin1ELi1ELb0EEENS_14CwiseNullaryOpINS0_18scalar_constant_opIdEENS4_IdLin1ELi1ELi0ELin1ELi1EEEEENS0_13div_assign_opIddEEEEvRT_RKT0_RKT1_"
 "_ZN5Eigen8internal17resize_if_allowedINS_5BlockINS2_INS2_INS_3MapINS_6MatrixIdLin1ELin1ELi0ELin1ELin1EEELi0ENS_6StrideILi0ELi0EEEEELin1ELin1ELb0EEELin1ELin1ELb0EEELi1ELin1ELb0EEESB_NS0_14swap_assign_opIdEEEEvRT_RKT0_RKT1_"
 "_ZN5Eigen8internal17resize_if_allowedINS_5BlockINS2_INS2_INS_3MapINS_6MatrixIdLin1ELin1ELi0ELin1ELin1EEELi0ENS_6StrideILi0ELi0EEEEELin1ELin1ELb0EEELin1ELin1ELb0EEELin1ELi1ELb1EEENS_13CwiseBinaryOpINS0_17scalar_product_opIddEEKNS_14CwiseNullaryOpINS0_18scalar_constant_opIdEEKNS4_IdLin1ELi1ELi0ELin1ELi1EEEEEKNS2_INS2_IS9_Lin1ELi1ELb1EEELin1ELi1ELb0EEEEENS0_13sub_assign_opIddEEEEvRT_RKT0_RKT1_"
 "_ZN5Eigen8internal17resize_if_allowedINS_6MatrixIbLin1ELi1ELi0ELin1ELi1EEENS_14CwiseNullaryOpINS0_18scalar_constant_opIbEES3_EEbbEEvRT_RKT0_RKNS0_9assign_opIT1_T2_EE"
 "_ZN5Eigen8internal17resize_if_allowedINS_6MatrixIdLin1ELi1ELi0ELin1ELi1EEENS_13CwiseBinaryOpINS0_13scalar_sum_opIddEEKS3_S7_EEddEEvRT_RKT0_RKNS0_9assign_opIT1_T2_EE"
 "_ZN5Eigen8internal17resize_if_allowedINS_6MatrixIdLin1ELin1ELi0ELin1ELin1EEENS_12CwiseUnaryOpINS0_13scalar_abs_opIdEEKNS_12ArrayWrapperIS3_EEEEddEEvRT_RKT0_RKNS0_9assign_opIT1_T2_EE"
 "_ZN5Eigen8internal17resize_if_allowedINS_6MatrixIdLin1ELin1ELi0ELin1ELin1EEENS_13CwiseBinaryOpINS0_13scalar_sum_opIddEEKS3_S7_EEddEEvRT_RKT0_RKNS0_9assign_opIT1_T2_EE"
 "_ZN5Eigen8internal17resize_if_allowedINS_6MatrixIdLin1ELin1ELi0ELin1ELin1EEENS_13CwiseBinaryOpINS0_17scalar_product_opIddEEKNS_14CwiseNullaryOpINS0_18scalar_constant_opIdEEKS3_EESA_EEddEEvRT_RKT0_RKNS0_9assign_opIT1_T2_EE"
 "_ZN5Eigen8internal17resize_if_allowedINS_6MatrixIdLin1ELin1ELi0ELin1ELin1EEENS_13CwiseBinaryOpINS0_17scalar_product_opIddEEKS3_KNS_14CwiseNullaryOpINS0_18scalar_constant_opIdEES7_EEEEddEEvRT_RKT0_RKNS0_9assign_opIT1_T2_EE"
 "_ZN5Eigen8internal17resize_if_allowedINS_6MatrixIdLin1ELin1ELi0ELin1ELin1EEENS_13MatrixWrapperIKNS_5ArrayIdLin1ELi1ELi0ELin1ELi1EEEEEddEEvRT_RKT0_RKNS0_9assign_opIT1_T2_EE"
 "_ZN5Eigen8internal17resize_if_allowedINS_6MatrixIdLin1ELin1ELi0ELin1ELin1EEENS_14CwiseNullaryOpINS0_18scalar_constant_opIdEES3_EEddEEvRT_RKT0_RKNS0_9assign_opIT1_T2_EE"
 "_ZN5Eigen8internal17resize_if_allowedINS_6MatrixIdLin1ELin1ELi0ELin1ELin1EEENS_14CwiseNullaryOpINS0_18scalar_identity_opIdEES3_EEddEEvRT_RKT0_RKNS0_9assign_opIT1_T2_EE"
 "_ZN5Eigen8internal17resize_if_allowedINS_6MatrixIdLin1ELin1ELi0ELin1ELin1EEENS_7ProductIS3_S3_Li1EEEddEEvRT_RKT0_RKNS0_9assign_opIT1_T2_EE"
 "_ZN5Eigen8internal17resize_if_allowedINS_6MatrixIdLin1ELin1ELi0ELin1ELin1EEES3_ddEEvRT_RKT0_RKNS0_9assign_opIT1_T2_EE"
 "_ZN5Eigen8internal17resize_if_allowedINS_6MatrixIdLin1ELin1ELi0ELin1ELin1EEES3_NS0_13add_assign_opIddEEEEvRT_RKT0_RKT1_"
 "_ZN5Eigen8internal17resize_if_allowedINS_6MatrixIdLin1ELin1ELi0ELin1ELin1EEES3_NS0_13sub_assign_opIddEEEEvRT_RKT0_RKT1_"
 "_ZN5Eigen8internal17resize_if_allowedINS_6MatrixIiLin1ELin1ELi0ELin1ELin1EEENS_13MatrixWrapperIKNS_5ArrayIiLin1ELi1ELi0ELin1ELi1EEEEEiiEEvRT_RKT0_RKNS0_9assign_opIT1_T2_EE"
 "_ZN5Eigen8internal17resize_if_allowedINS_9TransposeINS_5BlockINS_6MatrixIdLin1ELin1ELi0ELin1ELin1EEELi1ELin1ELb0EEEEENS_5ArrayIdLin1ELi1ELi0ELin1ELi1EEEddEEvRT_RKT0_RKNS0_9assign_opIT1_T2_EE"
 "_ZN5Eigen8internal17scalar_product_opIddEC1ERKS2_"
 "_ZN5Eigen8internal17scalar_product_opIddEC1Ev"
 "_ZN5Eigen8internal17scalar_product_opIiiEC1Ev"
 "_ZN5Eigen8internal17scalar_product_opIN5CppAD2ADIdEES4_EC1ERKS5_"
 "_ZN5Eigen8internal17scalar_product_opIN5CppAD2ADIdEES4_EC1Ev"
 "_ZN5Eigen8internal17scalar_product_opIN5CppAD2ADINS3_IdEEEES5_EC1ERKS6_"
 "_ZN5Eigen8internal17scalar_product_opIN5CppAD2ADINS3_IdEEEES5_EC1Ev"
 "_ZN5Eigen8internal17scalar_product_opIN5CppAD2ADINS3_INS3_IdEEEEEES6_EC1ERKS7_"
 "_ZN5Eigen8internal17scalar_product_opIN5CppAD2ADINS3_INS3_IdEEEEEES6_EC1Ev"
 "_ZN5Eigen8internal17smart_copy_helperIdLb1EE3runEPKdS4_Pd"
 "_ZN5Eigen8internal17smart_copy_helperIiLb1EE3runEPKiS4_Pi"
 "_ZN5Eigen8internal17smart_copy_helperIN5CppAD2ADIdEELb0EE3runEPKS4_S7_PS4_"
 "_ZN5Eigen8internal17smart_copy_helperIN5CppAD2ADINS3_IdEEEELb0EE3runEPKS5_S8_PS5_"
 "_ZN5Eigen8internal17smart_copy_helperIN5CppAD2ADINS3_INS3_IdEEEEEELb0EE3runEPKS6_S9_PS6_"
 "_ZN5Eigen8internal17smart_copy_helperIN8tmbutils6matrixIdEELb0EE3runEPKS4_S7_PS4_"
 "_ZN5Eigen8internal17visitor_evaluatorINS_12CwiseUnaryOpINS0_21scalar_score_coeff_opIdEEKNS_5BlockINS5_INS5_INS_3MapINS_6MatrixIdLin1ELin1ELi0ELin1ELin1EEELi0ENS_6StrideILi0ELi0EEEEELin1ELin1ELb0EEELin1ELi1ELb1EEELin1ELi1ELb0EEEEEEC1ERKSG_"
 "_ZN5Eigen8internal17visitor_evaluatorINS_12CwiseUnaryOpINS0_21scalar_score_coeff_opIdEEKNS_5BlockINS5_INS5_INS_3MapINS_6MatrixIdLin1ELin1ELi0ELin1ELin1EEELi0ENS_6StrideILi0ELi0EEEEELin1ELin1ELb0EEELin1ELi1ELb1EEELin1ELi1ELb0EEEEEED1Ev"
 "_ZN5Eigen8internal18dense_product_baseINS_17PermutationMatrixILin1ELin1EiEENS_14CwiseNullaryOpINS0_18scalar_identity_opIdEENS_6MatrixIdLin1ELin1ELi0ELin1ELin1EEEEELi2ELi8EEC2Ev"
 "_ZN5Eigen8internal18dense_product_baseINS_5BlockINS2_INS_3MapINS_6MatrixIdLin1ELin1ELi0ELin1ELin1EEELi0ENS_6StrideILi0ELi0EEEEELin1ELin1ELb0EEELin1ELin1ELb0EEESA_Li0ELi8EEC2Ev"
 "_ZN5Eigen8internal18dense_product_baseINS_5BlockINS2_INS_3MapINS_6MatrixIdLin1ELin1ELi0ELin1ELin1EEELi0ENS_6StrideILi0ELi0EEEEELin1ELin1ELb0EEELin1ELin1ELb0EEESA_Li1ELi8EEC2Ev"
 "_ZN5Eigen8internal18dense_product_baseINS_5BlockINS2_INS2_INS_3MapINS_6MatrixIdLin1ELin1ELi0ELin1ELin1EEELi0ENS_6StrideILi0ELi0EEEEELin1ELin1ELb0EEELin1ELi1ELb1EEELin1ELi1ELb0EEENS2_INS2_IS9_Li1ELin1ELb0EEELi1ELin1ELb0EEELi0ELi5EEC2Ev"
 "_ZN5Eigen8internal18dense_product_baseINS_6MatrixIdLin1ELin1ELi0ELin1ELin1EEES3_Li0ELi8EEC2Ev"
 "_ZN5Eigen8internal18dense_product_baseINS_6MatrixIdLin1ELin1ELi0ELin1ELin1EEES3_Li1ELi8EEC2Ev"
 "_ZN5Eigen8internal18first_aligned_implILi16ENS_5ArrayIdLin1ELi1ELi0ELin1ELi1EEELb1EE3runERKS3_"
 "_ZN5Eigen8internal18first_aligned_implILi16ENS_5ArrayIiLin1ELi1ELi0ELin1ELi1EEELb1EE3runERKS3_"
 "_ZN5Eigen8internal18first_aligned_implILi16ENS_5BlockIKNS_12CwiseUnaryOpINS0_13scalar_abs_opIdEEKNS_6MatrixIdLin1ELin1ELi0ELin1ELin1EEEEELin1ELi1ELb1EEELb1EE3runERKSB_"
 "_ZN5Eigen8internal18partial_lu_inplaceINS_6MatrixIdLin1ELin1ELi0ELin1ELin1EEENS_14TranspositionsILin1ELin1EiEEEEvRT_RT0_RNS8_12StorageIndexE"
 "_ZN5Eigen8internal18scalar_constant_opIbEC1ERKb"
 "_ZN5Eigen8internal18scalar_constant_opIbEC1ERKS2_"
 "_ZN5Eigen8internal18scalar_constant_opIdEC1ERKd"
 "_ZN5Eigen8internal18scalar_constant_opIdEC1ERKS2_"
 "_ZN5Eigen8internal18scalar_identity_opIdEC1ERKS2_"
 "_ZN5Eigen8internal18scalar_identity_opIdEC1Ev"
 "_ZN5Eigen8internal19gemm_blocking_spaceILi0EddLin1ELin1ELin1ELi1ELb0EEC1Exxxxb"
 "_ZN5Eigen8internal19gemm_blocking_spaceILi0EddLin1ELin1ELin1ELi1ELb0EED1Ev"
 "_ZN5Eigen8internal19gemm_blocking_spaceILi0EddLin1ELin1ELin1ELi4ELb0EEC1Exxxxb"
 "_ZN5Eigen8internal19gemm_blocking_spaceILi0EddLin1ELin1ELin1ELi4ELb0EED1Ev"
 "_ZN5Eigen8internal19queryCacheSizes_amdERiS1_S1_"
 "_ZN5Eigen8internal19throw_std_bad_allocEv"
 "_ZN5Eigen8internal19variable_if_dynamicIxLi0EE5valueEv"
 "_ZN5Eigen8internal19variable_if_dynamicIxLi0EEC1ERKS2_"
 "_ZN5Eigen8internal19variable_if_dynamicIxLi0EEC1Ex"
 "_ZN5Eigen8internal19variable_if_dynamicIxLi1EE5valueEv"
 "_ZN5Eigen8internal19variable_if_dynamicIxLi1EEC1ERKS2_"
 "_ZN5Eigen8internal19variable_if_dynamicIxLi1EEC1Ex"
 "_ZN5Eigen8internal19variable_if_dynamicIxLin1EEC1Ex"
 "_ZN5Eigen8internal20generic_product_implINS_17PermutationMatrixILin1ELin1EiEENS_14CwiseNullaryOpINS0_18scalar_identity_opIdEENS_6MatrixIdLin1ELin1ELi0ELin1ELin1EEEEENS_16PermutationShapeENS_10DenseShapeELi8EE6evalToIS8_EEvRT_RKS3_RKS9_"
 "_ZN5Eigen8internal20generic_product_implINS_5BlockINS2_INS_3MapINS_6MatrixIdLin1ELin1ELi0ELin1ELin1EEELi0ENS_6StrideILi0ELi0EEEEELin1ELin1ELb0EEELin1ELin1ELb0EEESA_NS_10DenseShapeESB_Li3EE12eval_dynamicISA_SA_NS0_13sub_assign_opIddEEEEvRT_RKT0_RKSA_RKT1_"
 "_ZN5Eigen8internal20generic_product_implINS_5BlockINS2_INS_3MapINS_6MatrixIdLin1ELin1ELi0ELin1ELin1EEELi0ENS_6StrideILi0ELi0EEEEELin1ELin1ELb0EEELin1ELin1ELb0EEESA_NS_10DenseShapeESB_Li8EE13scaleAndAddToISA_EEvRT_RKSA_SH_RKd"
 "_ZN5Eigen8internal20generic_product_implINS_5BlockINS2_INS_3MapINS_6MatrixIdLin1ELin1ELi0ELin1ELin1EEELi0ENS_6StrideILi0ELi0EEEEELin1ELin1ELb0EEELin1ELin1ELb0EEESA_NS_10DenseShapeESB_Li8EE5subToISA_EEvRT_RKSA_SH_"
 "_ZN5Eigen8internal20generic_product_implINS_5BlockINS2_INS2_INS_3MapINS_6MatrixIdLin1ELin1ELi0ELin1ELin1EEELi0ENS_6StrideILi0ELi0EEEEELin1ELin1ELb0EEELin1ELi1ELb1EEELin1ELi1ELb0EEENS2_INS2_IS9_Li1ELin1ELb0EEELi1ELin1ELb0EEENS_10DenseShapeESE_Li5EE5subToINS2_IS9_Lin1ELin1ELb0EEEEEvRT_RKSB_RKSD_"
 "_ZN5Eigen8internal20generic_product_implINS_6MatrixIdLin1ELin1ELi0ELin1ELin1EEES3_NS_10DenseShapeES4_Li3EE12eval_dynamicIS3_S3_NS0_9assign_opIddEEEEvRT_RKT0_RKS3_RKT1_"
 "_ZN5Eigen8internal20generic_product_implINS_6MatrixIdLin1ELin1ELi0ELin1ELin1EEES3_NS_10DenseShapeES4_Li8EE13scaleAndAddToIS3_EEvRT_RKS3_SA_RKd"
 "_ZN5Eigen8internal20generic_product_implINS_6MatrixIdLin1ELin1ELi0ELin1ELin1EEES3_NS_10DenseShapeES4_Li8EE6evalToIS3_EEvRT_RKS3_SA_"
 "_ZN5Eigen8internal20manage_caching_sizesENS_6ActionEPxS2_S2_"
 "_ZN5Eigen8internal21dense_assignment_loopINS0_31generic_dense_assignment_kernelINS0_9evaluatorINS_5ArrayIdLin1ELi1ELi0ELin1ELi1EEEEENS3_INS_13CwiseBinaryOpINS0_13scalar_sum_opIddEEKS5_SA_EEEENS0_9assign_opIddEELi0EEELi3ELi0EE3runERSF_"
 "_ZN5Eigen8internal21dense_assignment_loopINS0_31generic_dense_assignment_kernelINS0_9evaluatorINS_5ArrayIdLin1ELi1ELi0ELin1ELi1EEEEENS3_INS_14CwiseNullaryOpINS0_18scalar_constant_opIdEES5_EEEENS0_9assign_opIddEELi0EEELi3ELi0EE3runERSE_"
 "_ZN5Eigen8internal21dense_assignment_loopINS0_31generic_dense_assignment_kernelINS0_9evaluatorINS_5ArrayIdLin1ELi1ELi0ELin1ELi1EEEEENS3_INS_16PartialReduxExprINS_6MatrixIdLin1ELin1ELi0ELin1ELin1EEENS0_10member_sumIdEELi1EEEEENS0_9assign_opIddEELi0EEELi1ELi0EE3runERSG_"
 "_ZN5Eigen8internal21dense_assignment_loopINS0_31generic_dense_assignment_kernelINS0_9evaluatorINS_5ArrayIdLin1ELi1ELi0ELin1ELi1EEEEENS3_INS_3MapINS_6MatrixIdLin1ELi1ELi0ELin1ELi1EEELi0ENS_6StrideILi0ELi0EEEEEEENS0_9assign_opIddEELi0EEELi3ELi0EE3runERSG_"
 "_ZN5Eigen8internal21dense_assignment_loopINS0_31generic_dense_assignment_kernelINS0_9evaluatorINS_5ArrayIdLin1ELi1ELi0ELin1ELi1EEEEES6_NS0_9assign_opIddEELi0EEELi3ELi0EE3runERS9_"
 "_ZN5Eigen8internal21dense_assignment_loopINS0_31generic_dense_assignment_kernelINS0_9evaluatorINS_5ArrayIdLin1ELin1ELi0ELin1ELin1EEEEENS3_INS4_IdLin1ELi1ELi0ELin1ELi1EEEEENS0_9assign_opIddEELi0EEELi3ELi0EE3runERSB_"
 "_ZN5Eigen8internal21dense_assignment_loopINS0_31generic_dense_assignment_kernelINS0_9evaluatorINS_5ArrayIiLin1ELi1ELi0ELin1ELi1EEEEENS3_INS_12CwiseUnaryOpINS0_14scalar_cast_opIbiEEKNS4_IbLin1ELi1ELi0ELin1ELi1EEEEEEENS0_9assign_opIiiEELi0EEELi1ELi0EE3runERSG_"
 "_ZN5Eigen8internal21dense_assignment_loopINS0_31generic_dense_assignment_kernelINS0_9evaluatorINS_5ArrayIiLin1ELi1ELi0ELin1ELi1EEEEENS3_INS_12CwiseUnaryOpINS0_14scalar_cast_opIdiEEKNS_3MapINS_6MatrixIdLin1ELi1ELi0ELin1ELi1EEELi0ENS_6StrideILi0ELi0EEEEEEEEENS0_9assign_opIiiEELi0EEELi1ELi0EE3runERSL_"
 "_ZN5Eigen8internal21dense_assignment_loopINS0_31generic_dense_assignment_kernelINS0_9evaluatorINS_5ArrayIiLin1ELi1ELi0ELin1ELi1EEEEES6_NS0_9assign_opIiiEELi0EEELi3ELi0EE3runERS9_"
 "_ZN5Eigen8internal21dense_assignment_loopINS0_31generic_dense_assignment_kernelINS0_9evaluatorINS_5ArrayIN5CppAD2ADIdEELin1ELi1ELi0ELin1ELi1EEEEENS3_INS_12CwiseUnaryOpINS0_14scalar_cast_opIdS7_EEKNS_3MapINS_6MatrixIdLin1ELi1ELi0ELin1ELi1EEELi0ENS_6StrideILi0ELi0EEEEEEEEENS0_9assign_opIS7_S7_EELi0EEELi1ELi0EE3runERSO_"
 "_ZN5Eigen8internal21dense_assignment_loopINS0_31generic_dense_assignment_kernelINS0_9evaluatorINS_5ArrayIN5CppAD2ADIdEELin1ELin1ELi0ELin1ELin1EEEEENS3_INS4_IS7_Lin1ELi1ELi0ELin1ELi1EEEEENS0_9assign_opIS7_S7_EELi0EEELi1ELi0EE3runERSE_"
 "_ZN5Eigen8internal21dense_assignment_loopINS0_31generic_dense_assignment_kernelINS0_9evaluatorINS_5ArrayIN5CppAD2ADINS6_IdEEEELin1ELi1ELi0ELin1ELi1EEEEENS3_INS_12CwiseUnaryOpINS0_14scalar_cast_opIdS8_EEKNS_3MapINS_6MatrixIdLin1ELi1ELi0ELin1ELi1EEELi0ENS_6StrideILi0ELi0EEEEEEEEENS0_9assign_opIS8_S8_EELi0EEELi1ELi0EE3runERSP_"
 "_ZN5Eigen8internal21dense_assignment_loopINS0_31generic_dense_assignment_kernelINS0_9evaluatorINS_5ArrayIN5CppAD2ADINS6_IdEEEELin1ELin1ELi0ELin1ELin1EEEEENS3_INS4_IS8_Lin1ELi1ELi0ELin1ELi1EEEEENS0_9assign_opIS8_S8_EELi0EEELi1ELi0EE3runERSF_"
 "_ZN5Eigen8internal21dense_assignment_loopINS0_31generic_dense_assignment_kernelINS0_9evaluatorINS_5ArrayIN5CppAD2ADINS6_INS6_IdEEEEEELin1ELi1ELi0ELin1ELi1EEEEENS3_INS_12CwiseUnaryOpINS0_14scalar_cast_opIdS9_EEKNS_3MapINS_6MatrixIdLin1ELi1ELi0ELin1ELi1EEELi0ENS_6StrideILi0ELi0EEEEEEEEENS0_9assign_opIS9_S9_EELi0EEELi1ELi0EE3runERSQ_"
 "_ZN5Eigen8internal21dense_assignment_loopINS0_31generic_dense_assignment_kernelINS0_9evaluatorINS_5ArrayIN5CppAD2ADINS6_INS6_IdEEEEEELin1ELin1ELi0ELin1ELin1EEEEENS3_INS4_IS9_Lin1ELi1ELi0ELin1ELi1EEEEENS0_9assign_opIS9_S9_EELi0EEELi1ELi0EE3runERSG_"
 "_ZN5Eigen8internal21dense_assignment_loopINS0_31generic_dense_assignment_kernelINS0_9evaluatorINS_5ArrayIN8tmbutils6matrixIdEELin1ELi1ELi0ELin1ELi1EEEEENS3_INS_5BlockIS8_Lin1ELi1ELb0EEEEENS0_9assign_opIS7_S7_EELi0EEELi1ELi0EE3runERSF_"
 "_ZN5Eigen8internal21dense_assignment_loopINS0_31generic_dense_assignment_kernelINS0_9evaluatorINS_5BlockINS_5ArrayIdLin1ELi1ELi0ELin1ELi1EEELin1ELi1ELb0EEEEENS3_INS5_IdLin1ELin1ELi0ELin1ELin1EEEEENS0_9assign_opIddEELi0EEELi3ELi0EE3runERSD_"
 "_ZN5Eigen8internal21dense_assignment_loopINS0_31generic_dense_assignment_kernelINS0_9evaluatorINS_5BlockINS_5ArrayIN5CppAD2ADIdEELin1ELi1ELi0ELin1ELi1EEELin1ELi1ELb0EEEEENS3_INS5_IS8_Lin1ELin1ELi0ELin1ELin1EEEEENS0_9assign_opIS8_S8_EELi0EEELi1ELi0EE3runERSG_"
 "_ZN5Eigen8internal21dense_assignment_loopINS0_31generic_dense_assignment_kernelINS0_9evaluatorINS_5BlockINS_5ArrayIN5CppAD2ADINS7_IdEEEELin1ELi1ELi0ELin1ELi1EEELin1ELi1ELb0EEEEENS3_INS5_IS9_Lin1ELin1ELi0ELin1ELin1EEEEENS0_9assign_opIS9_S9_EELi0EEELi1ELi0EE3runERSH_"
 "_ZN5Eigen8internal21dense_assignment_loopINS0_31generic_dense_assignment_kernelINS0_9evaluatorINS_5BlockINS_5ArrayIN5CppAD2ADINS7_INS7_IdEEEEEELin1ELi1ELi0ELin1ELi1EEELin1ELi1ELb0EEEEENS3_INS5_ISA_Lin1ELin1ELi0ELin1ELin1EEEEENS0_9assign_opISA_SA_EELi0EEELi1ELi0EE3runERSI_"
 "_ZN5Eigen8internal21dense_assignment_loopINS0_31generic_dense_assignment_kernelINS0_9evaluatorINS_5BlockINS_6MatrixIdLin1ELin1ELi0ELin1ELin1EEELi1ELin1ELb0EEEEENS3_INS4_IKNS_14CwiseNullaryOpINS0_18scalar_identity_opIdEES6_EELi1ELin1ELb0EEEEENS0_9assign_opIddEELi0EEELi1ELi0EE3runERSI_"
 "_ZN5Eigen8internal21dense_assignment_loopINS0_31generic_dense_assignment_kernelINS0_9evaluatorINS_5BlockINS_6MatrixIdLin1ELin1ELi0ELin1ELin1EEELi1ELin1ELb0EEEEES8_NS0_14swap_assign_opIdEELi0EEELi1ELi0EE3runERSB_"
 "_ZN5Eigen8internal21dense_assignment_loopINS0_31generic_dense_assignment_kernelINS0_9evaluatorINS_5BlockINS4_INS_3MapINS_6MatrixIdLin1ELin1ELi0ELin1ELin1EEELi0ENS_6StrideILi0ELi0EEEEELin1ELin1ELb0EEELi1ELin1ELb0EEEEESD_NS0_14swap_assign_opIdEELi0EEELi1ELi0EE3runERSG_"
 "_ZN5Eigen8internal21dense_assignment_loopINS0_31generic_dense_assignment_kernelINS0_9evaluatorINS_5BlockINS4_INS_3MapINS_6MatrixIdLin1ELin1ELi0ELin1ELin1EEELi0ENS_6StrideILi0ELi0EEEEELin1ELin1ELb0EEELin1ELin1ELb0EEEEENS3_INS_7ProductISC_SC_Li1EEEEENS0_13sub_assign_opIddEELi0EEELi0ELi0EE3runERSJ_"
 "_ZN5Eigen8internal21dense_assignment_loopINS0_31generic_dense_assignment_kernelINS0_9evaluatorINS_5BlockINS4_INS_3MapINS_6MatrixIdLin1ELin1ELi0ELin1ELin1EEELi0ENS_6StrideILi0ELi0EEEEELin1ELin1ELb0EEELin1ELin1ELb0EEEEENS3_INS_7ProductISC_SC_Li1EEEEENS0_13sub_assign_opIddEELi0EEELi4ELi0EE3runERSJ_"
 "_ZN5Eigen8internal21dense_assignment_loopINS0_31generic_dense_assignment_kernelINS0_9evaluatorINS_5BlockINS4_INS4_INS_3MapINS_6MatrixIdLin1ELin1ELi0ELin1ELin1EEELi0ENS_6StrideILi0ELi0EEEEELin1ELin1ELb0EEELin1ELi1ELb1EEELin1ELi1ELb0EEEEENS3_INS_14CwiseNullaryOpINS0_18scalar_constant_opIdEENS6_IdLin1ELi1ELi0ELin1ELi1EEEEEEENS0_13div_assign_opIddEELi0EEELi3ELi0EE3runERSN_"
 "_ZN5Eigen8internal21dense_assignment_loopINS0_31generic_dense_assignment_kernelINS0_9evaluatorINS_5BlockINS4_INS4_INS_3MapINS_6MatrixIdLin1ELin1ELi0ELin1ELin1EEELi0ENS_6StrideILi0ELi0EEEEELin1ELin1ELb0EEELin1ELin1ELb0EEELi1ELin1ELb0EEEEESE_NS0_14swap_assign_opIdEELi0EEELi1ELi0EE3runERSH_"
 "_ZN5Eigen8internal21dense_assignment_loopINS0_31generic_dense_assignment_kernelINS0_9evaluatorINS_5BlockINS4_INS4_INS_3MapINS_6MatrixIdLin1ELin1ELi0ELin1ELin1EEELi0ENS_6StrideILi0ELi0EEEEELin1ELin1ELb0EEELin1ELin1ELb0EEELin1ELi1ELb1EEEEENS3_INS_13CwiseBinaryOpINS0_17scalar_product_opIddEEKNS_14CwiseNullaryOpINS0_18scalar_constant_opIdEEKNS6_IdLin1ELi1ELi0ELin1ELi1EEEEEKNS4_INS4_ISB_Lin1ELi1ELb1EEELin1ELi1ELb0EEEEEEENS0_13sub_assign_opIddEELi0EEELi3ELi0EE3runERSW_"
 "_ZN5Eigen8internal21dense_assignment_loopINS0_31generic_dense_assignment_kernelINS0_9evaluatorINS_6MatrixIbLin1ELi1ELi0ELin1ELi1EEEEENS3_INS_14CwiseNullaryOpINS0_18scalar_constant_opIbEES5_EEEENS0_9assign_opIbbEELi0EEELi1ELi0EE3runERSE_"
 "_ZN5Eigen8internal21dense_assignment_loopINS0_31generic_dense_assignment_kernelINS0_9evaluatorINS_6MatrixIdLin1ELi1ELi0ELin1ELi1EEEEENS3_INS_13CwiseBinaryOpINS0_13scalar_sum_opIddEEKS5_SA_EEEENS0_9assign_opIddEELi0EEELi3ELi0EE3runERSF_"
 "_ZN5Eigen8internal21dense_assignment_loopINS0_31generic_dense_assignment_kernelINS0_9evaluatorINS_6MatrixIdLin1ELin1ELi0ELin1ELin1EEEEENS3_INS_12CwiseUnaryOpINS0_13scalar_abs_opIdEEKNS_12ArrayWrapperIS5_EEEEEENS0_9assign_opIddEELi0EEELi3ELi0EE3runERSH_"
 "_ZN5Eigen8internal21dense_assignment_loopINS0_31generic_dense_assignment_kernelINS0_9evaluatorINS_6MatrixIdLin1ELin1ELi0ELin1ELin1EEEEENS3_INS_13CwiseBinaryOpINS0_13scalar_sum_opIddEEKS5_SA_EEEENS0_9assign_opIddEELi0EEELi3ELi0EE3runERSF_"
 "_ZN5Eigen8internal21dense_assignment_loopINS0_31generic_dense_assignment_kernelINS0_9evaluatorINS_6MatrixIdLin1ELin1ELi0ELin1ELin1EEEEENS3_INS_13CwiseBinaryOpINS0_17scalar_product_opIddEEKNS_14CwiseNullaryOpINS0_18scalar_constant_opIdEEKS5_EESD_EEEENS0_9assign_opIddEELi0EEELi3ELi0EE3runERSK_"
 "_ZN5Eigen8internal21dense_assignment_loopINS0_31generic_dense_assignment_kernelINS0_9evaluatorINS_6MatrixIdLin1ELin1ELi0ELin1ELin1EEEEENS3_INS_13CwiseBinaryOpINS0_17scalar_product_opIddEEKS5_KNS_14CwiseNullaryOpINS0_18scalar_constant_opIdEESA_EEEEEENS0_9assign_opIddEELi0EEELi3ELi0EE3runERSK_"
 "_ZN5Eigen8internal21dense_assignment_loopINS0_31generic_dense_assignment_kernelINS0_9evaluatorINS_6MatrixIdLin1ELin1ELi0ELin1ELin1EEEEENS3_INS_13MatrixWrapperIKNS_5ArrayIdLin1ELi1ELi0ELin1ELi1EEEEEEENS0_9assign_opIddEELi0EEELi3ELi0EE3runERSF_"
 "_ZN5Eigen8internal21dense_assignment_loopINS0_31generic_dense_assignment_kernelINS0_9evaluatorINS_6MatrixIdLin1ELin1ELi0ELin1ELin1EEEEENS3_INS_14CwiseNullaryOpINS0_18scalar_constant_opIdEES5_EEEENS0_9assign_opIddEELi0EEELi3ELi0EE3runERSE_"
 "_ZN5Eigen8internal21dense_assignment_loopINS0_31generic_dense_assignment_kernelINS0_9evaluatorINS_6MatrixIdLin1ELin1ELi0ELin1ELin1EEEEENS3_INS_14CwiseNullaryOpINS0_18scalar_identity_opIdEES5_EEEENS0_9assign_opIddEELi0EEELi0ELi0EE3runERSE_"
 "_ZN5Eigen8internal21dense_assignment_loopINS0_31generic_dense_assignment_kernelINS0_9evaluatorINS_6MatrixIdLin1ELin1ELi0ELin1ELin1EEEEENS3_INS_7ProductIS5_S5_Li1EEEEENS0_9assign_opIddEELi0EEELi4ELi0EE3runERSC_"
 "_ZN5Eigen8internal21dense_assignment_loopINS0_31generic_dense_assignment_kernelINS0_9evaluatorINS_6MatrixIdLin1ELin1ELi0ELin1ELin1EEEEES6_NS0_13add_assign_opIddEELi0EEELi3ELi0EE3runERS9_"
 "_ZN5Eigen8internal21dense_assignment_loopINS0_31generic_dense_assignment_kernelINS0_9evaluatorINS_6MatrixIdLin1ELin1ELi0ELin1ELin1EEEEES6_NS0_13sub_assign_opIddEELi0EEELi3ELi0EE3runERS9_"
 "_ZN5Eigen8internal21dense_assignment_loopINS0_31generic_dense_assignment_kernelINS0_9evaluatorINS_6MatrixIdLin1ELin1ELi0ELin1ELin1EEEEES6_NS0_9assign_opIddEELi0EEELi3ELi0EE3runERS9_"
 "_ZN5Eigen8internal21dense_assignment_loopINS0_31generic_dense_assignment_kernelINS0_9evaluatorINS_6MatrixIiLin1ELin1ELi0ELin1ELin1EEEEENS3_INS_13MatrixWrapperIKNS_5ArrayIiLin1ELi1ELi0ELin1ELi1EEEEEEENS0_9assign_opIiiEELi0EEELi3ELi0EE3runERSF_"
 "_ZN5Eigen8internal21dense_assignment_loopINS0_31generic_dense_assignment_kernelINS0_9evaluatorINS_9TransposeINS_5BlockINS_6MatrixIdLin1ELin1ELi0ELin1ELin1EEELi1ELin1ELb0EEEEEEENS3_INS_5ArrayIdLin1ELi1ELi0ELin1ELi1EEEEENS0_9assign_opIddEELi0EEELi1ELi0EE3runERSG_"
 "_ZN5Eigen8internal21queryCacheSizes_intelERiS1_S1_i"
 "_ZN5Eigen8internal21scalar_score_coeff_opIdEC1ERKS2_"
 "_ZN5Eigen8internal21scalar_score_coeff_opIdEC1Ev"
 "_ZN5Eigen8internal22evaluator_wrapper_baseINS_12ArrayWrapperIKNS_5BlockIKNS_6MatrixIdLin1ELin1ELi0ELin1ELin1EEELin1ELin1ELb0EEEEEEC2ERS8_"
 "_ZN5Eigen8internal22evaluator_wrapper_baseINS_12ArrayWrapperIKNS_5BlockIKNS_6MatrixIdLin1ELin1ELi0ELin1ELin1EEELin1ELin1ELb0EEEEEED2Ev"
 "_ZN5Eigen8internal22evaluator_wrapper_baseINS_12ArrayWrapperIKNS_6MatrixIdLin1ELin1ELi0ELin1ELin1EEEEEEC2ERS5_"
 "_ZN5Eigen8internal22evaluator_wrapper_baseINS_12ArrayWrapperIKNS_6MatrixIdLin1ELin1ELi0ELin1ELin1EEEEEED2Ev"
 "_ZN5Eigen8internal22evaluator_wrapper_baseINS_12ArrayWrapperINS_6MatrixIdLin1ELin1ELi0ELin1ELin1EEEEEEC2ERKS4_"
 "_ZN5Eigen8internal22evaluator_wrapper_baseINS_12ArrayWrapperINS_6MatrixIdLin1ELin1ELi0ELin1ELin1EEEEEED2Ev"
 "_ZN5Eigen8internal22evaluator_wrapper_baseINS_13MatrixWrapperIKNS_5ArrayIdLin1ELi1ELi0ELin1ELi1EEEEEEC2ERS5_"
 "_ZN5Eigen8internal22evaluator_wrapper_baseINS_13MatrixWrapperIKNS_5ArrayIdLin1ELi1ELi0ELin1ELi1EEEEEED2Ev"
 "_ZN5Eigen8internal22evaluator_wrapper_baseINS_13MatrixWrapperIKNS_5ArrayIiLin1ELi1ELi0ELin1ELi1EEEEEEC2ERS5_"
 "_ZN5Eigen8internal22evaluator_wrapper_baseINS_13MatrixWrapperIKNS_5ArrayIiLin1ELi1ELi0ELin1ELi1EEEEEED2Ev"
 "_ZN5Eigen8internal22ignore_unused_variableIbEEvRKT_"
 "_ZN5Eigen8internal22ignore_unused_variableIiEEvRKT_"
 "_ZN5Eigen8internal22ignore_unused_variableINS_13CwiseBinaryOpINS0_17scalar_product_opIddEEKNS_14CwiseNullaryOpINS0_18scalar_constant_opIdEEKNS_6MatrixIdLin1ELi1ELi0ELin1ELi1EEEEEKNS_5BlockINSD_INSD_INS_3MapINS8_IdLin1ELin1ELi0ELin1ELin1EEELi0ENS_6StrideILi0ELi0EEEEELin1ELin1ELb0EEELin1ELi1ELb1EEELin1ELi1ELb0EEEEEEEvRKT_"
 "_ZN5Eigen8internal22ignore_unused_variableINS_14CwiseNullaryOpINS0_18scalar_constant_opIdEENS_6MatrixIdLin1ELi1ELi0ELin1ELi1EEEEEEEvRKT_"
 "_ZN5Eigen8internal22ignore_unused_variableINS_5BlockINS_6MatrixIdLin1ELin1ELi0ELin1ELin1EEELi1ELin1ELb0EEEEEvRKT_"
 "_ZN5Eigen8internal22ignore_unused_variableINS_5BlockINS2_INS_3MapINS_6MatrixIdLin1ELin1ELi0ELin1ELin1EEELi0ENS_6StrideILi0ELi0EEEEELin1ELin1ELb0EEELi1ELin1ELb0EEEEEvRKT_"
 "_ZN5Eigen8internal22ignore_unused_variableINS_5BlockINS2_INS_3MapINS_6MatrixIdLin1ELin1ELi0ELin1ELin1EEELi0ENS_6StrideILi0ELi0EEEEELin1ELin1ELb0EEELin1ELin1ELb0EEEEEvRKT_"
 "_ZN5Eigen8internal22ignore_unused_variableINS_5BlockINS2_INS2_INS_3MapINS_6MatrixIdLin1ELin1ELi0ELin1ELin1EEELi0ENS_6StrideILi0ELi0EEEEELin1ELin1ELb0EEELin1ELi1ELb1EEELin1ELi1ELb0EEEEEvRKT_"
 "_ZN5Eigen8internal22ignore_unused_variableINS_5BlockINS2_INS2_INS_3MapINS_6MatrixIdLin1ELin1ELi0ELin1ELin1EEELi0ENS_6StrideILi0ELi0EEEEELin1ELin1ELb0EEELin1ELin1ELb0EEELi1ELin1ELb0EEEEEvRKT_"
 "_ZN5Eigen8internal22ignore_unused_variableINS_5BlockINS2_INS2_INS_3MapINS_6MatrixIdLin1ELin1ELi0ELin1ELin1EEELi0ENS_6StrideILi0ELi0EEEEELin1ELin1ELb0EEELin1ELin1ELb0EEELin1ELi1ELb1EEEEEvRKT_"
 "_ZN5Eigen8internal22ignore_unused_variableINS_6MatrixIdLin1ELin1ELi0ELin1ELin1EEEEEvRKT_"
 "_ZN5Eigen8internal22ignore_unused_variableINS_7ProductINS_5BlockINS3_INS_3MapINS_6MatrixIdLin1ELin1ELi0ELin1ELin1EEELi0ENS_6StrideILi0ELi0EEEEELin1ELin1ELb0EEELin1ELin1ELb0EEESB_Li1EEEEEvRKT_"
 "_ZN5Eigen8internal22ignore_unused_variableIPNS0_16GemmParallelInfoIxEEEEvRKT_"
 "_ZN5Eigen8internal22ignore_unused_variableIxEEvRKT_"
 "_ZN5Eigen8internal22ignore_unused_variableIyEEvRKT_"
 "_ZN5Eigen8internal22no_assignment_operatorC2Ev"
 "_ZN5Eigen8internal23triangular_solve_matrixIdxLi1ELi2ELb0ELi0ELi0ELi1EE3runExxPKdxPdxxRNS0_15level3_blockingIddEE"
 "_ZN5Eigen8internal23triangular_solve_matrixIdxLi1ELi5ELb0ELi0ELi0ELi1EE3runExxPKdxPdxxRNS0_15level3_blockingIddEE"
 "_ZN5Eigen8internal24call_assignment_no_aliasINS_5ArrayIdLin1ELi1ELi0ELin1ELi1EEENS_13CwiseBinaryOpINS0_13scalar_sum_opIddEEKS3_S7_EENS0_9assign_opIddEEEEvRT_RKT0_RKT1_"
 "_ZN5Eigen8internal24call_assignment_no_aliasINS_5ArrayIdLin1ELi1ELi0ELin1ELi1EEENS_14CwiseNullaryOpINS0_18scalar_constant_opIdEES3_EENS0_9assign_opIddEEEEvRT_RKT0_RKT1_"
 "_ZN5Eigen8internal24call_assignment_no_aliasINS_5ArrayIdLin1ELi1ELi0ELin1ELi1EEENS_16PartialReduxExprINS_6MatrixIdLin1ELin1ELi0ELin1ELin1EEENS0_10member_sumIdEELi1EEENS0_9assign_opIddEEEEvRT_RKT0_RKT1_"
 "_ZN5Eigen8internal24call_assignment_no_aliasINS_5ArrayIdLin1ELi1ELi0ELin1ELi1EEENS_3MapINS_6MatrixIdLin1ELi1ELi0ELin1ELi1EEELi0ENS_6StrideILi0ELi0EEEEENS0_9assign_opIddEEEEvRT_RKT0_RKT1_"
 "_ZN5Eigen8internal24call_assignment_no_aliasINS_5ArrayIdLin1ELi1ELi0ELin1ELi1EEES3_NS0_9assign_opIddEEEEvRT_RKT0_RKT1_"
 "_ZN5Eigen8internal24call_assignment_no_aliasINS_5ArrayIdLin1ELin1ELi0ELin1ELin1EEENS2_IdLin1ELi1ELi0ELin1ELi1EEENS0_9assign_opIddEEEEvRT_RKT0_RKT1_"
 "_ZN5Eigen8internal24call_assignment_no_aliasINS_5ArrayIiLin1ELi1ELi0ELin1ELi1EEENS_12CwiseUnaryOpINS0_14scalar_cast_opIbiEEKNS2_IbLin1ELi1ELi0ELin1ELi1EEEEENS0_9assign_opIiiEEEEvRT_RKT0_RKT1_"
 "_ZN5Eigen8internal24call_assignment_no_aliasINS_5ArrayIiLin1ELi1ELi0ELin1ELi1EEENS_12CwiseUnaryOpINS0_14scalar_cast_opIdiEEKNS_3MapINS_6MatrixIdLin1ELi1ELi0ELin1ELi1EEELi0ENS_6StrideILi0ELi0EEEEEEENS0_9assign_opIiiEEEEvRT_RKT0_RKT1_"
 "_ZN5Eigen8internal24call_assignment_no_aliasINS_5ArrayIiLin1ELi1ELi0ELin1ELi1EEES3_NS0_9assign_opIiiEEEEvRT_RKT0_RKT1_"
 "_ZN5Eigen8internal24call_assignment_no_aliasINS_5ArrayIN5CppAD2ADIdEELin1ELi1ELi0ELin1ELi1EEENS_12CwiseUnaryOpINS0_14scalar_cast_opIdS5_EEKNS_3MapINS_6MatrixIdLin1ELi1ELi0ELin1ELi1EEELi0ENS_6StrideILi0ELi0EEEEEEENS0_9assign_opIS5_S5_EEEEvRT_RKT0_RKT1_"
 "_ZN5Eigen8internal24call_assignment_no_aliasINS_5ArrayIN5CppAD2ADIdEELin1ELin1ELi0ELin1ELin1EEENS2_IS5_Lin1ELi1ELi0ELin1ELi1EEENS0_9assign_opIS5_S5_EEEEvRT_RKT0_RKT1_"
 "_ZN5Eigen8internal24call_assignment_no_aliasINS_5ArrayIN5CppAD2ADINS4_IdEEEELin1ELi1ELi0ELin1ELi1EEENS_12CwiseUnaryOpINS0_14scalar_cast_opIdS6_EEKNS_3MapINS_6MatrixIdLin1ELi1ELi0ELin1ELi1EEELi0ENS_6StrideILi0ELi0EEEEEEENS0_9assign_opIS6_S6_EEEEvRT_RKT0_RKT1_"
 "_ZN5Eigen8internal24call_assignment_no_aliasINS_5ArrayIN5CppAD2ADINS4_IdEEEELin1ELin1ELi0ELin1ELin1EEENS2_IS6_Lin1ELi1ELi0ELin1ELi1EEENS0_9assign_opIS6_S6_EEEEvRT_RKT0_RKT1_"
 "_ZN5Eigen8internal24call_assignment_no_aliasINS_5ArrayIN5CppAD2ADINS4_INS4_IdEEEEEELin1ELi1ELi0ELin1ELi1EEENS_12CwiseUnaryOpINS0_14scalar_cast_opIdS7_EEKNS_3MapINS_6MatrixIdLin1ELi1ELi0ELin1ELi1EEELi0ENS_6StrideILi0ELi0EEEEEEENS0_9assign_opIS7_S7_EEEEvRT_RKT0_RKT1_"
 "_ZN5Eigen8internal24call_assignment_no_aliasINS_5ArrayIN5CppAD2ADINS4_INS4_IdEEEEEELin1ELin1ELi0ELin1ELin1EEENS2_IS7_Lin1ELi1ELi0ELin1ELi1EEENS0_9assign_opIS7_S7_EEEEvRT_RKT0_RKT1_"
 "_ZN5Eigen8internal24call_assignment_no_aliasINS_5ArrayIN8tmbutils6matrixIdEELin1ELi1ELi0ELin1ELi1EEENS_5BlockIS6_Lin1ELi1ELb0EEENS0_9assign_opIS5_S5_EEEEvRT_RKT0_RKT1_"
 "_ZN5Eigen8internal24call_assignment_no_aliasINS_5BlockINS_5ArrayIdLin1ELi1ELi0ELin1ELi1EEELin1ELi1ELb0EEENS3_IdLin1ELin1ELi0ELin1ELin1EEENS0_9assign_opIddEEEEvRT_RKT0_RKT1_"
 "_ZN5Eigen8internal24call_assignment_no_aliasINS_5BlockINS_5ArrayIN5CppAD2ADIdEELin1ELi1ELi0ELin1ELi1EEELin1ELi1ELb0EEENS3_IS6_Lin1ELin1ELi0ELin1ELin1EEENS0_9assign_opIS6_S6_EEEEvRT_RKT0_RKT1_"
 "_ZN5Eigen8internal24call_assignment_no_aliasINS_5BlockINS_5ArrayIN5CppAD2ADINS5_IdEEEELin1ELi1ELi0ELin1ELi1EEELin1ELi1ELb0EEENS3_IS7_Lin1ELin1ELi0ELin1ELin1EEENS0_9assign_opIS7_S7_EEEEvRT_RKT0_RKT1_"
 "_ZN5Eigen8internal24call_assignment_no_aliasINS_5BlockINS_5ArrayIN5CppAD2ADINS5_INS5_IdEEEEEELin1ELi1ELi0ELin1ELi1EEELin1ELi1ELb0EEENS3_IS8_Lin1ELin1ELi0ELin1ELin1EEENS0_9assign_opIS8_S8_EEEEvRT_RKT0_RKT1_"
 "_ZN5Eigen8internal24call_assignment_no_aliasINS_5BlockINS_6MatrixIdLin1ELin1ELi0ELin1ELin1EEELi1ELin1ELb0EEENS_5ArrayIdLin1ELi1ELi0ELin1ELi1EEENS0_9assign_opIddEEEEvRT_RKT0_RKT1_"
 "_ZN5Eigen8internal24call_assignment_no_aliasINS_5BlockINS_6MatrixIdLin1ELin1ELi0ELin1ELin1EEELi1ELin1ELb0EEENS2_IKNS_14CwiseNullaryOpINS0_18scalar_identity_opIdEES4_EELi1ELin1ELb0EEENS0_9assign_opIddEEEEvRT_RKT0_RKT1_"
 "_ZN5Eigen8internal24call_assignment_no_aliasINS_5BlockINS_6MatrixIdLin1ELin1ELi0ELin1ELin1EEELi1ELin1ELb0EEES5_NS0_14swap_assign_opIdEEEEvRT_RKT0_RKT1_"
 "_ZN5Eigen8internal24call_assignment_no_aliasINS_5BlockINS2_INS_3MapINS_6MatrixIdLin1ELin1ELi0ELin1ELin1EEELi0ENS_6StrideILi0ELi0EEEEELin1ELin1ELb0EEELi1ELin1ELb0EEESA_NS0_14swap_assign_opIdEEEEvRT_RKT0_RKT1_"
 "_ZN5Eigen8internal24call_assignment_no_aliasINS_5BlockINS2_INS_3MapINS_6MatrixIdLin1ELin1ELi0ELin1ELin1EEELi0ENS_6StrideILi0ELi0EEEEELin1ELin1ELb0EEELin1ELin1ELb0EEENS_7ProductINS2_INS2_IS9_Lin1ELi1ELb1EEELin1ELi1ELb0EEENS2_INS2_IS9_Li1ELin1ELb0EEELi1ELin1ELb0EEELi0EEENS0_13sub_assign_opIddEEEEvRT_RKT0_RKT1_"
 "_ZN5Eigen8internal24call_assignment_no_aliasINS_5BlockINS2_INS_3MapINS_6MatrixIdLin1ELin1ELi0ELin1ELin1EEELi0ENS_6StrideILi0ELi0EEEEELin1ELin1ELb0EEELin1ELin1ELb0EEENS_7ProductISA_SA_Li0EEENS0_13sub_assign_opIddEEEEvRT_RKT0_RKT1_"
 "_ZN5Eigen8internal24call_assignment_no_aliasINS_5BlockINS2_INS_3MapINS_6MatrixIdLin1ELin1ELi0ELin1ELin1EEELi0ENS_6StrideILi0ELi0EEEEELin1ELin1ELb0EEELin1ELin1ELb0EEENS_7ProductISA_SA_Li1EEENS0_13sub_assign_opIddEEEEvRT_RKT0_RKT1_"
 "_ZN5Eigen8internal24call_assignment_no_aliasINS_5BlockINS2_INS2_INS_3MapINS_6MatrixIdLin1ELin1ELi0ELin1ELin1EEELi0ENS_6StrideILi0ELi0EEEEELin1ELin1ELb0EEELin1ELi1ELb1EEELin1ELi1ELb0EEENS_14CwiseNullaryOpINS0_18scalar_constant_opIdEENS4_IdLin1ELi1ELi0ELin1ELi1EEEEENS0_13div_assign_opIddEEEEvRT_RKT0_RKT1_"
 "_ZN5Eigen8internal24call_assignment_no_aliasINS_5BlockINS2_INS2_INS_3MapINS_6MatrixIdLin1ELin1ELi0ELin1ELin1EEELi0ENS_6StrideILi0ELi0EEEEELin1ELin1ELb0EEELin1ELin1ELb0EEELi1ELin1ELb0EEESB_NS0_14swap_assign_opIdEEEEvRT_RKT0_RKT1_"
 "_ZN5Eigen8internal24call_assignment_no_aliasINS_5BlockINS2_INS2_INS_3MapINS_6MatrixIdLin1ELin1ELi0ELin1ELin1EEELi0ENS_6StrideILi0ELi0EEEEELin1ELin1ELb0EEELin1ELin1ELb0EEELin1ELi1ELb1EEENS_13CwiseBinaryOpINS0_17scalar_product_opIddEEKNS_14CwiseNullaryOpINS0_18scalar_constant_opIdEEKNS4_IdLin1ELi1ELi0ELin1ELi1EEEEEKNS2_INS2_IS9_Lin1ELi1ELb1EEELin1ELi1ELb0EEEEENS0_13sub_assign_opIddEEEEvRT_RKT0_RKT1_"
 "_ZN5Eigen8internal24call_assignment_no_aliasINS_6MatrixIbLin1ELi1ELi0ELin1ELi1EEENS_14CwiseNullaryOpINS0_18scalar_constant_opIbEES3_EENS0_9assign_opIbbEEEEvRT_RKT0_RKT1_"
 "_ZN5Eigen8internal24call_assignment_no_aliasINS_6MatrixIdLin1ELi1ELi0ELin1ELi1EEENS_13CwiseBinaryOpINS0_13scalar_sum_opIddEEKS3_S7_EENS0_9assign_opIddEEEEvRT_RKT0_RKT1_"
 "_ZN5Eigen8internal24call_assignment_no_aliasINS_6MatrixIdLin1ELin1ELi0ELin1ELin1EEENS_12CwiseUnaryOpINS0_13scalar_abs_opIdEEKNS_12ArrayWrapperIS3_EEEENS0_9assign_opIddEEEEvRT_RKT0_RKT1_"
 "_ZN5Eigen8internal24call_assignment_no_aliasINS_6MatrixIdLin1ELin1ELi0ELin1ELin1EEENS_13CwiseBinaryOpINS0_13scalar_sum_opIddEEKS3_S7_EENS0_9assign_opIddEEEEvRT_RKT0_RKT1_"
 "_ZN5Eigen8internal24call_assignment_no_aliasINS_6MatrixIdLin1ELin1ELi0ELin1ELin1EEENS_13CwiseBinaryOpINS0_17scalar_product_opIddEEKNS_14CwiseNullaryOpINS0_18scalar_constant_opIdEEKS3_EESA_EENS0_9assign_opIddEEEEvRT_RKT0_RKT1_"
 "_ZN5Eigen8internal24call_assignment_no_aliasINS_6MatrixIdLin1ELin1ELi0ELin1ELin1EEENS_13CwiseBinaryOpINS0_17scalar_product_opIddEEKS3_KNS_14CwiseNullaryOpINS0_18scalar_constant_opIdEES7_EEEENS0_9assign_opIddEEEEvRT_RKT0_RKT1_"
 "_ZN5Eigen8internal24call_assignment_no_aliasINS_6MatrixIdLin1ELin1ELi0ELin1ELin1EEENS_13MatrixWrapperIKNS_5ArrayIdLin1ELi1ELi0ELin1ELi1EEEEENS0_9assign_opIddEEEEvRT_RKT0_RKT1_"
 "_ZN5Eigen8internal24call_assignment_no_aliasINS_6MatrixIdLin1ELin1ELi0ELin1ELin1EEENS_14CwiseNullaryOpINS0_18scalar_constant_opIdEES3_EENS0_9assign_opIddEEEEvRT_RKT0_RKT1_"
 "_ZN5Eigen8internal24call_assignment_no_aliasINS_6MatrixIdLin1ELin1ELi0ELin1ELin1EEENS_14CwiseNullaryOpINS0_18scalar_identity_opIdEES3_EENS0_9assign_opIddEEEEvRT_RKT0_RKT1_"
 "_ZN5Eigen8internal24call_assignment_no_aliasINS_6MatrixIdLin1ELin1ELi0ELin1ELin1EEENS_5SolveINS_12PartialPivLUIS3_EENS_14CwiseNullaryOpINS0_18scalar_identity_opIdEES3_EEEENS0_9assign_opIddEEEEvRT_RKT0_RKT1_"
 "_ZN5Eigen8internal24call_assignment_no_aliasINS_6MatrixIdLin1ELin1ELi0ELin1ELin1EEENS_7InverseINS_12PartialPivLUIS3_EEEENS0_9assign_opIddEEEEvRT_RKT0_RKT1_"
 "_ZN5Eigen8internal24call_assignment_no_aliasINS_6MatrixIdLin1ELin1ELi0ELin1ELin1EEENS_7InverseIS3_EENS0_9assign_opIddEEEEvRT_RKT0_RKT1_"
 "_ZN5Eigen8internal24call_assignment_no_aliasINS_6MatrixIdLin1ELin1ELi0ELin1ELin1EEENS_7ProductINS_17PermutationMatrixILin1ELin1EiEENS_14CwiseNullaryOpINS0_18scalar_identity_opIdEES3_EELi2EEENS0_9assign_opIddEEEEvRT_RKT0_RKT1_"
 "_ZN5Eigen8internal24call_assignment_no_aliasINS_6MatrixIdLin1ELin1ELi0ELin1ELin1EEENS_7ProductIS3_S3_Li0EEENS0_9assign_opIddEEEEvRT_RKT0_RKT1_"
 "_ZN5Eigen8internal24call_assignment_no_aliasINS_6MatrixIdLin1ELin1ELi0ELin1ELin1EEENS_7ProductIS3_S3_Li1EEENS0_9assign_opIddEEEEvRT_RKT0_RKT1_"
 "_ZN5Eigen8internal24call_assignment_no_aliasINS_6MatrixIdLin1ELin1ELi0ELin1ELin1EEES3_NS0_13add_assign_opIddEEEEvRT_RKT0_RKT1_"
 "_ZN5Eigen8internal24call_assignment_no_aliasINS_6MatrixIdLin1ELin1ELi0ELin1ELin1EEES3_NS0_13sub_assign_opIddEEEEvRT_RKT0_RKT1_"
 "_ZN5Eigen8internal24call_assignment_no_aliasINS_6MatrixIdLin1ELin1ELi0ELin1ELin1EEES3_NS0_9assign_opIddEEEEvRT_RKT0_RKT1_"
 "_ZN5Eigen8internal24call_assignment_no_aliasINS_6MatrixIiLin1ELin1ELi0ELin1ELin1EEENS_13MatrixWrapperIKNS_5ArrayIiLin1ELi1ELi0ELin1ELi1EEEEENS0_9assign_opIiiEEEEvRT_RKT0_RKT1_"
 "_ZN5Eigen8internal24conditional_aligned_freeILb1EEEvPv"
 "_ZN5Eigen8internal24etor_product_packet_implILi0ELin1ENS0_9evaluatorINS_5BlockINS3_INS_3MapINS_6MatrixIdLin1ELin1ELi0ELin1ELin1EEELi0ENS_6StrideILi0ELi0EEEEELin1ELin1ELb0EEELin1ELin1ELb0EEEEESC_U8__vectordLi0EE3runExxRKSC_SG_xRSD_"
 "_ZN5Eigen8internal24etor_product_packet_implILi0ELin1ENS0_9evaluatorINS_6MatrixIdLin1ELin1ELi0ELin1ELin1EEEEES5_U8__vectordLi0EE3runExxRKS5_S9_xRS6_"
 "_ZN5Eigen8internal24useSpecificBlockingSizesIxEEbRT_S3_S3_"
 "_ZN5Eigen8internal26call_dense_assignment_loopINS_5ArrayIdLin1ELi1ELi0ELin1ELi1EEENS_13CwiseBinaryOpINS0_13scalar_sum_opIddEEKS3_S7_EENS0_9assign_opIddEEEEvRT_RKT0_RKT1_"
 "_ZN5Eigen8internal26call_dense_assignment_loopINS_5ArrayIdLin1ELi1ELi0ELin1ELi1EEENS_14CwiseNullaryOpINS0_18scalar_constant_opIdEES3_EENS0_9assign_opIddEEEEvRT_RKT0_RKT1_"
 "_ZN5Eigen8internal26call_dense_assignment_loopINS_5ArrayIdLin1ELi1ELi0ELin1ELi1EEENS_16PartialReduxExprINS_6MatrixIdLin1ELin1ELi0ELin1ELin1EEENS0_10member_sumIdEELi1EEENS0_9assign_opIddEEEEvRT_RKT0_RKT1_"
 "_ZN5Eigen8internal26call_dense_assignment_loopINS_5ArrayIdLin1ELi1ELi0ELin1ELi1EEENS_3MapINS_6MatrixIdLin1ELi1ELi0ELin1ELi1EEELi0ENS_6StrideILi0ELi0EEEEENS0_9assign_opIddEEEEvRT_RKT0_RKT1_"
 "_ZN5Eigen8internal26call_dense_assignment_loopINS_5ArrayIdLin1ELi1ELi0ELin1ELi1EEES3_NS0_9assign_opIddEEEEvRT_RKT0_RKT1_"
 "_ZN5Eigen8internal26call_dense_assignment_loopINS_5ArrayIdLin1ELin1ELi0ELin1ELin1EEENS2_IdLin1ELi1ELi0ELin1ELi1EEENS0_9assign_opIddEEEEvRT_RKT0_RKT1_"
 "_ZN5Eigen8internal26call_dense_assignment_loopINS_5ArrayIiLin1ELi1ELi0ELin1ELi1EEENS_12CwiseUnaryOpINS0_14scalar_cast_opIbiEEKNS2_IbLin1ELi1ELi0ELin1ELi1EEEEENS0_9assign_opIiiEEEEvRT_RKT0_RKT1_"
 "_ZN5Eigen8internal26call_dense_assignment_loopINS_5ArrayIiLin1ELi1ELi0ELin1ELi1EEENS_12CwiseUnaryOpINS0_14scalar_cast_opIdiEEKNS_3MapINS_6MatrixIdLin1ELi1ELi0ELin1ELi1EEELi0ENS_6StrideILi0ELi0EEEEEEENS0_9assign_opIiiEEEEvRT_RKT0_RKT1_"
 "_ZN5Eigen8internal26call_dense_assignment_loopINS_5ArrayIiLin1ELi1ELi0ELin1ELi1EEES3_NS0_9assign_opIiiEEEEvRT_RKT0_RKT1_"
 "_ZN5Eigen8internal26call_dense_assignment_loopINS_5ArrayIN5CppAD2ADIdEELin1ELi1ELi0ELin1ELi1EEENS_12CwiseUnaryOpINS0_14scalar_cast_opIdS5_EEKNS_3MapINS_6MatrixIdLin1ELi1ELi0ELin1ELi1EEELi0ENS_6StrideILi0ELi0EEEEEEENS0_9assign_opIS5_S5_EEEEvRT_RKT0_RKT1_"
 "_ZN5Eigen8internal26call_dense_assignment_loopINS_5ArrayIN5CppAD2ADIdEELin1ELin1ELi0ELin1ELin1EEENS2_IS5_Lin1ELi1ELi0ELin1ELi1EEENS0_9assign_opIS5_S5_EEEEvRT_RKT0_RKT1_"
 "_ZN5Eigen8internal26call_dense_assignment_loopINS_5ArrayIN5CppAD2ADINS4_IdEEEELin1ELi1ELi0ELin1ELi1EEENS_12CwiseUnaryOpINS0_14scalar_cast_opIdS6_EEKNS_3MapINS_6MatrixIdLin1ELi1ELi0ELin1ELi1EEELi0ENS_6StrideILi0ELi0EEEEEEENS0_9assign_opIS6_S6_EEEEvRT_RKT0_RKT1_"
 "_ZN5Eigen8internal26call_dense_assignment_loopINS_5ArrayIN5CppAD2ADINS4_IdEEEELin1ELin1ELi0ELin1ELin1EEENS2_IS6_Lin1ELi1ELi0ELin1ELi1EEENS0_9assign_opIS6_S6_EEEEvRT_RKT0_RKT1_"
 "_ZN5Eigen8internal26call_dense_assignment_loopINS_5ArrayIN5CppAD2ADINS4_INS4_IdEEEEEELin1ELi1ELi0ELin1ELi1EEENS_12CwiseUnaryOpINS0_14scalar_cast_opIdS7_EEKNS_3MapINS_6MatrixIdLin1ELi1ELi0ELin1ELi1EEELi0ENS_6StrideILi0ELi0EEEEEEENS0_9assign_opIS7_S7_EEEEvRT_RKT0_RKT1_"
 "_ZN5Eigen8internal26call_dense_assignment_loopINS_5ArrayIN5CppAD2ADINS4_INS4_IdEEEEEELin1ELin1ELi0ELin1ELin1EEENS2_IS7_Lin1ELi1ELi0ELin1ELi1EEENS0_9assign_opIS7_S7_EEEEvRT_RKT0_RKT1_"
 "_ZN5Eigen8internal26call_dense_assignment_loopINS_5ArrayIN8tmbutils6matrixIdEELin1ELi1ELi0ELin1ELi1EEENS_5BlockIS6_Lin1ELi1ELb0EEENS0_9assign_opIS5_S5_EEEEvRT_RKT0_RKT1_"
 "_ZN5Eigen8internal26call_dense_assignment_loopINS_5BlockINS_5ArrayIdLin1ELi1ELi0ELin1ELi1EEELin1ELi1ELb0EEENS3_IdLin1ELin1ELi0ELin1ELin1EEENS0_9assign_opIddEEEEvRT_RKT0_RKT1_"
 "_ZN5Eigen8internal26call_dense_assignment_loopINS_5BlockINS_5ArrayIN5CppAD2ADIdEELin1ELi1ELi0ELin1ELi1EEELin1ELi1ELb0EEENS3_IS6_Lin1ELin1ELi0ELin1ELin1EEENS0_9assign_opIS6_S6_EEEEvRT_RKT0_RKT1_"
 "_ZN5Eigen8internal26call_dense_assignment_loopINS_5BlockINS_5ArrayIN5CppAD2ADINS5_IdEEEELin1ELi1ELi0ELin1ELi1EEELin1ELi1ELb0EEENS3_IS7_Lin1ELin1ELi0ELin1ELin1EEENS0_9assign_opIS7_S7_EEEEvRT_RKT0_RKT1_"
 "_ZN5Eigen8internal26call_dense_assignment_loopINS_5BlockINS_5ArrayIN5CppAD2ADINS5_INS5_IdEEEEEELin1ELi1ELi0ELin1ELi1EEELin1ELi1ELb0EEENS3_IS8_Lin1ELin1ELi0ELin1ELin1EEENS0_9assign_opIS8_S8_EEEEvRT_RKT0_RKT1_"
 "_ZN5Eigen8internal26call_dense_assignment_loopINS_5BlockINS_6MatrixIdLin1ELin1ELi0ELin1ELin1EEELi1ELin1ELb0EEENS2_IKNS_14CwiseNullaryOpINS0_18scalar_identity_opIdEES4_EELi1ELin1ELb0EEENS0_9assign_opIddEEEEvRT_RKT0_RKT1_"
 "_ZN5Eigen8internal26call_dense_assignment_loopINS_5BlockINS_6MatrixIdLin1ELin1ELi0ELin1ELin1EEELi1ELin1ELb0EEES5_NS0_14swap_assign_opIdEEEEvRT_RKT0_RKT1_"
 "_ZN5Eigen8internal26call_dense_assignment_loopINS_5BlockINS2_INS_3MapINS_6MatrixIdLin1ELin1ELi0ELin1ELin1EEELi0ENS_6StrideILi0ELi0EEEEELin1ELin1ELb0EEELi1ELin1ELb0EEESA_NS0_14swap_assign_opIdEEEEvRT_RKT0_RKT1_"
 "_ZN5Eigen8internal26call_dense_assignment_loopINS_5BlockINS2_INS_3MapINS_6MatrixIdLin1ELin1ELi0ELin1ELin1EEELi0ENS_6StrideILi0ELi0EEEEELin1ELin1ELb0EEELin1ELin1ELb0EEENS_7ProductISA_SA_Li1EEENS0_13sub_assign_opIddEEEEvRT_RKT0_RKT1_"
 "_ZN5Eigen8internal26call_dense_assignment_loopINS_5BlockINS2_INS2_INS_3MapINS_6MatrixIdLin1ELin1ELi0ELin1ELin1EEELi0ENS_6StrideILi0ELi0EEEEELin1ELin1ELb0EEELin1ELi1ELb1EEELin1ELi1ELb0EEENS_14CwiseNullaryOpINS0_18scalar_constant_opIdEENS4_IdLin1ELi1ELi0ELin1ELi1EEEEENS0_13div_assign_opIddEEEEvRT_RKT0_RKT1_"
 "_ZN5Eigen8internal26call_dense_assignment_loopINS_5BlockINS2_INS2_INS_3MapINS_6MatrixIdLin1ELin1ELi0ELin1ELin1EEELi0ENS_6StrideILi0ELi0EEEEELin1ELin1ELb0EEELin1ELin1ELb0EEELi1ELin1ELb0EEESB_NS0_14swap_assign_opIdEEEEvRT_RKT0_RKT1_"
 "_ZN5Eigen8internal26call_dense_assignment_loopINS_5BlockINS2_INS2_INS_3MapINS_6MatrixIdLin1ELin1ELi0ELin1ELin1EEELi0ENS_6StrideILi0ELi0EEEEELin1ELin1ELb0EEELin1ELin1ELb0EEELin1ELi1ELb1EEENS_13CwiseBinaryOpINS0_17scalar_product_opIddEEKNS_14CwiseNullaryOpINS0_18scalar_constant_opIdEEKNS4_IdLin1ELi1ELi0ELin1ELi1EEEEEKNS2_INS2_IS9_Lin1ELi1ELb1EEELin1ELi1ELb0EEEEENS0_13sub_assign_opIddEEEEvRT_RKT0_RKT1_"
 "_ZN5Eigen8internal26call_dense_assignment_loopINS_6MatrixIbLin1ELi1ELi0ELin1ELi1EEENS_14CwiseNullaryOpINS0_18scalar_constant_opIbEES3_EENS0_9assign_opIbbEEEEvRT_RKT0_RKT1_"
 "_ZN5Eigen8internal26call_dense_assignment_loopINS_6MatrixIdLin1ELi1ELi0ELin1ELi1EEENS_13CwiseBinaryOpINS0_13scalar_sum_opIddEEKS3_S7_EENS0_9assign_opIddEEEEvRT_RKT0_RKT1_"
 "_ZN5Eigen8internal26call_dense_assignment_loopINS_6MatrixIdLin1ELin1ELi0ELin1ELin1EEENS_12CwiseUnaryOpINS0_13scalar_abs_opIdEEKNS_12ArrayWrapperIS3_EEEENS0_9assign_opIddEEEEvRT_RKT0_RKT1_"
 "_ZN5Eigen8internal26call_dense_assignment_loopINS_6MatrixIdLin1ELin1ELi0ELin1ELin1EEENS_13CwiseBinaryOpINS0_13scalar_sum_opIddEEKS3_S7_EENS0_9assign_opIddEEEEvRT_RKT0_RKT1_"
 "_ZN5Eigen8internal26call_dense_assignment_loopINS_6MatrixIdLin1ELin1ELi0ELin1ELin1EEENS_13CwiseBinaryOpINS0_17scalar_product_opIddEEKNS_14CwiseNullaryOpINS0_18scalar_constant_opIdEEKS3_EESA_EENS0_9assign_opIddEEEEvRT_RKT0_RKT1_"
 "_ZN5Eigen8internal26call_dense_assignment_loopINS_6MatrixIdLin1ELin1ELi0ELin1ELin1EEENS_13CwiseBinaryOpINS0_17scalar_product_opIddEEKS3_KNS_14CwiseNullaryOpINS0_18scalar_constant_opIdEES7_EEEENS0_9assign_opIddEEEEvRT_RKT0_RKT1_"
 "_ZN5Eigen8internal26call_dense_assignment_loopINS_6MatrixIdLin1ELin1ELi0ELin1ELin1EEENS_13MatrixWrapperIKNS_5ArrayIdLin1ELi1ELi0ELin1ELi1EEEEENS0_9assign_opIddEEEEvRT_RKT0_RKT1_"
 "_ZN5Eigen8internal26call_dense_assignment_loopINS_6MatrixIdLin1ELin1ELi0ELin1ELin1EEENS_14CwiseNullaryOpINS0_18scalar_constant_opIdEES3_EENS0_9assign_opIddEEEEvRT_RKT0_RKT1_"
 "_ZN5Eigen8internal26call_dense_assignment_loopINS_6MatrixIdLin1ELin1ELi0ELin1ELin1EEENS_14CwiseNullaryOpINS0_18scalar_identity_opIdEES3_EENS0_9assign_opIddEEEEvRT_RKT0_RKT1_"
 "_ZN5Eigen8internal26call_dense_assignment_loopINS_6MatrixIdLin1ELin1ELi0ELin1ELin1EEENS_7ProductIS3_S3_Li1EEENS0_9assign_opIddEEEEvRT_RKT0_RKT1_"
 "_ZN5Eigen8internal26call_dense_assignment_loopINS_6MatrixIdLin1ELin1ELi0ELin1ELin1EEES3_NS0_13add_assign_opIddEEEEvRT_RKT0_RKT1_"
 "_ZN5Eigen8internal26call_dense_assignment_loopINS_6MatrixIdLin1ELin1ELi0ELin1ELin1EEES3_NS0_13sub_assign_opIddEEEEvRT_RKT0_RKT1_"
 "_ZN5Eigen8internal26call_dense_assignment_loopINS_6MatrixIdLin1ELin1ELi0ELin1ELin1EEES3_NS0_9assign_opIddEEEEvRT_RKT0_RKT1_"
 "_ZN5Eigen8internal26call_dense_assignment_loopINS_6MatrixIiLin1ELin1ELi0ELin1ELin1EEENS_13MatrixWrapperIKNS_5ArrayIiLin1ELi1ELi0ELin1ELi1EEEEENS0_9assign_opIiiEEEEvRT_RKT0_RKT1_"
 "_ZN5Eigen8internal26call_dense_assignment_loopINS_9TransposeINS_5BlockINS_6MatrixIdLin1ELin1ELi0ELin1ELin1EEELi1ELin1ELb0EEEEENS_5ArrayIdLin1ELi1ELi0ELin1ELi1EEENS0_9assign_opIddEEEEvRT_RKT0_RKT1_"
 "_ZN5Eigen8internal26conditional_aligned_mallocILb1EEEPvy"
 "_ZN5Eigen8internal26destruct_elements_of_arrayIdEEvPT_y"
 "_ZN5Eigen8internal26destruct_elements_of_arrayIN5CppAD2ADIdEEEEvPT_y"
 "_ZN5Eigen8internal26destruct_elements_of_arrayIN5CppAD2ADINS3_IdEEEEEEvPT_y"
 "_ZN5Eigen8internal26destruct_elements_of_arrayIN5CppAD2ADINS3_INS3_IdEEEEEEEEvPT_y"
 "_ZN5Eigen8internal26destruct_elements_of_arrayIN8tmbutils6matrixIdEEEEvPT_y"
 "_ZN5Eigen8internal26destruct_elements_of_arrayIN8tmbutils6vectorIdEEEEvPT_y"
 "_ZN5Eigen8internal26destruct_elements_of_arrayIN8tmbutils6vectorIiEEEEvPT_y"
 "_ZN5Eigen8internal26destruct_elements_of_arrayIN8tmbutils6vectorIyEEEEvPT_y"
 "_ZN5Eigen8internal26destruct_elements_of_arrayINS_6MatrixIdLin1ELi1ELi0ELin1ELi1EEEEEvPT_y"
 "_ZN5Eigen8internal26destruct_elements_of_arrayIP8sphess_tIN5CppAD5ADFunIdEEEEEvPT_y"
 "_ZN5Eigen8internal26destruct_elements_of_arrayIPKcEEvPT_y"
 "_ZN5Eigen8internal26destruct_elements_of_arrayIPN5CppAD5ADFunIdEEEEvPT_y"
 "_ZN5Eigen8internal26destruct_elements_of_arrayIyEEvPT_y"
 "_ZN5Eigen8internal26outer_product_selector_runINS_5BlockINS2_INS_3MapINS_6MatrixIdLin1ELin1ELi0ELin1ELin1EEELi0ENS_6StrideILi0ELi0EEEEELin1ELin1ELb0EEELin1ELin1ELb0EEENS2_INS2_IS9_Lin1ELi1ELb1EEELin1ELi1ELb0EEENS2_INS2_IS9_Li1ELin1ELb0EEELi1ELin1ELb0EEENS0_20generic_product_implISC_SE_NS_10DenseShapeESG_Li5EE3subEEEvRT_RKT0_RKT1_RKT2_RKNS0_10false_typeE"
 "_ZN5Eigen8internal26permutation_matrix_productINS_14CwiseNullaryOpINS0_18scalar_identity_opIdEENS_6MatrixIdLin1ELin1ELi0ELin1ELin1EEEEELi1ELb0ENS_10DenseShapeEE3runIS6_NS_17PermutationMatrixILin1ELin1EiEEEEvRT_RKT0_RKS7_"
 "_ZN5Eigen8internal26triangular_solver_selectorIKNS_6MatrixIdLin1ELin1ELi0ELin1ELin1EEES3_Li1ELi2ELi0ELin1EE3runERS4_RS3_"
 "_ZN5Eigen8internal26triangular_solver_selectorIKNS_6MatrixIdLin1ELin1ELi0ELin1ELin1EEES3_Li1ELi5ELi0ELin1EE3runERS4_RS3_"
 "_ZN5Eigen8internal26triangular_solver_selectorINS_5BlockINS2_INS_3MapINS_6MatrixIdLin1ELin1ELi0ELin1ELin1EEELi0ENS_6StrideILi0ELi0EEEEELin1ELin1ELb0EEELin1ELin1ELb0EEESA_Li1ELi5ELi0ELin1EE3runERKSA_RSA_"
 "_ZN5Eigen8internal27computeProductBlockingSizesIddLi1ExEEvRT2_S3_S3_S2_"
 "_ZN5Eigen8internal27computeProductBlockingSizesIddLi4ExEEvRT2_S3_S3_S2_"
 "_ZN5Eigen8internal27conditional_aligned_reallocILb1EEEPvS2_yy"
 "_ZN5Eigen8internal27construct_elements_of_arrayIN5CppAD2ADIdEEEEPT_S6_y"
 "_ZN5Eigen8internal27construct_elements_of_arrayIN5CppAD2ADINS3_IdEEEEEEPT_S7_y"
 "_ZN5Eigen8internal27construct_elements_of_arrayIN5CppAD2ADINS3_INS3_IdEEEEEEEEPT_S8_y"
 "_ZN5Eigen8internal27construct_elements_of_arrayIN8tmbutils6matrixIdEEEEPT_S6_y"
 "_ZN5Eigen8internal27construct_elements_of_arrayIN8tmbutils6vectorIdEEEEPT_S6_y"
 "_ZN5Eigen8internal27construct_elements_of_arrayIN8tmbutils6vectorIiEEEEPT_S6_y"
 "_ZN5Eigen8internal27construct_elements_of_arrayINS_6MatrixIdLin1ELi1ELi0ELin1ELi1EEEEEPT_S5_y"
 "_ZN5Eigen8internal27construct_elements_of_arrayIPKcEEPT_S5_y"
 "_ZN5Eigen8internal27construct_elements_of_arrayIyEEPT_S3_y"
 "_ZN5Eigen8internal27manage_caching_sizes_helperExx"
 "_ZN5Eigen8internal27queryCacheSizes_intel_codesERiS1_S1_"
 "_ZN5Eigen8internal28aligned_stack_memory_handlerIdEC1EPdyb"
 "_ZN5Eigen8internal28aligned_stack_memory_handlerIdED1Ev"
 "_ZN5Eigen8internal28check_that_malloc_is_allowedEv"
 "_ZN5Eigen8internal28conditional_aligned_new_autoIbLb1EEEPT_y"
 "_ZN5Eigen8internal28conditional_aligned_new_autoIdLb1EEEPT_y"
 "_ZN5Eigen8internal28conditional_aligned_new_autoIiLb1EEEPT_y"
 "_ZN5Eigen8internal28conditional_aligned_new_autoIN5CppAD2ADIdEELb1EEEPT_y"
 "_ZN5Eigen8internal28conditional_aligned_new_autoIN5CppAD2ADINS3_IdEEEELb1EEEPT_y"
 "_ZN5Eigen8internal28conditional_aligned_new_autoIN5CppAD2ADINS3_INS3_IdEEEEEELb1EEEPT_y"
 "_ZN5Eigen8internal28conditional_aligned_new_autoIN8tmbutils6matrixIdEELb1EEEPT_y"
 "_ZN5Eigen8internal28conditional_aligned_new_autoIN8tmbutils6vectorIdEELb1EEEPT_y"
 "_ZN5Eigen8internal28conditional_aligned_new_autoIN8tmbutils6vectorIiEELb1EEEPT_y"
 "_ZN5Eigen8internal28conditional_aligned_new_autoINS_6MatrixIdLin1ELi1ELi0ELin1ELi1EEELb1EEEPT_y"
 "_ZN5Eigen8internal28conditional_aligned_new_autoIPKcLb1EEEPT_y"
 "_ZN5Eigen8internal28conditional_aligned_new_autoIyLb1EEEPT_y"
 "_ZN5Eigen8internal28queryCacheSizes_intel_directERiS1_S1_"
 "_ZN5Eigen8internal29conservative_resize_like_implINS_5ArrayIdLin1ELi1ELi0ELin1ELi1EEES3_Lb1EE3runERNS_9DenseBaseIS3_EEx"
 "_ZN5Eigen8internal29conservative_resize_like_implINS_5ArrayIN5CppAD2ADIdEELin1ELi1ELi0ELin1ELi1EEES6_Lb1EE3runERNS_9DenseBaseIS6_EEx"
 "_ZN5Eigen8internal29conservative_resize_like_implINS_5ArrayIN5CppAD2ADINS4_IdEEEELin1ELi1ELi0ELin1ELi1EEES7_Lb1EE3runERNS_9DenseBaseIS7_EEx"
 "_ZN5Eigen8internal29conservative_resize_like_implINS_5ArrayIN5CppAD2ADINS4_INS4_IdEEEEEELin1ELi1ELi0ELin1ELi1EEES8_Lb1EE3runERNS_9DenseBaseIS8_EEx"
 "_ZN5Eigen8internal29conservative_resize_like_implINS_5ArrayIN8tmbutils6vectorIiEELin1ELi1ELi0ELin1ELi1EEES6_Lb1EE3runERNS_9DenseBaseIS6_EEx"
 "_ZN5Eigen8internal29conservative_resize_like_implINS_5ArrayIPKcLin1ELi1ELi0ELin1ELi1EEES5_Lb1EE3runERNS_9DenseBaseIS5_EEx"
 "_ZN5Eigen8internal29general_matrix_matrix_productIxdLi0ELb0EdLi0ELb0ELi0ELi1EE3runExxxPKdxS4_xPdxxdRNS0_15level3_blockingIddEEPNS0_16GemmParallelInfoIxEE"
 "_ZN5Eigen8internal31conditional_aligned_delete_autoIbLb1EEEvPT_y"
 "_ZN5Eigen8internal31conditional_aligned_delete_autoIdLb1EEEvPT_y"
 "_ZN5Eigen8internal31conditional_aligned_delete_autoIiLb1EEEvPT_y"
 "_ZN5Eigen8internal31conditional_aligned_delete_autoIN5CppAD2ADIdEELb1EEEvPT_y"
 "_ZN5Eigen8internal31conditional_aligned_delete_autoIN5CppAD2ADINS3_IdEEEELb1EEEvPT_y"
 "_ZN5Eigen8internal31conditional_aligned_delete_autoIN5CppAD2ADINS3_INS3_IdEEEEEELb1EEEvPT_y"
 "_ZN5Eigen8internal31conditional_aligned_delete_autoIN8tmbutils6matrixIdEELb1EEEvPT_y"
 "_ZN5Eigen8internal31conditional_aligned_delete_autoIN8tmbutils6vectorIdEELb1EEEvPT_y"
 "_ZN5Eigen8internal31conditional_aligned_delete_autoIN8tmbutils6vectorIiEELb1EEEvPT_y"
 "_ZN5Eigen8internal31conditional_aligned_delete_autoIN8tmbutils6vectorIyEELb1EEEvPT_y"
 "_ZN5Eigen8internal31conditional_aligned_delete_autoINS_6MatrixIdLin1ELi1ELi0ELin1ELi1EEELb1EEEvPT_y"
 "_ZN5Eigen8internal31conditional_aligned_delete_autoIP8sphess_tIN5CppAD5ADFunIdEEELb1EEEvPT_y"
 "_ZN5Eigen8internal31conditional_aligned_delete_autoIPKcLb1EEEvPT_y"
 "_ZN5Eigen8internal31conditional_aligned_delete_autoIPN5CppAD5ADFunIdEELb1EEEvPT_y"
 "_ZN5Eigen8internal31conditional_aligned_delete_autoIyLb1EEEvPT_y"
 "_ZN5Eigen8internal31generic_dense_assignment_kernelINS0_9evaluatorINS_5ArrayIdLin1ELi1ELi0ELin1ELi1EEEEENS2_INS_13CwiseBinaryOpINS0_13scalar_sum_opIddEEKS4_S9_EEEENS0_9assign_opIddEELi0EE11assignCoeffEx"
 "_ZN5Eigen8internal31generic_dense_assignment_kernelINS0_9evaluatorINS_5ArrayIdLin1ELi1ELi0ELin1ELi1EEEEENS2_INS_13CwiseBinaryOpINS0_13scalar_sum_opIddEEKS4_S9_EEEENS0_9assign_opIddEELi0EE12assignPacketILi16ELi16EU8__vectordEEvx"
 "_ZN5Eigen8internal31generic_dense_assignment_kernelINS0_9evaluatorINS_5ArrayIdLin1ELi1ELi0ELin1ELi1EEEEENS2_INS_13CwiseBinaryOpINS0_13scalar_sum_opIddEEKS4_S9_EEEENS0_9assign_opIddEELi0EEC1ERS5_RKSB_RKSD_RS4_"
 "_ZN5Eigen8internal31generic_dense_assignment_kernelINS0_9evaluatorINS_5ArrayIdLin1ELi1ELi0ELin1ELi1EEEEENS2_INS_14CwiseNullaryOpINS0_18scalar_constant_opIdEES4_EEEENS0_9assign_opIddEELi0EE11assignCoeffEx"
 "_ZN5Eigen8internal31generic_dense_assignment_kernelINS0_9evaluatorINS_5ArrayIdLin1ELi1ELi0ELin1ELi1EEEEENS2_INS_14CwiseNullaryOpINS0_18scalar_constant_opIdEES4_EEEENS0_9assign_opIddEELi0EE12assignPacketILi16ELi16EU8__vectordEEvx"
 "_ZN5Eigen8internal31generic_dense_assignment_kernelINS0_9evaluatorINS_5ArrayIdLin1ELi1ELi0ELin1ELi1EEEEENS2_INS_14CwiseNullaryOpINS0_18scalar_constant_opIdEES4_EEEENS0_9assign_opIddEELi0EEC1ERS5_RKSA_RKSC_RS4_"
 "_ZN5Eigen8internal31generic_dense_assignment_kernelINS0_9evaluatorINS_5ArrayIdLin1ELi1ELi0ELin1ELi1EEEEENS2_INS_16PartialReduxExprINS_6MatrixIdLin1ELin1ELi0ELin1ELin1EEENS0_10member_sumIdEELi1EEEEENS0_9assign_opIddEELi0EE11assignCoeffEx"
 "_ZN5Eigen8internal31generic_dense_assignment_kernelINS0_9evaluatorINS_5ArrayIdLin1ELi1ELi0ELin1ELi1EEEEENS2_INS_16PartialReduxExprINS_6MatrixIdLin1ELin1ELi0ELin1ELin1EEENS0_10member_sumIdEELi1EEEEENS0_9assign_opIddEELi0EEC1ERS5_RKSC_RKSE_RS4_"
 "_ZN5Eigen8internal31generic_dense_assignment_kernelINS0_9evaluatorINS_5ArrayIdLin1ELi1ELi0ELin1ELi1EEEEENS2_INS_3MapINS_6MatrixIdLin1ELi1ELi0ELin1ELi1EEELi0ENS_6StrideILi0ELi0EEEEEEENS0_9assign_opIddEELi0EE11assignCoeffEx"
 "_ZN5Eigen8internal31generic_dense_assignment_kernelINS0_9evaluatorINS_5ArrayIdLin1ELi1ELi0ELin1ELi1EEEEENS2_INS_3MapINS_6MatrixIdLin1ELi1ELi0ELin1ELi1EEELi0ENS_6StrideILi0ELi0EEEEEEENS0_9assign_opIddEELi0EE12assignPacketILi16ELi0EU8__vectordEEvx"
 "_ZN5Eigen8internal31generic_dense_assignment_kernelINS0_9evaluatorINS_5ArrayIdLin1ELi1ELi0ELin1ELi1EEEEENS2_INS_3MapINS_6MatrixIdLin1ELi1ELi0ELin1ELi1EEELi0ENS_6StrideILi0ELi0EEEEEEENS0_9assign_opIddEELi0EEC1ERS5_RKSC_RKSE_RS4_"
 "_ZN5Eigen8internal31generic_dense_assignment_kernelINS0_9evaluatorINS_5ArrayIdLin1ELi1ELi0ELin1ELi1EEEEES5_NS0_9assign_opIddEELi0EE11assignCoeffEx"
 "_ZN5Eigen8internal31generic_dense_assignment_kernelINS0_9evaluatorINS_5ArrayIdLin1ELi1ELi0ELin1ELi1EEEEES5_NS0_9assign_opIddEELi0EE12assignPacketILi16ELi16EU8__vectordEEvx"
 "_ZN5Eigen8internal31generic_dense_assignment_kernelINS0_9evaluatorINS_5ArrayIdLin1ELi1ELi0ELin1ELi1EEEEES5_NS0_9assign_opIddEELi0EEC1ERS5_RKS5_RKS7_RS4_"
 "_ZN5Eigen8internal31generic_dense_assignment_kernelINS0_9evaluatorINS_5ArrayIdLin1ELin1ELi0ELin1ELin1EEEEENS2_INS3_IdLin1ELi1ELi0ELin1ELi1EEEEENS0_9assign_opIddEELi0EE11assignCoeffEx"
 "_ZN5Eigen8internal31generic_dense_assignment_kernelINS0_9evaluatorINS_5ArrayIdLin1ELin1ELi0ELin1ELin1EEEEENS2_INS3_IdLin1ELi1ELi0ELin1ELi1EEEEENS0_9assign_opIddEELi0EE12assignPacketILi16ELi16EU8__vectordEEvx"
 "_ZN5Eigen8internal31generic_dense_assignment_kernelINS0_9evaluatorINS_5ArrayIdLin1ELin1ELi0ELin1ELin1EEEEENS2_INS3_IdLin1ELi1ELi0ELin1ELi1EEEEENS0_9assign_opIddEELi0EEC1ERS5_RKS7_RKS9_RS4_"
 "_ZN5Eigen8internal31generic_dense_assignment_kernelINS0_9evaluatorINS_5ArrayIiLin1ELi1ELi0ELin1ELi1EEEEENS2_INS_12CwiseUnaryOpINS0_14scalar_cast_opIbiEEKNS3_IbLin1ELi1ELi0ELin1ELi1EEEEEEENS0_9assign_opIiiEELi0EE11assignCoeffEx"
 "_ZN5Eigen8internal31generic_dense_assignment_kernelINS0_9evaluatorINS_5ArrayIiLin1ELi1ELi0ELin1ELi1EEEEENS2_INS_12CwiseUnaryOpINS0_14scalar_cast_opIbiEEKNS3_IbLin1ELi1ELi0ELin1ELi1EEEEEEENS0_9assign_opIiiEELi0EEC1ERS5_RKSC_RKSE_RS4_"
 "_ZN5Eigen8internal31generic_dense_assignment_kernelINS0_9evaluatorINS_5ArrayIiLin1ELi1ELi0ELin1ELi1EEEEENS2_INS_12CwiseUnaryOpINS0_14scalar_cast_opIdiEEKNS_3MapINS_6MatrixIdLin1ELi1ELi0ELin1ELi1EEELi0ENS_6StrideILi0ELi0EEEEEEEEENS0_9assign_opIiiEELi0EE11assignCoeffEx"
 "_ZN5Eigen8internal31generic_dense_assignment_kernelINS0_9evaluatorINS_5ArrayIiLin1ELi1ELi0ELin1ELi1EEEEENS2_INS_12CwiseUnaryOpINS0_14scalar_cast_opIdiEEKNS_3MapINS_6MatrixIdLin1ELi1ELi0ELin1ELi1EEELi0ENS_6StrideILi0ELi0EEEEEEEEENS0_9assign_opIiiEELi0EEC1ERS5_RKSH_RKSJ_RS4_"
 "_ZN5Eigen8internal31generic_dense_assignment_kernelINS0_9evaluatorINS_5ArrayIiLin1ELi1ELi0ELin1ELi1EEEEES5_NS0_9assign_opIiiEELi0EE11assignCoeffEx"
 "_ZN5Eigen8internal31generic_dense_assignment_kernelINS0_9evaluatorINS_5ArrayIiLin1ELi1ELi0ELin1ELi1EEEEES5_NS0_9assign_opIiiEELi0EE12assignPacketILi16ELi16EU8__vectorxEEvx"
 "_ZN5Eigen8internal31generic_dense_assignment_kernelINS0_9evaluatorINS_5ArrayIiLin1ELi1ELi0ELin1ELi1EEEEES5_NS0_9assign_opIiiEELi0EEC1ERS5_RKS5_RKS7_RS4_"
 "_ZN5Eigen8internal31generic_dense_assignment_kernelINS0_9evaluatorINS_5ArrayIN5CppAD2ADIdEELin1ELi1ELi0ELin1ELi1EEEEENS2_INS_12CwiseUnaryOpINS0_14scalar_cast_opIdS6_EEKNS_3MapINS_6MatrixIdLin1ELi1ELi0ELin1ELi1EEELi0ENS_6StrideILi0ELi0EEEEEEEEENS0_9assign_opIS6_S6_EELi0EE11assignCoeffEx"
 "_ZN5Eigen8internal31generic_dense_assignment_kernelINS0_9evaluatorINS_5ArrayIN5CppAD2ADIdEELin1ELi1ELi0ELin1ELi1EEEEENS2_INS_12CwiseUnaryOpINS0_14scalar_cast_opIdS6_EEKNS_3MapINS_6MatrixIdLin1ELi1ELi0ELin1ELi1EEELi0ENS_6StrideILi0ELi0EEEEEEEEENS0_9assign_opIS6_S6_EELi0EEC1ERS8_RKSK_RKSM_RS7_"
 "_ZN5Eigen8internal31generic_dense_assignment_kernelINS0_9evaluatorINS_5ArrayIN5CppAD2ADIdEELin1ELin1ELi0ELin1ELin1EEEEENS2_INS3_IS6_Lin1ELi1ELi0ELin1ELi1EEEEENS0_9assign_opIS6_S6_EELi0EE11assignCoeffEx"
 "_ZN5Eigen8internal31generic_dense_assignment_kernelINS0_9evaluatorINS_5ArrayIN5CppAD2ADIdEELin1ELin1ELi0ELin1ELin1EEEEENS2_INS3_IS6_Lin1ELi1ELi0ELin1ELi1EEEEENS0_9assign_opIS6_S6_EELi0EEC1ERS8_RKSA_RKSC_RS7_"
 "_ZN5Eigen8internal31generic_dense_assignment_kernelINS0_9evaluatorINS_5ArrayIN5CppAD2ADINS5_IdEEEELin1ELi1ELi0ELin1ELi1EEEEENS2_INS_12CwiseUnaryOpINS0_14scalar_cast_opIdS7_EEKNS_3MapINS_6MatrixIdLin1ELi1ELi0ELin1ELi1EEELi0ENS_6StrideILi0ELi0EEEEEEEEENS0_9assign_opIS7_S7_EELi0EE11assignCoeffEx"
 "_ZN5Eigen8internal31generic_dense_assignment_kernelINS0_9evaluatorINS_5ArrayIN5CppAD2ADINS5_IdEEEELin1ELi1ELi0ELin1ELi1EEEEENS2_INS_12CwiseUnaryOpINS0_14scalar_cast_opIdS7_EEKNS_3MapINS_6MatrixIdLin1ELi1ELi0ELin1ELi1EEELi0ENS_6StrideILi0ELi0EEEEEEEEENS0_9assign_opIS7_S7_EELi0EEC1ERS9_RKSL_RKSN_RS8_"
 "_ZN5Eigen8internal31generic_dense_assignment_kernelINS0_9evaluatorINS_5ArrayIN5CppAD2ADINS5_IdEEEELin1ELin1ELi0ELin1ELin1EEEEENS2_INS3_IS7_Lin1ELi1ELi0ELin1ELi1EEEEENS0_9assign_opIS7_S7_EELi0EE11assignCoeffEx"
 "_ZN5Eigen8internal31generic_dense_assignment_kernelINS0_9evaluatorINS_5ArrayIN5CppAD2ADINS5_IdEEEELin1ELin1ELi0ELin1ELin1EEEEENS2_INS3_IS7_Lin1ELi1ELi0ELin1ELi1EEEEENS0_9assign_opIS7_S7_EELi0EEC1ERS9_RKSB_RKSD_RS8_"
 "_ZN5Eigen8internal31generic_dense_assignment_kernelINS0_9evaluatorINS_5ArrayIN5CppAD2ADINS5_INS5_IdEEEEEELin1ELi1ELi0ELin1ELi1EEEEENS2_INS_12CwiseUnaryOpINS0_14scalar_cast_opIdS8_EEKNS_3MapINS_6MatrixIdLin1ELi1ELi0ELin1ELi1EEELi0ENS_6StrideILi0ELi0EEEEEEEEENS0_9assign_opIS8_S8_EELi0EE11assignCoeffEx"
 "_ZN5Eigen8internal31generic_dense_assignment_kernelINS0_9evaluatorINS_5ArrayIN5CppAD2ADINS5_INS5_IdEEEEEELin1ELi1ELi0ELin1ELi1EEEEENS2_INS_12CwiseUnaryOpINS0_14scalar_cast_opIdS8_EEKNS_3MapINS_6MatrixIdLin1ELi1ELi0ELin1ELi1EEELi0ENS_6StrideILi0ELi0EEEEEEEEENS0_9assign_opIS8_S8_EELi0EEC1ERSA_RKSM_RKSO_RS9_"
 "_ZN5Eigen8internal31generic_dense_assignment_kernelINS0_9evaluatorINS_5ArrayIN5CppAD2ADINS5_INS5_IdEEEEEELin1ELin1ELi0ELin1ELin1EEEEENS2_INS3_IS8_Lin1ELi1ELi0ELin1ELi1EEEEENS0_9assign_opIS8_S8_EELi0EE11assignCoeffEx"
 "_ZN5Eigen8internal31generic_dense_assignment_kernelINS0_9evaluatorINS_5ArrayIN5CppAD2ADINS5_INS5_IdEEEEEELin1ELin1ELi0ELin1ELin1EEEEENS2_INS3_IS8_Lin1ELi1ELi0ELin1ELi1EEEEENS0_9assign_opIS8_S8_EELi0EEC1ERSA_RKSC_RKSE_RS9_"
 "_ZN5Eigen8internal31generic_dense_assignment_kernelINS0_9evaluatorINS_5ArrayIN8tmbutils6matrixIdEELin1ELi1ELi0ELin1ELi1EEEEENS2_INS_5BlockIS7_Lin1ELi1ELb0EEEEENS0_9assign_opIS6_S6_EELi0EE11assignCoeffEx"
 "_ZN5Eigen8internal31generic_dense_assignment_kernelINS0_9evaluatorINS_5ArrayIN8tmbutils6matrixIdEELin1ELi1ELi0ELin1ELi1EEEEENS2_INS_5BlockIS7_Lin1ELi1ELb0EEEEENS0_9assign_opIS6_S6_EELi0EEC1ERS8_RKSB_RKSD_RS7_"
 "_ZN5Eigen8internal31generic_dense_assignment_kernelINS0_9evaluatorINS_5BlockINS_5ArrayIdLin1ELi1ELi0ELin1ELi1EEELin1ELi1ELb0EEEEENS2_INS4_IdLin1ELin1ELi0ELin1ELin1EEEEENS0_9assign_opIddEELi0EE11assignCoeffEx"
 "_ZN5Eigen8internal31generic_dense_assignment_kernelINS0_9evaluatorINS_5BlockINS_5ArrayIdLin1ELi1ELi0ELin1ELi1EEELin1ELi1ELb0EEEEENS2_INS4_IdLin1ELin1ELi0ELin1ELin1EEEEENS0_9assign_opIddEELi0EE12assignPacketILi16ELi0EU8__vectordEEvx"
 "_ZN5Eigen8internal31generic_dense_assignment_kernelINS0_9evaluatorINS_5BlockINS_5ArrayIdLin1ELi1ELi0ELin1ELi1EEELin1ELi1ELb0EEEEENS2_INS4_IdLin1ELin1ELi0ELin1ELin1EEEEENS0_9assign_opIddEELi0EEC1ERS7_RKS9_RKSB_RS6_"
 "_ZN5Eigen8internal31generic_dense_assignment_kernelINS0_9evaluatorINS_5BlockINS_5ArrayIN5CppAD2ADIdEELin1ELi1ELi0ELin1ELi1EEELin1ELi1ELb0EEEEENS2_INS4_IS7_Lin1ELin1ELi0ELin1ELin1EEEEENS0_9assign_opIS7_S7_EELi0EE11assignCoeffEx"
 "_ZN5Eigen8internal31generic_dense_assignment_kernelINS0_9evaluatorINS_5BlockINS_5ArrayIN5CppAD2ADIdEELin1ELi1ELi0ELin1ELi1EEELin1ELi1ELb0EEEEENS2_INS4_IS7_Lin1ELin1ELi0ELin1ELin1EEEEENS0_9assign_opIS7_S7_EELi0EEC1ERSA_RKSC_RKSE_RS9_"
 "_ZN5Eigen8internal31generic_dense_assignment_kernelINS0_9evaluatorINS_5BlockINS_5ArrayIN5CppAD2ADINS6_IdEEEELin1ELi1ELi0ELin1ELi1EEELin1ELi1ELb0EEEEENS2_INS4_IS8_Lin1ELin1ELi0ELin1ELin1EEEEENS0_9assign_opIS8_S8_EELi0EE11assignCoeffEx"
 "_ZN5Eigen8internal31generic_dense_assignment_kernelINS0_9evaluatorINS_5BlockINS_5ArrayIN5CppAD2ADINS6_IdEEEELin1ELi1ELi0ELin1ELi1EEELin1ELi1ELb0EEEEENS2_INS4_IS8_Lin1ELin1ELi0ELin1ELin1EEEEENS0_9assign_opIS8_S8_EELi0EEC1ERSB_RKSD_RKSF_RSA_"
 "_ZN5Eigen8internal31generic_dense_assignment_kernelINS0_9evaluatorINS_5BlockINS_5ArrayIN5CppAD2ADINS6_INS6_IdEEEEEELin1ELi1ELi0ELin1ELi1EEELin1ELi1ELb0EEEEENS2_INS4_IS9_Lin1ELin1ELi0ELin1ELin1EEEEENS0_9assign_opIS9_S9_EELi0EE11assignCoeffEx"
 "_ZN5Eigen8internal31generic_dense_assignment_kernelINS0_9evaluatorINS_5BlockINS_5ArrayIN5CppAD2ADINS6_INS6_IdEEEEEELin1ELi1ELi0ELin1ELi1EEELin1ELi1ELb0EEEEENS2_INS4_IS9_Lin1ELin1ELi0ELin1ELin1EEEEENS0_9assign_opIS9_S9_EELi0EEC1ERSC_RKSE_RKSG_RSB_"
 "_ZN5Eigen8internal31generic_dense_assignment_kernelINS0_9evaluatorINS_5BlockINS_6MatrixIdLin1ELin1ELi0ELin1ELin1EEELi1ELin1ELb0EEEEENS2_INS3_IKNS_14CwiseNullaryOpINS0_18scalar_identity_opIdEES5_EELi1ELin1ELb0EEEEENS0_9assign_opIddEELi0EE11assignCoeffEx"
 "_ZN5Eigen8internal31generic_dense_assignment_kernelINS0_9evaluatorINS_5BlockINS_6MatrixIdLin1ELin1ELi0ELin1ELin1EEELi1ELin1ELb0EEEEENS2_INS3_IKNS_14CwiseNullaryOpINS0_18scalar_identity_opIdEES5_EELi1ELin1ELb0EEEEENS0_9assign_opIddEELi0EEC1ERS7_RKSE_RKSG_RS6_"
 "_ZN5Eigen8internal31generic_dense_assignment_kernelINS0_9evaluatorINS_5BlockINS_6MatrixIdLin1ELin1ELi0ELin1ELin1EEELi1ELin1ELb0EEEEES7_NS0_14swap_assign_opIdEELi0EEC1ERS7_RKS7_RKS9_RS6_"
 "_ZN5Eigen8internal31generic_dense_assignment_kernelINS0_9evaluatorINS_5BlockINS_6MatrixIdLin1ELin1ELi0ELin1ELin1EEELi1ELin1ELb0EEEEES7_NS0_14swap_assign_opIdEELi1EE11assignCoeffEx"
 "_ZN5Eigen8internal31generic_dense_assignment_kernelINS0_9evaluatorINS_5BlockINS_6MatrixIdLin1ELin1ELi0ELin1ELin1EEELi1ELin1ELb0EEEEES7_NS0_14swap_assign_opIdEELi1EEC2ERS7_RKS7_RKS9_RS6_"
 "_ZN5Eigen8internal31generic_dense_assignment_kernelINS0_9evaluatorINS_5BlockINS3_INS_3MapINS_6MatrixIdLin1ELin1ELi0ELin1ELin1EEELi0ENS_6StrideILi0ELi0EEEEELin1ELin1ELb0EEELi1ELin1ELb0EEEEESC_NS0_14swap_assign_opIdEELi0EEC1ERSC_RKSC_RKSE_RSB_"
 "_ZN5Eigen8internal31generic_dense_assignment_kernelINS0_9evaluatorINS_5BlockINS3_INS_3MapINS_6MatrixIdLin1ELin1ELi0ELin1ELin1EEELi0ENS_6StrideILi0ELi0EEEEELin1ELin1ELb0EEELi1ELin1ELb0EEEEESC_NS0_14swap_assign_opIdEELi1EE11assignCoeffEx"
 "_ZN5Eigen8internal31generic_dense_assignment_kernelINS0_9evaluatorINS_5BlockINS3_INS_3MapINS_6MatrixIdLin1ELin1ELi0ELin1ELin1EEELi0ENS_6StrideILi0ELi0EEEEELin1ELin1ELb0EEELi1ELin1ELb0EEEEESC_NS0_14swap_assign_opIdEELi1EEC2ERSC_RKSC_RKSE_RSB_"
 "_ZN5Eigen8internal31generic_dense_assignment_kernelINS0_9evaluatorINS_5BlockINS3_INS_3MapINS_6MatrixIdLin1ELin1ELi0ELin1ELin1EEELi0ENS_6StrideILi0ELi0EEEEELin1ELin1ELb0EEELin1ELin1ELb0EEEEENS2_INS_7ProductISB_SB_Li1EEEEENS0_13sub_assign_opIddEELi0EE11assignCoeffExx"
 "_ZN5Eigen8internal31generic_dense_assignment_kernelINS0_9evaluatorINS_5BlockINS3_INS_3MapINS_6MatrixIdLin1ELin1ELi0ELin1ELin1EEELi0ENS_6StrideILi0ELi0EEEEELin1ELin1ELb0EEELin1ELin1ELb0EEEEENS2_INS_7ProductISB_SB_Li1EEEEENS0_13sub_assign_opIddEELi0EE12assignPacketILi16ELi0EU8__vectordEEvxx"
 "_ZN5Eigen8internal31generic_dense_assignment_kernelINS0_9evaluatorINS_5BlockINS3_INS_3MapINS_6MatrixIdLin1ELin1ELi0ELin1ELin1EEELi0ENS_6StrideILi0ELi0EEEEELin1ELin1ELb0EEELin1ELin1ELb0EEEEENS2_INS_7ProductISB_SB_Li1EEEEENS0_13sub_assign_opIddEELi0EE20colIndexByOuterInnerExx"
 "_ZN5Eigen8internal31generic_dense_assignment_kernelINS0_9evaluatorINS_5BlockINS3_INS_3MapINS_6MatrixIdLin1ELin1ELi0ELin1ELin1EEELi0ENS_6StrideILi0ELi0EEEEELin1ELin1ELb0EEELin1ELin1ELb0EEEEENS2_INS_7ProductISB_SB_Li1EEEEENS0_13sub_assign_opIddEELi0EE20rowIndexByOuterInnerExx"
 "_ZN5Eigen8internal31generic_dense_assignment_kernelINS0_9evaluatorINS_5BlockINS3_INS_3MapINS_6MatrixIdLin1ELin1ELi0ELin1ELin1EEELi0ENS_6StrideILi0ELi0EEEEELin1ELin1ELb0EEELin1ELin1ELb0EEEEENS2_INS_7ProductISB_SB_Li1EEEEENS0_13sub_assign_opIddEELi0EE23assignCoeffByOuterInnerExx"
 "_ZN5Eigen8internal31generic_dense_assignment_kernelINS0_9evaluatorINS_5BlockINS3_INS_3MapINS_6MatrixIdLin1ELin1ELi0ELin1ELin1EEELi0ENS_6StrideILi0ELi0EEEEELin1ELin1ELb0EEELin1ELin1ELb0EEEEENS2_INS_7ProductISB_SB_Li1EEEEENS0_13sub_assign_opIddEELi0EE24assignPacketByOuterInnerILi16ELi0EU8__vectordEEvxx"
 "_ZN5Eigen8internal31generic_dense_assignment_kernelINS0_9evaluatorINS_5BlockINS3_INS_3MapINS_6MatrixIdLin1ELin1ELi0ELin1ELin1EEELi0ENS_6StrideILi0ELi0EEEEELin1ELin1ELb0EEELin1ELin1ELb0EEEEENS2_INS_7ProductISB_SB_Li1EEEEENS0_13sub_assign_opIddEELi0EEC1ERSC_RKSF_RKSH_RSB_"
 "_ZN5Eigen8internal31generic_dense_assignment_kernelINS0_9evaluatorINS_5BlockINS3_INS3_INS_3MapINS_6MatrixIdLin1ELin1ELi0ELin1ELin1EEELi0ENS_6StrideILi0ELi0EEEEELin1ELin1ELb0EEELin1ELi1ELb1EEELin1ELi1ELb0EEEEENS2_INS_14CwiseNullaryOpINS0_18scalar_constant_opIdEENS5_IdLin1ELi1ELi0ELin1ELi1EEEEEEENS0_13div_assign_opIddEELi0EE11assignCoeffEx"
 "_ZN5Eigen8internal31generic_dense_assignment_kernelINS0_9evaluatorINS_5BlockINS3_INS3_INS_3MapINS_6MatrixIdLin1ELin1ELi0ELin1ELin1EEELi0ENS_6StrideILi0ELi0EEEEELin1ELin1ELb0EEELin1ELi1ELb1EEELin1ELi1ELb0EEEEENS2_INS_14CwiseNullaryOpINS0_18scalar_constant_opIdEENS5_IdLin1ELi1ELi0ELin1ELi1EEEEEEENS0_13div_assign_opIddEELi0EE12assignPacketILi16ELi0EU8__vectordEEvx"
 "_ZN5Eigen8internal31generic_dense_assignment_kernelINS0_9evaluatorINS_5BlockINS3_INS3_INS_3MapINS_6MatrixIdLin1ELin1ELi0ELin1ELin1EEELi0ENS_6StrideILi0ELi0EEEEELin1ELin1ELb0EEELin1ELi1ELb1EEELin1ELi1ELb0EEEEENS2_INS_14CwiseNullaryOpINS0_18scalar_constant_opIdEENS5_IdLin1ELi1ELi0ELin1ELi1EEEEEEENS0_13div_assign_opIddEELi0EEC1ERSD_RKSJ_RKSL_RSC_"
 "_ZN5Eigen8internal31generic_dense_assignment_kernelINS0_9evaluatorINS_5BlockINS3_INS3_INS_3MapINS_6MatrixIdLin1ELin1ELi0ELin1ELin1EEELi0ENS_6StrideILi0ELi0EEEEELin1ELin1ELb0EEELin1ELin1ELb0EEELi1ELin1ELb0EEEEESD_NS0_14swap_assign_opIdEELi0EEC1ERSD_RKSD_RKSF_RSC_"
 "_ZN5Eigen8internal31generic_dense_assignment_kernelINS0_9evaluatorINS_5BlockINS3_INS3_INS_3MapINS_6MatrixIdLin1ELin1ELi0ELin1ELin1EEELi0ENS_6StrideILi0ELi0EEEEELin1ELin1ELb0EEELin1ELin1ELb0EEELi1ELin1ELb0EEEEESD_NS0_14swap_assign_opIdEELi1EE11assignCoeffEx"
 "_ZN5Eigen8internal31generic_dense_assignment_kernelINS0_9evaluatorINS_5BlockINS3_INS3_INS_3MapINS_6MatrixIdLin1ELin1ELi0ELin1ELin1EEELi0ENS_6StrideILi0ELi0EEEEELin1ELin1ELb0EEELin1ELin1ELb0EEELi1ELin1ELb0EEEEESD_NS0_14swap_assign_opIdEELi1EEC2ERSD_RKSD_RKSF_RSC_"
 "_ZN5Eigen8internal31generic_dense_assignment_kernelINS0_9evaluatorINS_5BlockINS3_INS3_INS_3MapINS_6MatrixIdLin1ELin1ELi0ELin1ELin1EEELi0ENS_6StrideILi0ELi0EEEEELin1ELin1ELb0EEELin1ELin1ELb0EEELin1ELi1ELb1EEEEENS2_INS_13CwiseBinaryOpINS0_17scalar_product_opIddEEKNS_14CwiseNullaryOpINS0_18scalar_constant_opIdEEKNS5_IdLin1ELi1ELi0ELin1ELi1EEEEEKNS3_INS3_ISA_Lin1ELi1ELb1EEELin1ELi1ELb0EEEEEEENS0_13sub_assign_opIddEELi0EE11assignCoeffEx"
 "_ZN5Eigen8internal31generic_dense_assignment_kernelINS0_9evaluatorINS_5BlockINS3_INS3_INS_3MapINS_6MatrixIdLin1ELin1ELi0ELin1ELin1EEELi0ENS_6StrideILi0ELi0EEEEELin1ELin1ELb0EEELin1ELin1ELb0EEELin1ELi1ELb1EEEEENS2_INS_13CwiseBinaryOpINS0_17scalar_product_opIddEEKNS_14CwiseNullaryOpINS0_18scalar_constant_opIdEEKNS5_IdLin1ELi1ELi0ELin1ELi1EEEEEKNS3_INS3_ISA_Lin1ELi1ELb1EEELin1ELi1ELb0EEEEEEENS0_13sub_assign_opIddEELi0EE12assignPacketILi16ELi0EU8__vectordEEvx"
 "_ZN5Eigen8internal31generic_dense_assignment_kernelINS0_9evaluatorINS_5BlockINS3_INS3_INS_3MapINS_6MatrixIdLin1ELin1ELi0ELin1ELin1EEELi0ENS_6StrideILi0ELi0EEEEELin1ELin1ELb0EEELin1ELin1ELb0EEELin1ELi1ELb1EEEEENS2_INS_13CwiseBinaryOpINS0_17scalar_product_opIddEEKNS_14CwiseNullaryOpINS0_18scalar_constant_opIdEEKNS5_IdLin1ELi1ELi0ELin1ELi1EEEEEKNS3_INS3_ISA_Lin1ELi1ELb1EEELin1ELi1ELb0EEEEEEENS0_13sub_assign_opIddEELi0EEC1ERSD_RKSS_RKSU_RSC_"
 "_ZN5Eigen8internal31generic_dense_assignment_kernelINS0_9evaluatorINS_6MatrixIbLin1ELi1ELi0ELin1ELi1EEEEENS2_INS_14CwiseNullaryOpINS0_18scalar_constant_opIbEES4_EEEENS0_9assign_opIbbEELi0EE11assignCoeffEx"
 "_ZN5Eigen8internal31generic_dense_assignment_kernelINS0_9evaluatorINS_6MatrixIbLin1ELi1ELi0ELin1ELi1EEEEENS2_INS_14CwiseNullaryOpINS0_18scalar_constant_opIbEES4_EEEENS0_9assign_opIbbEELi0EEC1ERS5_RKSA_RKSC_RS4_"
 "_ZN5Eigen8internal31generic_dense_assignment_kernelINS0_9evaluatorINS_6MatrixIdLin1ELi1ELi0ELin1ELi1EEEEENS2_INS_13CwiseBinaryOpINS0_13scalar_sum_opIddEEKS4_S9_EEEENS0_9assign_opIddEELi0EE11assignCoeffEx"
 "_ZN5Eigen8internal31generic_dense_assignment_kernelINS0_9evaluatorINS_6MatrixIdLin1ELi1ELi0ELin1ELi1EEEEENS2_INS_13CwiseBinaryOpINS0_13scalar_sum_opIddEEKS4_S9_EEEENS0_9assign_opIddEELi0EE12assignPacketILi16ELi16EU8__vectordEEvx"
 "_ZN5Eigen8internal31generic_dense_assignment_kernelINS0_9evaluatorINS_6MatrixIdLin1ELi1ELi0ELin1ELi1EEEEENS2_INS_13CwiseBinaryOpINS0_13scalar_sum_opIddEEKS4_S9_EEEENS0_9assign_opIddEELi0EEC1ERS5_RKSB_RKSD_RS4_"
 "_ZN5Eigen8internal31generic_dense_assignment_kernelINS0_9evaluatorINS_6MatrixIdLin1ELin1ELi0ELin1ELin1EEEEENS2_INS_12CwiseUnaryOpINS0_13scalar_abs_opIdEEKNS_12ArrayWrapperIS4_EEEEEENS0_9assign_opIddEELi0EE11assignCoeffEx"
 "_ZN5Eigen8internal31generic_dense_assignment_kernelINS0_9evaluatorINS_6MatrixIdLin1ELin1ELi0ELin1ELin1EEEEENS2_INS_12CwiseUnaryOpINS0_13scalar_abs_opIdEEKNS_12ArrayWrapperIS4_EEEEEENS0_9assign_opIddEELi0EE12assignPacketILi16ELi16EU8__vectordEEvx"
 "_ZN5Eigen8internal31generic_dense_assignment_kernelINS0_9evaluatorINS_6MatrixIdLin1ELin1ELi0ELin1ELin1EEEEENS2_INS_12CwiseUnaryOpINS0_13scalar_abs_opIdEEKNS_12ArrayWrapperIS4_EEEEEENS0_9assign_opIddEELi0EEC1ERS5_RKSD_RKSF_RS4_"
 "_ZN5Eigen8internal31generic_dense_assignment_kernelINS0_9evaluatorINS_6MatrixIdLin1ELin1ELi0ELin1ELin1EEEEENS2_INS_13CwiseBinaryOpINS0_13scalar_sum_opIddEEKS4_S9_EEEENS0_9assign_opIddEELi0EE11assignCoeffEx"
 "_ZN5Eigen8internal31generic_dense_assignment_kernelINS0_9evaluatorINS_6MatrixIdLin1ELin1ELi0ELin1ELin1EEEEENS2_INS_13CwiseBinaryOpINS0_13scalar_sum_opIddEEKS4_S9_EEEENS0_9assign_opIddEELi0EE12assignPacketILi16ELi16EU8__vectordEEvx"
 "_ZN5Eigen8internal31generic_dense_assignment_kernelINS0_9evaluatorINS_6MatrixIdLin1ELin1ELi0ELin1ELin1EEEEENS2_INS_13CwiseBinaryOpINS0_13scalar_sum_opIddEEKS4_S9_EEEENS0_9assign_opIddEELi0EEC1ERS5_RKSB_RKSD_RS4_"
 "_ZN5Eigen8internal31generic_dense_assignment_kernelINS0_9evaluatorINS_6MatrixIdLin1ELin1ELi0ELin1ELin1EEEEENS2_INS_13CwiseBinaryOpINS0_17scalar_product_opIddEEKNS_14CwiseNullaryOpINS0_18scalar_constant_opIdEEKS4_EESC_EEEENS0_9assign_opIddEELi0EE11assignCoeffEx"
 "_ZN5Eigen8internal31generic_dense_assignment_kernelINS0_9evaluatorINS_6MatrixIdLin1ELin1ELi0ELin1ELin1EEEEENS2_INS_13CwiseBinaryOpINS0_17scalar_product_opIddEEKNS_14CwiseNullaryOpINS0_18scalar_constant_opIdEEKS4_EESC_EEEENS0_9assign_opIddEELi0EE12assignPacketILi16ELi16EU8__vectordEEvx"
 "_ZN5Eigen8internal31generic_dense_assignment_kernelINS0_9evaluatorINS_6MatrixIdLin1ELin1ELi0ELin1ELin1EEEEENS2_INS_13CwiseBinaryOpINS0_17scalar_product_opIddEEKNS_14CwiseNullaryOpINS0_18scalar_constant_opIdEEKS4_EESC_EEEENS0_9assign_opIddEELi0EEC1ERS5_RKSG_RKSI_RS4_"
 "_ZN5Eigen8internal31generic_dense_assignment_kernelINS0_9evaluatorINS_6MatrixIdLin1ELin1ELi0ELin1ELin1EEEEENS2_INS_13CwiseBinaryOpINS0_17scalar_product_opIddEEKS4_KNS_14CwiseNullaryOpINS0_18scalar_constant_opIdEES9_EEEEEENS0_9assign_opIddEELi0EE11assignCoeffEx"
 "_ZN5Eigen8internal31generic_dense_assignment_kernelINS0_9evaluatorINS_6MatrixIdLin1ELin1ELi0ELin1ELin1EEEEENS2_INS_13CwiseBinaryOpINS0_17scalar_product_opIddEEKS4_KNS_14CwiseNullaryOpINS0_18scalar_constant_opIdEES9_EEEEEENS0_9assign_opIddEELi0EE12assignPacketILi16ELi16EU8__vectordEEvx"
 "_ZN5Eigen8internal31generic_dense_assignment_kernelINS0_9evaluatorINS_6MatrixIdLin1ELin1ELi0ELin1ELin1EEEEENS2_INS_13CwiseBinaryOpINS0_17scalar_product_opIddEEKS4_KNS_14CwiseNullaryOpINS0_18scalar_constant_opIdEES9_EEEEEENS0_9assign_opIddEELi0EEC1ERS5_RKSG_RKSI_RS4_"
 "_ZN5Eigen8internal31generic_dense_assignment_kernelINS0_9evaluatorINS_6MatrixIdLin1ELin1ELi0ELin1ELin1EEEEENS2_INS_13MatrixWrapperIKNS_5ArrayIdLin1ELi1ELi0ELin1ELi1EEEEEEENS0_9assign_opIddEELi0EE11assignCoeffEx"
 "_ZN5Eigen8internal31generic_dense_assignment_kernelINS0_9evaluatorINS_6MatrixIdLin1ELin1ELi0ELin1ELin1EEEEENS2_INS_13MatrixWrapperIKNS_5ArrayIdLin1ELi1ELi0ELin1ELi1EEEEEEENS0_9assign_opIddEELi0EE12assignPacketILi16ELi16EU8__vectordEEvx"
 "_ZN5Eigen8internal31generic_dense_assignment_kernelINS0_9evaluatorINS_6MatrixIdLin1ELin1ELi0ELin1ELin1EEEEENS2_INS_13MatrixWrapperIKNS_5ArrayIdLin1ELi1ELi0ELin1ELi1EEEEEEENS0_9assign_opIddEELi0EEC1ERS5_RKSB_RKSD_RS4_"
 "_ZN5Eigen8internal31generic_dense_assignment_kernelINS0_9evaluatorINS_6MatrixIdLin1ELin1ELi0ELin1ELin1EEEEENS2_INS_14CwiseNullaryOpINS0_18scalar_constant_opIdEES4_EEEENS0_9assign_opIddEELi0EE11assignCoeffEx"
 "_ZN5Eigen8internal31generic_dense_assignment_kernelINS0_9evaluatorINS_6MatrixIdLin1ELin1ELi0ELin1ELin1EEEEENS2_INS_14CwiseNullaryOpINS0_18scalar_constant_opIdEES4_EEEENS0_9assign_opIddEELi0EE12assignPacketILi16ELi16EU8__vectordEEvx"
 "_ZN5Eigen8internal31generic_dense_assignment_kernelINS0_9evaluatorINS_6MatrixIdLin1ELin1ELi0ELin1ELin1EEEEENS2_INS_14CwiseNullaryOpINS0_18scalar_constant_opIdEES4_EEEENS0_9assign_opIddEELi0EEC1ERS5_RKSA_RKSC_RS4_"
 "_ZN5Eigen8internal31generic_dense_assignment_kernelINS0_9evaluatorINS_6MatrixIdLin1ELin1ELi0ELin1ELin1EEEEENS2_INS_14CwiseNullaryOpINS0_18scalar_identity_opIdEES4_EEEENS0_9assign_opIddEELi0EE11assignCoeffExx"
 "_ZN5Eigen8internal31generic_dense_assignment_kernelINS0_9evaluatorINS_6MatrixIdLin1ELin1ELi0ELin1ELin1EEEEENS2_INS_14CwiseNullaryOpINS0_18scalar_identity_opIdEES4_EEEENS0_9assign_opIddEELi0EE20colIndexByOuterInnerExx"
 "_ZN5Eigen8internal31generic_dense_assignment_kernelINS0_9evaluatorINS_6MatrixIdLin1ELin1ELi0ELin1ELin1EEEEENS2_INS_14CwiseNullaryOpINS0_18scalar_identity_opIdEES4_EEEENS0_9assign_opIddEELi0EE20rowIndexByOuterInnerExx"
 "_ZN5Eigen8internal31generic_dense_assignment_kernelINS0_9evaluatorINS_6MatrixIdLin1ELin1ELi0ELin1ELin1EEEEENS2_INS_14CwiseNullaryOpINS0_18scalar_identity_opIdEES4_EEEENS0_9assign_opIddEELi0EE23assignCoeffByOuterInnerExx"
 "_ZN5Eigen8internal31generic_dense_assignment_kernelINS0_9evaluatorINS_6MatrixIdLin1ELin1ELi0ELin1ELin1EEEEENS2_INS_14CwiseNullaryOpINS0_18scalar_identity_opIdEES4_EEEENS0_9assign_opIddEELi0EEC1ERS5_RKSA_RKSC_RS4_"
 "_ZN5Eigen8internal31generic_dense_assignment_kernelINS0_9evaluatorINS_6MatrixIdLin1ELin1ELi0ELin1ELin1EEEEENS2_INS_7ProductIS4_S4_Li1EEEEENS0_9assign_opIddEELi0EE11assignCoeffExx"
 "_ZN5Eigen8internal31generic_dense_assignment_kernelINS0_9evaluatorINS_6MatrixIdLin1ELin1ELi0ELin1ELin1EEEEENS2_INS_7ProductIS4_S4_Li1EEEEENS0_9assign_opIddEELi0EE12assignPacketILi16ELi0EU8__vectordEEvxx"
 "_ZN5Eigen8internal31generic_dense_assignment_kernelINS0_9evaluatorINS_6MatrixIdLin1ELin1ELi0ELin1ELin1EEEEENS2_INS_7ProductIS4_S4_Li1EEEEENS0_9assign_opIddEELi0EE20colIndexByOuterInnerExx"
 "_ZN5Eigen8internal31generic_dense_assignment_kernelINS0_9evaluatorINS_6MatrixIdLin1ELin1ELi0ELin1ELin1EEEEENS2_INS_7ProductIS4_S4_Li1EEEEENS0_9assign_opIddEELi0EE20rowIndexByOuterInnerExx"
 "_ZN5Eigen8internal31generic_dense_assignment_kernelINS0_9evaluatorINS_6MatrixIdLin1ELin1ELi0ELin1ELin1EEEEENS2_INS_7ProductIS4_S4_Li1EEEEENS0_9assign_opIddEELi0EE23assignCoeffByOuterInnerExx"
 "_ZN5Eigen8internal31generic_dense_assignment_kernelINS0_9evaluatorINS_6MatrixIdLin1ELin1ELi0ELin1ELin1EEEEENS2_INS_7ProductIS4_S4_Li1EEEEENS0_9assign_opIddEELi0EE24assignPacketByOuterInnerILi16ELi0EU8__vectordEEvxx"
 "_ZN5Eigen8internal31generic_dense_assignment_kernelINS0_9evaluatorINS_6MatrixIdLin1ELin1ELi0ELin1ELin1EEEEENS2_INS_7ProductIS4_S4_Li1EEEEENS0_9assign_opIddEELi0EEC1ERS5_RKS8_RKSA_RS4_"
 "_ZN5Eigen8internal31generic_dense_assignment_kernelINS0_9evaluatorINS_6MatrixIdLin1ELin1ELi0ELin1ELin1EEEEES5_NS0_13add_assign_opIddEELi0EE11assignCoeffEx"
 "_ZN5Eigen8internal31generic_dense_assignment_kernelINS0_9evaluatorINS_6MatrixIdLin1ELin1ELi0ELin1ELin1EEEEES5_NS0_13add_assign_opIddEELi0EE12assignPacketILi16ELi16EU8__vectordEEvx"
 "_ZN5Eigen8internal31generic_dense_assignment_kernelINS0_9evaluatorINS_6MatrixIdLin1ELin1ELi0ELin1ELin1EEEEES5_NS0_13add_assign_opIddEELi0EEC1ERS5_RKS5_RKS7_RS4_"
 "_ZN5Eigen8internal31generic_dense_assignment_kernelINS0_9evaluatorINS_6MatrixIdLin1ELin1ELi0ELin1ELin1EEEEES5_NS0_13sub_assign_opIddEELi0EE11assignCoeffEx"
 "_ZN5Eigen8internal31generic_dense_assignment_kernelINS0_9evaluatorINS_6MatrixIdLin1ELin1ELi0ELin1ELin1EEEEES5_NS0_13sub_assign_opIddEELi0EE12assignPacketILi16ELi16EU8__vectordEEvx"
 "_ZN5Eigen8internal31generic_dense_assignment_kernelINS0_9evaluatorINS_6MatrixIdLin1ELin1ELi0ELin1ELin1EEEEES5_NS0_13sub_assign_opIddEELi0EEC1ERS5_RKS5_RKS7_RS4_"
 "_ZN5Eigen8internal31generic_dense_assignment_kernelINS0_9evaluatorINS_6MatrixIdLin1ELin1ELi0ELin1ELin1EEEEES5_NS0_9assign_opIddEELi0EE11assignCoeffEx"
 "_ZN5Eigen8internal31generic_dense_assignment_kernelINS0_9evaluatorINS_6MatrixIdLin1ELin1ELi0ELin1ELin1EEEEES5_NS0_9assign_opIddEELi0EE12assignPacketILi16ELi16EU8__vectordEEvx"
 "_ZN5Eigen8internal31generic_dense_assignment_kernelINS0_9evaluatorINS_6MatrixIdLin1ELin1ELi0ELin1ELin1EEEEES5_NS0_9assign_opIddEELi0EEC1ERS5_RKS5_RKS7_RS4_"
 "_ZN5Eigen8internal31generic_dense_assignment_kernelINS0_9evaluatorINS_6MatrixIiLin1ELin1ELi0ELin1ELin1EEEEENS2_INS_13MatrixWrapperIKNS_5ArrayIiLin1ELi1ELi0ELin1ELi1EEEEEEENS0_9assign_opIiiEELi0EE11assignCoeffEx"
 "_ZN5Eigen8internal31generic_dense_assignment_kernelINS0_9evaluatorINS_6MatrixIiLin1ELin1ELi0ELin1ELin1EEEEENS2_INS_13MatrixWrapperIKNS_5ArrayIiLin1ELi1ELi0ELin1ELi1EEEEEEENS0_9assign_opIiiEELi0EE12assignPacketILi16ELi16EU8__vectorxEEvx"
 "_ZN5Eigen8internal31generic_dense_assignment_kernelINS0_9evaluatorINS_6MatrixIiLin1ELin1ELi0ELin1ELin1EEEEENS2_INS_13MatrixWrapperIKNS_5ArrayIiLin1ELi1ELi0ELin1ELi1EEEEEEENS0_9assign_opIiiEELi0EEC1ERS5_RKSB_RKSD_RS4_"
 "_ZN5Eigen8internal31generic_dense_assignment_kernelINS0_9evaluatorINS_9TransposeINS_5BlockINS_6MatrixIdLin1ELin1ELi0ELin1ELin1EEELi1ELin1ELb0EEEEEEENS2_INS_5ArrayIdLin1ELi1ELi0ELin1ELi1EEEEENS0_9assign_opIddEELi0EE11assignCoeffEx"
 "_ZN5Eigen8internal31generic_dense_assignment_kernelINS0_9evaluatorINS_9TransposeINS_5BlockINS_6MatrixIdLin1ELin1ELi0ELin1ELin1EEELi1ELin1ELb0EEEEEEENS2_INS_5ArrayIdLin1ELi1ELi0ELin1ELi1EEEEENS0_9assign_opIddEELi0EEC1ERS9_RKSC_RKSE_RS8_"
 "_ZN5Eigen8internal31unaligned_dense_assignment_loopILb0EE3runINS0_31generic_dense_assignment_kernelINS0_9evaluatorINS_5ArrayIdLin1ELi1ELi0ELin1ELi1EEEEENS5_INS_13CwiseBinaryOpINS0_13scalar_sum_opIddEEKS7_SC_EEEENS0_9assign_opIddEELi0EEEEEvRT_xx"
 "_ZN5Eigen8internal31unaligned_dense_assignment_loopILb0EE3runINS0_31generic_dense_assignment_kernelINS0_9evaluatorINS_5ArrayIdLin1ELi1ELi0ELin1ELi1EEEEENS5_INS_14CwiseNullaryOpINS0_18scalar_constant_opIdEES7_EEEENS0_9assign_opIddEELi0EEEEEvRT_xx"
 "_ZN5Eigen8internal31unaligned_dense_assignment_loopILb0EE3runINS0_31generic_dense_assignment_kernelINS0_9evaluatorINS_5ArrayIdLin1ELi1ELi0ELin1ELi1EEEEENS5_INS_3MapINS_6MatrixIdLin1ELi1ELi0ELin1ELi1EEELi0ENS_6StrideILi0ELi0EEEEEEENS0_9assign_opIddEELi0EEEEEvRT_xx"
 "_ZN5Eigen8internal31unaligned_dense_assignment_loopILb0EE3runINS0_31generic_dense_assignment_kernelINS0_9evaluatorINS_5ArrayIdLin1ELi1ELi0ELin1ELi1EEEEES8_NS0_9assign_opIddEELi0EEEEEvRT_xx"
 "_ZN5Eigen8internal31unaligned_dense_assignment_loopILb0EE3runINS0_31generic_dense_assignment_kernelINS0_9evaluatorINS_5ArrayIdLin1ELin1ELi0ELin1ELin1EEEEENS5_INS6_IdLin1ELi1ELi0ELin1ELi1EEEEENS0_9assign_opIddEELi0EEEEEvRT_xx"
 "_ZN5Eigen8internal31unaligned_dense_assignment_loopILb0EE3runINS0_31generic_dense_assignment_kernelINS0_9evaluatorINS_5ArrayIiLin1ELi1ELi0ELin1ELi1EEEEES8_NS0_9assign_opIiiEELi0EEEEEvRT_xx"
 "_ZN5Eigen8internal31unaligned_dense_assignment_loopILb0EE3runINS0_31generic_dense_assignment_kernelINS0_9evaluatorINS_5BlockINS_5ArrayIdLin1ELi1ELi0ELin1ELi1EEELin1ELi1ELb0EEEEENS5_INS7_IdLin1ELin1ELi0ELin1ELin1EEEEENS0_9assign_opIddEELi0EEEEEvRT_xx"
 "_ZN5Eigen8internal31unaligned_dense_assignment_loopILb0EE3runINS0_31generic_dense_assignment_kernelINS0_9evaluatorINS_5BlockINS6_INS6_INS_3MapINS_6MatrixIdLin1ELin1ELi0ELin1ELin1EEELi0ENS_6StrideILi0ELi0EEEEELin1ELin1ELb0EEELin1ELi1ELb1EEELin1ELi1ELb0EEEEENS5_INS_14CwiseNullaryOpINS0_18scalar_constant_opIdEENS8_IdLin1ELi1ELi0ELin1ELi1EEEEEEENS0_13div_assign_opIddEELi0EEEEEvRT_xx"
 "_ZN5Eigen8internal31unaligned_dense_assignment_loopILb0EE3runINS0_31generic_dense_assignment_kernelINS0_9evaluatorINS_5BlockINS6_INS6_INS_3MapINS_6MatrixIdLin1ELin1ELi0ELin1ELin1EEELi0ENS_6StrideILi0ELi0EEEEELin1ELin1ELb0EEELin1ELin1ELb0EEELin1ELi1ELb1EEEEENS5_INS_13CwiseBinaryOpINS0_17scalar_product_opIddEEKNS_14CwiseNullaryOpINS0_18scalar_constant_opIdEEKNS8_IdLin1ELi1ELi0ELin1ELi1EEEEEKNS6_INS6_ISD_Lin1ELi1ELb1EEELin1ELi1ELb0EEEEEEENS0_13sub_assign_opIddEELi0EEEEEvRT_xx"
 "_ZN5Eigen8internal31unaligned_dense_assignment_loopILb0EE3runINS0_31generic_dense_assignment_kernelINS0_9evaluatorINS_6MatrixIdLin1ELi1ELi0ELin1ELi1EEEEENS5_INS_13CwiseBinaryOpINS0_13scalar_sum_opIddEEKS7_SC_EEEENS0_9assign_opIddEELi0EEEEEvRT_xx"
 "_ZN5Eigen8internal31unaligned_dense_assignment_loopILb0EE3runINS0_31generic_dense_assignment_kernelINS0_9evaluatorINS_6MatrixIdLin1ELin1ELi0ELin1ELin1EEEEENS5_INS_12CwiseUnaryOpINS0_13scalar_abs_opIdEEKNS_12ArrayWrapperIS7_EEEEEENS0_9assign_opIddEELi0EEEEEvRT_xx"
 "_ZN5Eigen8internal31unaligned_dense_assignment_loopILb0EE3runINS0_31generic_dense_assignment_kernelINS0_9evaluatorINS_6MatrixIdLin1ELin1ELi0ELin1ELin1EEEEENS5_INS_13CwiseBinaryOpINS0_13scalar_sum_opIddEEKS7_SC_EEEENS0_9assign_opIddEELi0EEEEEvRT_xx"
 "_ZN5Eigen8internal31unaligned_dense_assignment_loopILb0EE3runINS0_31generic_dense_assignment_kernelINS0_9evaluatorINS_6MatrixIdLin1ELin1ELi0ELin1ELin1EEEEENS5_INS_13CwiseBinaryOpINS0_17scalar_product_opIddEEKNS_14CwiseNullaryOpINS0_18scalar_constant_opIdEEKS7_EESF_EEEENS0_9assign_opIddEELi0EEEEEvRT_xx"
 "_ZN5Eigen8internal31unaligned_dense_assignment_loopILb0EE3runINS0_31generic_dense_assignment_kernelINS0_9evaluatorINS_6MatrixIdLin1ELin1ELi0ELin1ELin1EEEEENS5_INS_13CwiseBinaryOpINS0_17scalar_product_opIddEEKS7_KNS_14CwiseNullaryOpINS0_18scalar_constant_opIdEESC_EEEEEENS0_9assign_opIddEELi0EEEEEvRT_xx"
 "_ZN5Eigen8internal31unaligned_dense_assignment_loopILb0EE3runINS0_31generic_dense_assignment_kernelINS0_9evaluatorINS_6MatrixIdLin1ELin1ELi0ELin1ELin1EEEEENS5_INS_13MatrixWrapperIKNS_5ArrayIdLin1ELi1ELi0ELin1ELi1EEEEEEENS0_9assign_opIddEELi0EEEEEvRT_xx"
 "_ZN5Eigen8internal31unaligned_dense_assignment_loopILb0EE3runINS0_31generic_dense_assignment_kernelINS0_9evaluatorINS_6MatrixIdLin1ELin1ELi0ELin1ELin1EEEEENS5_INS_14CwiseNullaryOpINS0_18scalar_constant_opIdEES7_EEEENS0_9assign_opIddEELi0EEEEEvRT_xx"
 "_ZN5Eigen8internal31unaligned_dense_assignment_loopILb0EE3runINS0_31generic_dense_assignment_kernelINS0_9evaluatorINS_6MatrixIdLin1ELin1ELi0ELin1ELin1EEEEES8_NS0_13add_assign_opIddEELi0EEEEEvRT_xx"
 "_ZN5Eigen8internal31unaligned_dense_assignment_loopILb0EE3runINS0_31generic_dense_assignment_kernelINS0_9evaluatorINS_6MatrixIdLin1ELin1ELi0ELin1ELin1EEEEES8_NS0_13sub_assign_opIddEELi0EEEEEvRT_xx"
 "_ZN5Eigen8internal31unaligned_dense_assignment_loopILb0EE3runINS0_31generic_dense_assignment_kernelINS0_9evaluatorINS_6MatrixIdLin1ELin1ELi0ELin1ELin1EEEEES8_NS0_9assign_opIddEELi0EEEEEvRT_xx"
 "_ZN5Eigen8internal31unaligned_dense_assignment_loopILb0EE3runINS0_31generic_dense_assignment_kernelINS0_9evaluatorINS_6MatrixIiLin1ELin1ELi0ELin1ELin1EEEEENS5_INS_13MatrixWrapperIKNS_5ArrayIiLin1ELi1ELi0ELin1ELi1EEEEEEENS0_9assign_opIiiEELi0EEEEEvRT_xx"
 "_ZN5Eigen8internal31unaligned_dense_assignment_loopILb1EE3runINS0_31generic_dense_assignment_kernelINS0_9evaluatorINS_5ArrayIdLin1ELi1ELi0ELin1ELi1EEEEENS5_INS_13CwiseBinaryOpINS0_13scalar_sum_opIddEEKS7_SC_EEEENS0_9assign_opIddEELi0EEEEEvRT_xx"
 "_ZN5Eigen8internal31unaligned_dense_assignment_loopILb1EE3runINS0_31generic_dense_assignment_kernelINS0_9evaluatorINS_5ArrayIdLin1ELi1ELi0ELin1ELi1EEEEENS5_INS_14CwiseNullaryOpINS0_18scalar_constant_opIdEES7_EEEENS0_9assign_opIddEELi0EEEEEvRT_xx"
 "_ZN5Eigen8internal31unaligned_dense_assignment_loopILb1EE3runINS0_31generic_dense_assignment_kernelINS0_9evaluatorINS_5ArrayIdLin1ELi1ELi0ELin1ELi1EEEEENS5_INS_3MapINS_6MatrixIdLin1ELi1ELi0ELin1ELi1EEELi0ENS_6StrideILi0ELi0EEEEEEENS0_9assign_opIddEELi0EEEEEvRT_xx"
 "_ZN5Eigen8internal31unaligned_dense_assignment_loopILb1EE3runINS0_31generic_dense_assignment_kernelINS0_9evaluatorINS_5ArrayIdLin1ELi1ELi0ELin1ELi1EEEEES8_NS0_9assign_opIddEELi0EEEEEvRT_xx"
 "_ZN5Eigen8internal31unaligned_dense_assignment_loopILb1EE3runINS0_31generic_dense_assignment_kernelINS0_9evaluatorINS_5ArrayIdLin1ELin1ELi0ELin1ELin1EEEEENS5_INS6_IdLin1ELi1ELi0ELin1ELi1EEEEENS0_9assign_opIddEELi0EEEEEvRT_xx"
 "_ZN5Eigen8internal31unaligned_dense_assignment_loopILb1EE3runINS0_31generic_dense_assignment_kernelINS0_9evaluatorINS_5ArrayIiLin1ELi1ELi0ELin1ELi1EEEEES8_NS0_9assign_opIiiEELi0EEEEEvRT_xx"
 "_ZN5Eigen8internal31unaligned_dense_assignment_loopILb1EE3runINS0_31generic_dense_assignment_kernelINS0_9evaluatorINS_6MatrixIdLin1ELi1ELi0ELin1ELi1EEEEENS5_INS_13CwiseBinaryOpINS0_13scalar_sum_opIddEEKS7_SC_EEEENS0_9assign_opIddEELi0EEEEEvRT_xx"
 "_ZN5Eigen8internal31unaligned_dense_assignment_loopILb1EE3runINS0_31generic_dense_assignment_kernelINS0_9evaluatorINS_6MatrixIdLin1ELin1ELi0ELin1ELin1EEEEENS5_INS_12CwiseUnaryOpINS0_13scalar_abs_opIdEEKNS_12ArrayWrapperIS7_EEEEEENS0_9assign_opIddEELi0EEEEEvRT_xx"
 "_ZN5Eigen8internal31unaligned_dense_assignment_loopILb1EE3runINS0_31generic_dense_assignment_kernelINS0_9evaluatorINS_6MatrixIdLin1ELin1ELi0ELin1ELin1EEEEENS5_INS_13CwiseBinaryOpINS0_13scalar_sum_opIddEEKS7_SC_EEEENS0_9assign_opIddEELi0EEEEEvRT_xx"
 "_ZN5Eigen8internal31unaligned_dense_assignment_loopILb1EE3runINS0_31generic_dense_assignment_kernelINS0_9evaluatorINS_6MatrixIdLin1ELin1ELi0ELin1ELin1EEEEENS5_INS_13CwiseBinaryOpINS0_17scalar_product_opIddEEKNS_14CwiseNullaryOpINS0_18scalar_constant_opIdEEKS7_EESF_EEEENS0_9assign_opIddEELi0EEEEEvRT_xx"
 "_ZN5Eigen8internal31unaligned_dense_assignment_loopILb1EE3runINS0_31generic_dense_assignment_kernelINS0_9evaluatorINS_6MatrixIdLin1ELin1ELi0ELin1ELin1EEEEENS5_INS_13CwiseBinaryOpINS0_17scalar_product_opIddEEKS7_KNS_14CwiseNullaryOpINS0_18scalar_constant_opIdEESC_EEEEEENS0_9assign_opIddEELi0EEEEEvRT_xx"
 "_ZN5Eigen8internal31unaligned_dense_assignment_loopILb1EE3runINS0_31generic_dense_assignment_kernelINS0_9evaluatorINS_6MatrixIdLin1ELin1ELi0ELin1ELin1EEEEENS5_INS_13MatrixWrapperIKNS_5ArrayIdLin1ELi1ELi0ELin1ELi1EEEEEEENS0_9assign_opIddEELi0EEEEEvRT_xx"
 "_ZN5Eigen8internal31unaligned_dense_assignment_loopILb1EE3runINS0_31generic_dense_assignment_kernelINS0_9evaluatorINS_6MatrixIdLin1ELin1ELi0ELin1ELin1EEEEENS5_INS_14CwiseNullaryOpINS0_18scalar_constant_opIdEES7_EEEENS0_9assign_opIddEELi0EEEEEvRT_xx"
 "_ZN5Eigen8internal31unaligned_dense_assignment_loopILb1EE3runINS0_31generic_dense_assignment_kernelINS0_9evaluatorINS_6MatrixIdLin1ELin1ELi0ELin1ELin1EEEEES8_NS0_13add_assign_opIddEELi0EEEEEvRT_xx"
 "_ZN5Eigen8internal31unaligned_dense_assignment_loopILb1EE3runINS0_31generic_dense_assignment_kernelINS0_9evaluatorINS_6MatrixIdLin1ELin1ELi0ELin1ELin1EEEEES8_NS0_13sub_assign_opIddEELi0EEEEEvRT_xx"
 "_ZN5Eigen8internal31unaligned_dense_assignment_loopILb1EE3runINS0_31generic_dense_assignment_kernelINS0_9evaluatorINS_6MatrixIdLin1ELin1ELi0ELin1ELin1EEEEES8_NS0_9assign_opIddEELi0EEEEEvRT_xx"
 "_ZN5Eigen8internal31unaligned_dense_assignment_loopILb1EE3runINS0_31generic_dense_assignment_kernelINS0_9evaluatorINS_6MatrixIiLin1ELin1ELi0ELin1ELin1EEEEENS5_INS_13MatrixWrapperIKNS_5ArrayIiLin1ELi1ELi0ELin1ELi1EEEEEEENS0_9assign_opIiiEELi0EEEEEvRT_xx"
 "_ZN5Eigen8internal36conditional_aligned_realloc_new_autoIdLb1EEEPT_S3_yy"
 "_ZN5Eigen8internal36conditional_aligned_realloc_new_autoIN5CppAD2ADIdEELb1EEEPT_S6_yy"
 "_ZN5Eigen8internal36conditional_aligned_realloc_new_autoIN5CppAD2ADINS3_IdEEEELb1EEEPT_S7_yy"
 "_ZN5Eigen8internal36conditional_aligned_realloc_new_autoIN5CppAD2ADINS3_INS3_IdEEEEEELb1EEEPT_S8_yy"
 "_ZN5Eigen8internal36conditional_aligned_realloc_new_autoIN8tmbutils6vectorIiEELb1EEEPT_S6_yy"
 "_ZN5Eigen8internal36conditional_aligned_realloc_new_autoIPKcLb1EEEPT_S5_yy"
 "_ZN5Eigen8internal37evaluateProductBlockingSizesHeuristicIddLi1ExEEvRT2_S3_S3_S2_"
 "_ZN5Eigen8internal37evaluateProductBlockingSizesHeuristicIddLi4ExEEvRT2_S3_S3_S2_"
 "_ZN5Eigen8internal4castIbiEET0_RKT_"
 "_ZN5Eigen8internal4castIdiEET0_RKT_"
 "_ZN5Eigen8internal4castIdN5CppAD2ADIdEEEET0_RKT_"
 "_ZN5Eigen8internal4castIdN5CppAD2ADINS3_IdEEEEEET0_RKT_"
 "_ZN5Eigen8internal4castIdN5CppAD2ADINS3_INS3_IdEEEEEEEET0_RKT_"
 "_ZN5Eigen8internal4pabsIU8__vectordEET_RKS3_"
 "_ZN5Eigen8internal4paddIdEET_RKS2_S4_"
 "_ZN5Eigen8internal4paddIU8__vectordEET_RKS3_S5_"
 "_ZN5Eigen8internal4pdivIU8__vectordEET_RKS3_S5_"
 "_ZN5Eigen8internal4pmaxIU8__vectordEET_RKS3_S5_"
 "_ZN5Eigen8internal4pmulIdEET_RKS2_S4_"
 "_ZN5Eigen8internal4pmulIU8__vectordEET_RKS3_S5_"
 "_ZN5Eigen8internal4pmulIU8__vectorxEET_RKS3_S5_"
 "_ZN5Eigen8internal4psubIU8__vectordEET_RKS3_S5_"
 "_ZN5Eigen8internal5ploadIU8__vectordEET_PKNS0_15unpacket_traitsIS3_E4typeE"
 "_ZN5Eigen8internal5ploadIU8__vectorxEET_PKNS0_15unpacket_traitsIS3_E4typeE"
 "_ZN5Eigen8internal5pmaddIU8__vectordEET_RKS3_S5_S5_"
 "_ZN5Eigen8internal5pset1IU8__vectordEET_RKNS0_15unpacket_traitsIS3_E4typeE"
 "_ZN5Eigen8internal6pfirstIU8__vectordEENS0_15unpacket_traitsIT_E4typeERKS4_"
 "_ZN5Eigen8internal6ploaduIU8__vectordEET_PKNS0_15unpacket_traitsIS3_E4typeE"
 "_ZN5Eigen8internal6preduxIU8__vectordEENS0_15unpacket_traitsIT_E4typeERKS4_"
 "_ZN5Eigen8internal6pstoreIdU8__vectordEEvPT_RKT0_"
 "_ZN5Eigen8internal6pstoreIiU8__vectorxEEvPT_RKT0_"
 "_ZN5Eigen8internal7pstoreuIdU8__vectordEEvPT_RKT0_"
 "_ZN5Eigen8internal8prefetchIdEEvPKT_"
 "_ZN5Eigen8internal9assign_opIbbEC1Ev"
 "_ZN5Eigen8internal9assign_opIddEC1Ev"
 "_ZN5Eigen8internal9assign_opIiiEC1Ev"
 "_ZN5Eigen8internal9assign_opIN5CppAD2ADIdEES4_EC1Ev"
 "_ZN5Eigen8internal9assign_opIN5CppAD2ADINS3_IdEEEES5_EC1Ev"
 "_ZN5Eigen8internal9assign_opIN5CppAD2ADINS3_INS3_IdEEEEEES6_EC1Ev"
 "_ZN5Eigen8internal9assign_opIN8tmbutils6matrixIdEES4_EC1Ev"
 "_ZN5Eigen8internal9cast_implIbiE3runERKb"
 "_ZN5Eigen8internal9cast_implIdiE3runERKd"
 "_ZN5Eigen8internal9cast_implIdN5CppAD2ADIdEEE3runERKd"
 "_ZN5Eigen8internal9cast_implIdN5CppAD2ADINS3_IdEEEEE3runERKd"
 "_ZN5Eigen8internal9cast_implIdN5CppAD2ADINS3_INS3_IdEEEEEEE3runERKd"
 "_ZN5Eigen8internal9evaluatorIKNS_12ArrayWrapperIKNS_5BlockIKNS_6MatrixIdLin1ELin1ELi0ELin1ELin1EEELin1ELin1ELb0EEEEEEC1ERSA_"
 "_ZN5Eigen8internal9evaluatorIKNS_12ArrayWrapperIKNS_5BlockIKNS_6MatrixIdLin1ELin1ELi0ELin1ELin1EEELin1ELin1ELb0EEEEEED1Ev"
 "_ZN5Eigen8internal9evaluatorIKNS_12ArrayWrapperIKNS_6MatrixIdLin1ELin1ELi0ELin1ELin1EEEEEEC1ERS7_"
 "_ZN5Eigen8internal9evaluatorIKNS_12ArrayWrapperIKNS_6MatrixIdLin1ELin1ELi0ELin1ELin1EEEEEED1Ev"
 "_ZN5Eigen8internal9evaluatorIKNS_12ArrayWrapperINS_6MatrixIdLin1ELin1ELi0ELin1ELin1EEEEEEC1ERS6_"
 "_ZN5Eigen8internal9evaluatorIKNS_12ArrayWrapperINS_6MatrixIdLin1ELin1ELi0ELin1ELin1EEEEEED1Ev"
 "_ZN5Eigen8internal9evaluatorIKNS_12CwiseUnaryOpINS0_13scalar_abs_opIdEEKNS_6MatrixIdLin1ELin1ELi0ELin1ELin1EEEEEEC1ERS9_"
 "_ZN5Eigen8internal9evaluatorIKNS_12CwiseUnaryOpINS0_13scalar_abs_opIdEEKNS_6MatrixIdLin1ELin1ELi0ELin1ELin1EEEEEED1Ev"
 "_ZN5Eigen8internal9evaluatorIKNS_14CwiseNullaryOpINS0_18scalar_constant_opIdEEKNS_6MatrixIdLin1ELi1ELi0ELin1ELi1EEEEEEC1ERS9_"
 "_ZN5Eigen8internal9evaluatorIKNS_14CwiseNullaryOpINS0_18scalar_constant_opIdEEKNS_6MatrixIdLin1ELi1ELi0ELin1ELi1EEEEEED1Ev"
 "_ZN5Eigen8internal9evaluatorIKNS_14CwiseNullaryOpINS0_18scalar_constant_opIdEEKNS_6MatrixIdLin1ELin1ELi0ELin1ELin1EEEEEEC1ERS9_"
 "_ZN5Eigen8internal9evaluatorIKNS_14CwiseNullaryOpINS0_18scalar_constant_opIdEEKNS_6MatrixIdLin1ELin1ELi0ELin1ELin1EEEEEED1Ev"
 "_ZN5Eigen8internal9evaluatorIKNS_14CwiseNullaryOpINS0_18scalar_identity_opIdEENS_6MatrixIdLin1ELin1ELi0ELin1ELin1EEEEEEC1ERS8_"
 "_ZN5Eigen8internal9evaluatorIKNS_14CwiseNullaryOpINS0_18scalar_identity_opIdEENS_6MatrixIdLin1ELin1ELi0ELin1ELin1EEEEEED1Ev"
 "_ZN5Eigen8internal9evaluatorIKNS_3MapINS_6MatrixIdLin1ELi1ELi0ELin1ELi1EEELi0ENS_6StrideILi0ELi0EEEEEEC1ERS8_"
 "_ZN5Eigen8internal9evaluatorIKNS_3MapINS_6MatrixIdLin1ELi1ELi0ELin1ELi1EEELi0ENS_6StrideILi0ELi0EEEEEED1Ev"
 "_ZN5Eigen8internal9evaluatorIKNS_5ArrayIbLin1ELi1ELi0ELin1ELi1EEEEC1ERS4_"
 "_ZN5Eigen8internal9evaluatorIKNS_5ArrayIbLin1ELi1ELi0ELin1ELi1EEEED1Ev"
 "_ZN5Eigen8internal9evaluatorIKNS_5ArrayIdLin1ELi1ELi0ELin1ELi1EEEEC1ERS4_"
 "_ZN5Eigen8internal9evaluatorIKNS_5ArrayIdLin1ELi1ELi0ELin1ELi1EEEED1Ev"
 "_ZN5Eigen8internal9evaluatorIKNS_5ArrayIN5CppAD2ADIdEELin1ELi1ELi0ELin1ELi1EEEEC1ERS7_"
 "_ZN5Eigen8internal9evaluatorIKNS_5ArrayIN5CppAD2ADIdEELin1ELi1ELi0ELin1ELi1EEEED1Ev"
 "_ZN5Eigen8internal9evaluatorIKNS_5ArrayIN5CppAD2ADINS4_IdEEEELin1ELi1ELi0ELin1ELi1EEEEC1ERS8_"
 "_ZN5Eigen8internal9evaluatorIKNS_5ArrayIN5CppAD2ADINS4_IdEEEELin1ELi1ELi0ELin1ELi1EEEED1Ev"
 "_ZN5Eigen8internal9evaluatorIKNS_5ArrayIN5CppAD2ADINS4_INS4_IdEEEEEELin1ELi1ELi0ELin1ELi1EEEEC1ERS9_"
 "_ZN5Eigen8internal9evaluatorIKNS_5ArrayIN5CppAD2ADINS4_INS4_IdEEEEEELin1ELi1ELi0ELin1ELi1EEEED1Ev"
 "_ZN5Eigen8internal9evaluatorIKNS_5BlockIKNS_6MatrixIdLin1ELin1ELi0ELin1ELin1EEELi1ELin1ELb0EEEEC1ERS7_"
 "_ZN5Eigen8internal9evaluatorIKNS_5BlockIKNS_6MatrixIdLin1ELin1ELi0ELin1ELin1EEELi1ELin1ELb0EEEED1Ev"
 "_ZN5Eigen8internal9evaluatorIKNS_5BlockIKNS_6MatrixIdLin1ELin1ELi0ELin1ELin1EEELin1ELi1ELb1EEEEC1ERS7_"
 "_ZN5Eigen8internal9evaluatorIKNS_5BlockIKNS_6MatrixIdLin1ELin1ELi0ELin1ELin1EEELin1ELi1ELb1EEEED1Ev"
 "_ZN5Eigen8internal9evaluatorIKNS_5BlockIKNS2_INS2_INS_3MapINS_6MatrixIdLin1ELin1ELi0ELin1ELin1EEELi0ENS_6StrideILi0ELi0EEEEELin1ELin1ELb0EEELin1ELin1ELb0EEELi1ELin1ELb0EEEEC1ERSD_"
 "_ZN5Eigen8internal9evaluatorIKNS_5BlockIKNS2_INS2_INS_3MapINS_6MatrixIdLin1ELin1ELi0ELin1ELin1EEELi0ENS_6StrideILi0ELi0EEEEELin1ELin1ELb0EEELin1ELin1ELb0EEELi1ELin1ELb0EEEED1Ev"
 "_ZN5Eigen8internal9evaluatorIKNS_5BlockIKNS2_INS2_INS_3MapINS_6MatrixIdLin1ELin1ELi0ELin1ELin1EEELi0ENS_6StrideILi0ELi0EEEEELin1ELin1ELb0EEELin1ELin1ELb0EEELin1ELi1ELb1EEEEC1ERSD_"
 "_ZN5Eigen8internal9evaluatorIKNS_5BlockIKNS2_INS2_INS_3MapINS_6MatrixIdLin1ELin1ELi0ELin1ELin1EEELi0ENS_6StrideILi0ELi0EEEEELin1ELin1ELb0EEELin1ELin1ELb0EEELin1ELi1ELb1EEEED1Ev"
 "_ZN5Eigen8internal9evaluatorIKNS_5BlockINS2_INS2_INS_3MapINS_6MatrixIdLin1ELin1ELi0ELin1ELin1EEELi0ENS_6StrideILi0ELi0EEEEELin1ELin1ELb0EEELin1ELi1ELb1EEELin1ELi1ELb0EEEEC1ERSC_"
 "_ZN5Eigen8internal9evaluatorIKNS_5BlockINS2_INS2_INS_3MapINS_6MatrixIdLin1ELin1ELi0ELin1ELin1EEELi0ENS_6StrideILi0ELi0EEEEELin1ELin1ELb0EEELin1ELi1ELb1EEELin1ELi1ELb0EEEED1Ev"
 "_ZN5Eigen8internal9evaluatorIKNS_6MatrixIdLin1ELi1ELi0ELin1ELi1EEEEC1ERS4_"
 "_ZN5Eigen8internal9evaluatorIKNS_6MatrixIdLin1ELi1ELi0ELin1ELi1EEEED1Ev"
 "_ZN5Eigen8internal9evaluatorIKNS_6MatrixIdLin1ELin1ELi0ELin1ELin1EEEEC1ERS4_"
 "_ZN5Eigen8internal9evaluatorIKNS_6MatrixIdLin1ELin1ELi0ELin1ELin1EEEED1Ev"
 "_ZN5Eigen8internal9evaluatorIKNS_9TransposeIKNS_5BlockIKNS_6MatrixIdLin1ELin1ELi0ELin1ELin1EEELi1ELin1ELb0EEEEEEC1ERSA_"
 "_ZN5Eigen8internal9evaluatorIKNS_9TransposeIKNS_5BlockIKNS_6MatrixIdLin1ELin1ELi0ELin1ELin1EEELi1ELin1ELb0EEEEEED1Ev"
 "_ZN5Eigen8internal9evaluatorIKNS_9TransposeIKNS_5BlockIKNS3_INS3_INS_3MapINS_6MatrixIdLin1ELin1ELi0ELin1ELin1EEELi0ENS_6StrideILi0ELi0EEEEELin1ELin1ELb0EEELin1ELin1ELb0EEELi1ELin1ELb0EEEEEEC1ERSG_"
 "_ZN5Eigen8internal9evaluatorIKNS_9TransposeIKNS_5BlockIKNS3_INS3_INS_3MapINS_6MatrixIdLin1ELin1ELi0ELin1ELin1EEELi0ENS_6StrideILi0ELi0EEEEELin1ELin1ELb0EEELin1ELin1ELb0EEELi1ELin1ELb0EEEEEED1Ev"
 "_ZN5Eigen8internal9evaluatorINS_12ArrayWrapperIKNS_5BlockIKNS_6MatrixIdLin1ELin1ELi0ELin1ELin1EEELin1ELin1ELb0EEEEEEC2ERKS9_"
 "_ZN5Eigen8internal9evaluatorINS_12ArrayWrapperIKNS_5BlockIKNS_6MatrixIdLin1ELin1ELi0ELin1ELin1EEELin1ELin1ELb0EEEEEED2Ev"
 "_ZN5Eigen8internal9evaluatorINS_12ArrayWrapperIKNS_6MatrixIdLin1ELin1ELi0ELin1ELin1EEEEEEC2ERKS6_"
 "_ZN5Eigen8internal9evaluatorINS_12ArrayWrapperIKNS_6MatrixIdLin1ELin1ELi0ELin1ELin1EEEEEED2Ev"
 "_ZN5Eigen8internal9evaluatorINS_12ArrayWrapperINS_6MatrixIdLin1ELin1ELi0ELin1ELin1EEEEEEC2ERKS5_"
 "_ZN5Eigen8internal9evaluatorINS_12ArrayWrapperINS_6MatrixIdLin1ELin1ELi0ELin1ELin1EEEEEED2Ev"
 "_ZN5Eigen8internal9evaluatorINS_12CwiseUnaryOpINS0_13scalar_abs_opIdEEKNS_12ArrayWrapperINS_6MatrixIdLin1ELin1ELi0ELin1ELin1EEEEEEEEC1ERKSA_"
 "_ZN5Eigen8internal9evaluatorINS_12CwiseUnaryOpINS0_13scalar_abs_opIdEEKNS_12ArrayWrapperINS_6MatrixIdLin1ELin1ELi0ELin1ELin1EEEEEEEED1Ev"
 "_ZN5Eigen8internal9evaluatorINS_12CwiseUnaryOpINS0_13scalar_abs_opIdEEKNS_6MatrixIdLin1ELin1ELi0ELin1ELin1EEEEEEC2ERKS8_"
 "_ZN5Eigen8internal9evaluatorINS_12CwiseUnaryOpINS0_13scalar_abs_opIdEEKNS_6MatrixIdLin1ELin1ELi0ELin1ELin1EEEEEED2Ev"
 "_ZN5Eigen8internal9evaluatorINS_12CwiseUnaryOpINS0_14scalar_cast_opIbiEEKNS_5ArrayIbLin1ELi1ELi0ELin1ELi1EEEEEEC1ERKS8_"
 "_ZN5Eigen8internal9evaluatorINS_12CwiseUnaryOpINS0_14scalar_cast_opIbiEEKNS_5ArrayIbLin1ELi1ELi0ELin1ELi1EEEEEED1Ev"
 "_ZN5Eigen8internal9evaluatorINS_12CwiseUnaryOpINS0_14scalar_cast_opIdiEEKNS_3MapINS_6MatrixIdLin1ELi1ELi0ELin1ELi1EEELi0ENS_6StrideILi0ELi0EEEEEEEEC1ERKSC_"
 "_ZN5Eigen8internal9evaluatorINS_12CwiseUnaryOpINS0_14scalar_cast_opIdiEEKNS_3MapINS_6MatrixIdLin1ELi1ELi0ELin1ELi1EEELi0ENS_6StrideILi0ELi0EEEEEEEED1Ev"
 "_ZN5Eigen8internal9evaluatorINS_12CwiseUnaryOpINS0_14scalar_cast_opIdN5CppAD2ADIdEEEEKNS_3MapINS_6MatrixIdLin1ELi1ELi0ELin1ELi1EEELi0ENS_6StrideILi0ELi0EEEEEEEEC1ERKSF_"
 "_ZN5Eigen8internal9evaluatorINS_12CwiseUnaryOpINS0_14scalar_cast_opIdN5CppAD2ADIdEEEEKNS_3MapINS_6MatrixIdLin1ELi1ELi0ELin1ELi1EEELi0ENS_6StrideILi0ELi0EEEEEEEED1Ev"
 "_ZN5Eigen8internal9evaluatorINS_12CwiseUnaryOpINS0_14scalar_cast_opIdN5CppAD2ADINS5_IdEEEEEEKNS_3MapINS_6MatrixIdLin1ELi1ELi0ELin1ELi1EEELi0ENS_6StrideILi0ELi0EEEEEEEEC1ERKSG_"
 "_ZN5Eigen8internal9evaluatorINS_12CwiseUnaryOpINS0_14scalar_cast_opIdN5CppAD2ADINS5_IdEEEEEEKNS_3MapINS_6MatrixIdLin1ELi1ELi0ELin1ELi1EEELi0ENS_6StrideILi0ELi0EEEEEEEED1Ev"
 "_ZN5Eigen8internal9evaluatorINS_12CwiseUnaryOpINS0_14scalar_cast_opIdN5CppAD2ADINS5_INS5_IdEEEEEEEEKNS_3MapINS_6MatrixIdLin1ELi1ELi0ELin1ELi1EEELi0ENS_6StrideILi0ELi0EEEEEEEEC1ERKSH_"
 "_ZN5Eigen8internal9evaluatorINS_12CwiseUnaryOpINS0_14scalar_cast_opIdN5CppAD2ADINS5_INS5_IdEEEEEEEEKNS_3MapINS_6MatrixIdLin1ELi1ELi0ELin1ELi1EEELi0ENS_6StrideILi0ELi0EEEEEEEED1Ev"
 "_ZN5Eigen8internal9evaluatorINS_12CwiseUnaryOpINS0_21scalar_score_coeff_opIdEEKNS_5BlockINS5_INS5_INS_3MapINS_6MatrixIdLin1ELin1ELi0ELin1ELin1EEELi0ENS_6StrideILi0ELi0EEEEELin1ELin1ELb0EEELin1ELi1ELb1EEELin1ELi1ELb0EEEEEEC1ERKSG_"
 "_ZN5Eigen8internal9evaluatorINS_12CwiseUnaryOpINS0_21scalar_score_coeff_opIdEEKNS_5BlockINS5_INS5_INS_3MapINS_6MatrixIdLin1ELin1ELi0ELin1ELin1EEELi0ENS_6StrideILi0ELi0EEEEELin1ELin1ELb0EEELin1ELi1ELb1EEELin1ELi1ELb0EEEEEED1Ev"
 "_ZN5Eigen8internal9evaluatorINS_13CwiseBinaryOpINS0_13scalar_sum_opIddEEKNS_5ArrayIdLin1ELi1ELi0ELin1ELi1EEES7_EEEC1ERKS8_"
 "_ZN5Eigen8internal9evaluatorINS_13CwiseBinaryOpINS0_13scalar_sum_opIddEEKNS_5ArrayIdLin1ELi1ELi0ELin1ELi1EEES7_EEED1Ev"
 "_ZN5Eigen8internal9evaluatorINS_13CwiseBinaryOpINS0_13scalar_sum_opIddEEKNS_6MatrixIdLin1ELi1ELi0ELin1ELi1EEES7_EEEC1ERKS8_"
 "_ZN5Eigen8internal9evaluatorINS_13CwiseBinaryOpINS0_13scalar_sum_opIddEEKNS_6MatrixIdLin1ELi1ELi0ELin1ELi1EEES7_EEED1Ev"
 "_ZN5Eigen8internal9evaluatorINS_13CwiseBinaryOpINS0_13scalar_sum_opIddEEKNS_6MatrixIdLin1ELin1ELi0ELin1ELin1EEES7_EEEC1ERKS8_"
 "_ZN5Eigen8internal9evaluatorINS_13CwiseBinaryOpINS0_13scalar_sum_opIddEEKNS_6MatrixIdLin1ELin1ELi0ELin1ELin1EEES7_EEED1Ev"
 "_ZN5Eigen8internal9evaluatorINS_13CwiseBinaryOpINS0_17scalar_product_opIddEEKNS_12ArrayWrapperIKNS_5BlockIKNS_6MatrixIdLin1ELin1ELi0ELin1ELin1EEELin1ELin1ELb0EEEEEKNS5_IS9_EEEEEC1ERKSG_"
 "_ZN5Eigen8internal9evaluatorINS_13CwiseBinaryOpINS0_17scalar_product_opIddEEKNS_12ArrayWrapperIKNS_5BlockIKNS_6MatrixIdLin1ELin1ELi0ELin1ELin1EEELin1ELin1ELb0EEEEEKNS5_IS9_EEEEED1Ev"
 "_ZN5Eigen8internal9evaluatorINS_13CwiseBinaryOpINS0_17scalar_product_opIddEEKNS_14CwiseNullaryOpINS0_18scalar_constant_opIdEEKNS_6MatrixIdLin1ELi1ELi0ELin1ELi1EEEEEKNS_5BlockINSD_INSD_INS_3MapINS8_IdLin1ELin1ELi0ELin1ELin1EEELi0ENS_6StrideILi0ELi0EEEEELin1ELin1ELb0EEELin1ELi1ELb1EEELin1ELi1ELb0EEEEEEC1ERKSN_"
 "_ZN5Eigen8internal9evaluatorINS_13CwiseBinaryOpINS0_17scalar_product_opIddEEKNS_14CwiseNullaryOpINS0_18scalar_constant_opIdEEKNS_6MatrixIdLin1ELi1ELi0ELin1ELi1EEEEEKNS_5BlockINSD_INSD_INS_3MapINS8_IdLin1ELin1ELi0ELin1ELin1EEELi0ENS_6StrideILi0ELi0EEEEELin1ELin1ELb0EEELin1ELi1ELb1EEELin1ELi1ELb0EEEEEED1Ev"
 "_ZN5Eigen8internal9evaluatorINS_13CwiseBinaryOpINS0_17scalar_product_opIddEEKNS_14CwiseNullaryOpINS0_18scalar_constant_opIdEEKNS_6MatrixIdLin1ELin1ELi0ELin1ELin1EEEEESA_EEEC1ERKSD_"
 "_ZN5Eigen8internal9evaluatorINS_13CwiseBinaryOpINS0_17scalar_product_opIddEEKNS_14CwiseNullaryOpINS0_18scalar_constant_opIdEEKNS_6MatrixIdLin1ELin1ELi0ELin1ELin1EEEEESA_EEED1Ev"
 "_ZN5Eigen8internal9evaluatorINS_13CwiseBinaryOpINS0_17scalar_product_opIddEEKNS_6MatrixIdLin1ELin1ELi0ELin1ELin1EEEKNS_14CwiseNullaryOpINS0_18scalar_constant_opIdEES7_EEEEEC1ERKSD_"
 "_ZN5Eigen8internal9evaluatorINS_13CwiseBinaryOpINS0_17scalar_product_opIddEEKNS_6MatrixIdLin1ELin1ELi0ELin1ELin1EEEKNS_14CwiseNullaryOpINS0_18scalar_constant_opIdEES7_EEEEED1Ev"
 "_ZN5Eigen8internal9evaluatorINS_13CwiseBinaryOpINS0_17scalar_product_opIddEEKNS_9TransposeIKNS_5BlockIKNS_6MatrixIdLin1ELin1ELi0ELin1ELin1EEELi1ELin1ELb0EEEEEKNS6_IS9_Lin1ELi1ELb1EEEEEEC1ERKSG_"
 "_ZN5Eigen8internal9evaluatorINS_13CwiseBinaryOpINS0_17scalar_product_opIddEEKNS_9TransposeIKNS_5BlockIKNS_6MatrixIdLin1ELin1ELi0ELin1ELin1EEELi1ELin1ELb0EEEEEKNS6_IS9_Lin1ELi1ELb1EEEEEED1Ev"
 "_ZN5Eigen8internal9evaluatorINS_13CwiseBinaryOpINS0_17scalar_product_opIddEEKNS_9TransposeIKNS_5BlockIKNS6_INS6_INS_3MapINS_6MatrixIdLin1ELin1ELi0ELin1ELin1EEELi0ENS_6StrideILi0ELi0EEEEELin1ELin1ELb0EEELin1ELin1ELb0EEELi1ELin1ELb0EEEEEKNS6_ISF_Lin1ELi1ELb1EEEEEEC1ERKSM_"
 "_ZN5Eigen8internal9evaluatorINS_13CwiseBinaryOpINS0_17scalar_product_opIddEEKNS_9TransposeIKNS_5BlockIKNS6_INS6_INS_3MapINS_6MatrixIdLin1ELin1ELi0ELin1ELin1EEELi0ENS_6StrideILi0ELi0EEEEELin1ELin1ELb0EEELin1ELin1ELb0EEELi1ELin1ELb0EEEEEKNS6_ISF_Lin1ELi1ELb1EEEEEED1Ev"
 "_ZN5Eigen8internal9evaluatorINS_13CwiseBinaryOpINS0_17scalar_product_opIN5CppAD2ADIdEES6_EEKNS_5ArrayIS6_Lin1ELi1ELi0ELin1ELi1EEESA_EEEC1ERKSB_"
 "_ZN5Eigen8internal9evaluatorINS_13CwiseBinaryOpINS0_17scalar_product_opIN5CppAD2ADIdEES6_EEKNS_5ArrayIS6_Lin1ELi1ELi0ELin1ELi1EEESA_EEED1Ev"
 "_ZN5Eigen8internal9evaluatorINS_13CwiseBinaryOpINS0_17scalar_product_opIN5CppAD2ADINS5_IdEEEES7_EEKNS_5ArrayIS7_Lin1ELi1ELi0ELin1ELi1EEESB_EEEC1ERKSC_"
 "_ZN5Eigen8internal9evaluatorINS_13CwiseBinaryOpINS0_17scalar_product_opIN5CppAD2ADINS5_IdEEEES7_EEKNS_5ArrayIS7_Lin1ELi1ELi0ELin1ELi1EEESB_EEED1Ev"
 "_ZN5Eigen8internal9evaluatorINS_13CwiseBinaryOpINS0_17scalar_product_opIN5CppAD2ADINS5_INS5_IdEEEEEES8_EEKNS_5ArrayIS8_Lin1ELi1ELi0ELin1ELi1EEESC_EEEC1ERKSD_"
 "_ZN5Eigen8internal9evaluatorINS_13CwiseBinaryOpINS0_17scalar_product_opIN5CppAD2ADINS5_INS5_IdEEEEEES8_EEKNS_5ArrayIS8_Lin1ELi1ELi0ELin1ELi1EEESC_EEED1Ev"
 "_ZN5Eigen8internal9evaluatorINS_13MatrixWrapperIKNS_5ArrayIdLin1ELi1ELi0ELin1ELi1EEEEEEC1ERKS6_"
 "_ZN5Eigen8internal9evaluatorINS_13MatrixWrapperIKNS_5ArrayIdLin1ELi1ELi0ELin1ELi1EEEEEED1Ev"
 "_ZN5Eigen8internal9evaluatorINS_13MatrixWrapperIKNS_5ArrayIiLin1ELi1ELi0ELin1ELi1EEEEEEC1ERKS6_"
 "_ZN5Eigen8internal9evaluatorINS_13MatrixWrapperIKNS_5ArrayIiLin1ELi1ELi0ELin1ELi1EEEEEED1Ev"
 "_ZN5Eigen8internal9evaluatorINS_14CwiseNullaryOpINS0_18scalar_constant_opIbEENS_6MatrixIbLin1ELi1ELi0ELin1ELi1EEEEEEC1ERKS7_"
 "_ZN5Eigen8internal9evaluatorINS_14CwiseNullaryOpINS0_18scalar_constant_opIbEENS_6MatrixIbLin1ELi1ELi0ELin1ELi1EEEEEED1Ev"
 "_ZN5Eigen8internal9evaluatorINS_14CwiseNullaryOpINS0_18scalar_constant_opIdEEKNS_6MatrixIdLin1ELi1ELi0ELin1ELi1EEEEEEC2ERKS8_"
 "_ZN5Eigen8internal9evaluatorINS_14CwiseNullaryOpINS0_18scalar_constant_opIdEEKNS_6MatrixIdLin1ELi1ELi0ELin1ELi1EEEEEED2Ev"
 "_ZN5Eigen8internal9evaluatorINS_14CwiseNullaryOpINS0_18scalar_constant_opIdEEKNS_6MatrixIdLin1ELin1ELi0ELin1ELin1EEEEEEC2ERKS8_"
 "_ZN5Eigen8internal9evaluatorINS_14CwiseNullaryOpINS0_18scalar_constant_opIdEEKNS_6MatrixIdLin1ELin1ELi0ELin1ELin1EEEEEED2Ev"
 "_ZN5Eigen8internal9evaluatorINS_14CwiseNullaryOpINS0_18scalar_constant_opIdEENS_5ArrayIdLin1ELi1ELi0ELin1ELi1EEEEEEC1ERKS7_"
 "_ZN5Eigen8internal9evaluatorINS_14CwiseNullaryOpINS0_18scalar_constant_opIdEENS_5ArrayIdLin1ELi1ELi0ELin1ELi1EEEEEED1Ev"
 "_ZN5Eigen8internal9evaluatorINS_14CwiseNullaryOpINS0_18scalar_constant_opIdEENS_6MatrixIdLin1ELi1ELi0ELin1ELi1EEEEEEC1ERKS7_"
 "_ZN5Eigen8internal9evaluatorINS_14CwiseNullaryOpINS0_18scalar_constant_opIdEENS_6MatrixIdLin1ELi1ELi0ELin1ELi1EEEEEED1Ev"
 "_ZN5Eigen8internal9evaluatorINS_14CwiseNullaryOpINS0_18scalar_constant_opIdEENS_6MatrixIdLin1ELin1ELi0ELin1ELin1EEEEEEC1ERKS7_"
 "_ZN5Eigen8internal9evaluatorINS_14CwiseNullaryOpINS0_18scalar_constant_opIdEENS_6MatrixIdLin1ELin1ELi0ELin1ELin1EEEEEED1Ev"
 "_ZN5Eigen8internal9evaluatorINS_14CwiseNullaryOpINS0_18scalar_identity_opIdEENS_6MatrixIdLin1ELin1ELi0ELin1ELin1EEEEEEC1ERKS7_"
 "_ZN5Eigen8internal9evaluatorINS_14CwiseNullaryOpINS0_18scalar_identity_opIdEENS_6MatrixIdLin1ELin1ELi0ELin1ELin1EEEEEEC2ERKS7_"
 "_ZN5Eigen8internal9evaluatorINS_14CwiseNullaryOpINS0_18scalar_identity_opIdEENS_6MatrixIdLin1ELin1ELi0ELin1ELin1EEEEEED1Ev"
 "_ZN5Eigen8internal9evaluatorINS_14CwiseNullaryOpINS0_18scalar_identity_opIdEENS_6MatrixIdLin1ELin1ELi0ELin1ELin1EEEEEED2Ev"
 "_ZN5Eigen8internal9evaluatorINS_15PlainObjectBaseINS_5ArrayIbLin1ELi1ELi0ELin1ELi1EEEEEE8coeffRefEx"
 "_ZN5Eigen8internal9evaluatorINS_15PlainObjectBaseINS_5ArrayIbLin1ELi1ELi0ELin1ELi1EEEEEEC2ERKS5_"
 "_ZN5Eigen8internal9evaluatorINS_15PlainObjectBaseINS_5ArrayIbLin1ELi1ELi0ELin1ELi1EEEEEED2Ev"
 "_ZN5Eigen8internal9evaluatorINS_15PlainObjectBaseINS_5ArrayIdLin1ELi1ELi0ELin1ELi1EEEEEE8coeffRefEx"
 "_ZN5Eigen8internal9evaluatorINS_15PlainObjectBaseINS_5ArrayIdLin1ELi1ELi0ELin1ELi1EEEEEEC2ERKS5_"
 "_ZN5Eigen8internal9evaluatorINS_15PlainObjectBaseINS_5ArrayIdLin1ELi1ELi0ELin1ELi1EEEEEED2Ev"
 "_ZN5Eigen8internal9evaluatorINS_15PlainObjectBaseINS_5ArrayIdLin1ELin1ELi0ELin1ELin1EEEEEE8coeffRefEx"
 "_ZN5Eigen8internal9evaluatorINS_15PlainObjectBaseINS_5ArrayIdLin1ELin1ELi0ELin1ELin1EEEEEEC2ERKS5_"
 "_ZN5Eigen8internal9evaluatorINS_15PlainObjectBaseINS_5ArrayIdLin1ELin1ELi0ELin1ELin1EEEEEED2Ev"
 "_ZN5Eigen8internal9evaluatorINS_15PlainObjectBaseINS_5ArrayIiLin1ELi1ELi0ELin1ELi1EEEEEE8coeffRefEx"
 "_ZN5Eigen8internal9evaluatorINS_15PlainObjectBaseINS_5ArrayIiLin1ELi1ELi0ELin1ELi1EEEEEEC2ERKS5_"
 "_ZN5Eigen8internal9evaluatorINS_15PlainObjectBaseINS_5ArrayIiLin1ELi1ELi0ELin1ELi1EEEEEED2Ev"
 "_ZN5Eigen8internal9evaluatorINS_15PlainObjectBaseINS_5ArrayIN5CppAD2ADIdEELin1ELi1ELi0ELin1ELi1EEEEEE8coeffRefEx"
 "_ZN5Eigen8internal9evaluatorINS_15PlainObjectBaseINS_5ArrayIN5CppAD2ADIdEELin1ELi1ELi0ELin1ELi1EEEEEEC2ERKS8_"
 "_ZN5Eigen8internal9evaluatorINS_15PlainObjectBaseINS_5ArrayIN5CppAD2ADIdEELin1ELi1ELi0ELin1ELi1EEEEEED2Ev"
 "_ZN5Eigen8internal9evaluatorINS_15PlainObjectBaseINS_5ArrayIN5CppAD2ADIdEELin1ELin1ELi0ELin1ELin1EEEEEE8coeffRefEx"
 "_ZN5Eigen8internal9evaluatorINS_15PlainObjectBaseINS_5ArrayIN5CppAD2ADIdEELin1ELin1ELi0ELin1ELin1EEEEEEC2ERKS8_"
 "_ZN5Eigen8internal9evaluatorINS_15PlainObjectBaseINS_5ArrayIN5CppAD2ADIdEELin1ELin1ELi0ELin1ELin1EEEEEED2Ev"
 "_ZN5Eigen8internal9evaluatorINS_15PlainObjectBaseINS_5ArrayIN5CppAD2ADINS5_IdEEEELin1ELi1ELi0ELin1ELi1EEEEEE8coeffRefEx"
 "_ZN5Eigen8internal9evaluatorINS_15PlainObjectBaseINS_5ArrayIN5CppAD2ADINS5_IdEEEELin1ELi1ELi0ELin1ELi1EEEEEEC2ERKS9_"
 "_ZN5Eigen8internal9evaluatorINS_15PlainObjectBaseINS_5ArrayIN5CppAD2ADINS5_IdEEEELin1ELi1ELi0ELin1ELi1EEEEEED2Ev"
 "_ZN5Eigen8internal9evaluatorINS_15PlainObjectBaseINS_5ArrayIN5CppAD2ADINS5_IdEEEELin1ELin1ELi0ELin1ELin1EEEEEE8coeffRefEx"
 "_ZN5Eigen8internal9evaluatorINS_15PlainObjectBaseINS_5ArrayIN5CppAD2ADINS5_IdEEEELin1ELin1ELi0ELin1ELin1EEEEEEC2ERKS9_"
 "_ZN5Eigen8internal9evaluatorINS_15PlainObjectBaseINS_5ArrayIN5CppAD2ADINS5_IdEEEELin1ELin1ELi0ELin1ELin1EEEEEED2Ev"
 "_ZN5Eigen8internal9evaluatorINS_15PlainObjectBaseINS_5ArrayIN5CppAD2ADINS5_INS5_IdEEEEEELin1ELi1ELi0ELin1ELi1EEEEEE8coeffRefEx"
 "_ZN5Eigen8internal9evaluatorINS_15PlainObjectBaseINS_5ArrayIN5CppAD2ADINS5_INS5_IdEEEEEELin1ELi1ELi0ELin1ELi1EEEEEEC2ERKSA_"
 "_ZN5Eigen8internal9evaluatorINS_15PlainObjectBaseINS_5ArrayIN5CppAD2ADINS5_INS5_IdEEEEEELin1ELi1ELi0ELin1ELi1EEEEEED2Ev"
 "_ZN5Eigen8internal9evaluatorINS_15PlainObjectBaseINS_5ArrayIN5CppAD2ADINS5_INS5_IdEEEEEELin1ELin1ELi0ELin1ELin1EEEEEE8coeffRefEx"
 "_ZN5Eigen8internal9evaluatorINS_15PlainObjectBaseINS_5ArrayIN5CppAD2ADINS5_INS5_IdEEEEEELin1ELin1ELi0ELin1ELin1EEEEEEC2ERKSA_"
 "_ZN5Eigen8internal9evaluatorINS_15PlainObjectBaseINS_5ArrayIN5CppAD2ADINS5_INS5_IdEEEEEELin1ELin1ELi0ELin1ELin1EEEEEED2Ev"
 "_ZN5Eigen8internal9evaluatorINS_15PlainObjectBaseINS_5ArrayIN8tmbutils6matrixIdEELin1ELi1ELi0ELin1ELi1EEEEEE8coeffRefEx"
 "_ZN5Eigen8internal9evaluatorINS_15PlainObjectBaseINS_5ArrayIN8tmbutils6matrixIdEELin1ELi1ELi0ELin1ELi1EEEEEEC2ERKS8_"
 "_ZN5Eigen8internal9evaluatorINS_15PlainObjectBaseINS_5ArrayIN8tmbutils6matrixIdEELin1ELi1ELi0ELin1ELi1EEEEEED2Ev"
 "_ZN5Eigen8internal9evaluatorINS_15PlainObjectBaseINS_5ArrayIN8tmbutils6vectorIdEELin1ELi1ELi0ELin1ELi1EEEEEE8coeffRefEx"
 "_ZN5Eigen8internal9evaluatorINS_15PlainObjectBaseINS_5ArrayIN8tmbutils6vectorIdEELin1ELi1ELi0ELin1ELi1EEEEEEC2ERKS8_"
 "_ZN5Eigen8internal9evaluatorINS_15PlainObjectBaseINS_5ArrayIN8tmbutils6vectorIdEELin1ELi1ELi0ELin1ELi1EEEEEED2Ev"
 "_ZN5Eigen8internal9evaluatorINS_15PlainObjectBaseINS_5ArrayIN8tmbutils6vectorIiEELin1ELi1ELi0ELin1ELi1EEEEEE8coeffRefEx"
 "_ZN5Eigen8internal9evaluatorINS_15PlainObjectBaseINS_5ArrayIN8tmbutils6vectorIiEELin1ELi1ELi0ELin1ELi1EEEEEEC2ERKS8_"
 "_ZN5Eigen8internal9evaluatorINS_15PlainObjectBaseINS_5ArrayIN8tmbutils6vectorIiEELin1ELi1ELi0ELin1ELi1EEEEEED2Ev"
 "_ZN5Eigen8internal9evaluatorINS_15PlainObjectBaseINS_5ArrayIN8tmbutils6vectorIyEELin1ELi1ELi0ELin1ELi1EEEEEE8coeffRefEx"
 "_ZN5Eigen8internal9evaluatorINS_15PlainObjectBaseINS_5ArrayIN8tmbutils6vectorIyEELin1ELi1ELi0ELin1ELi1EEEEEEC2ERKS8_"
 "_ZN5Eigen8internal9evaluatorINS_15PlainObjectBaseINS_5ArrayIN8tmbutils6vectorIyEELin1ELi1ELi0ELin1ELi1EEEEEED2Ev"
 "_ZN5Eigen8internal9evaluatorINS_15PlainObjectBaseINS_5ArrayINS_6MatrixIdLin1ELi1ELi0ELin1ELi1EEELin1ELi1ELi0ELin1ELi1EEEEEE8coeffRefEx"
 "_ZN5Eigen8internal9evaluatorINS_15PlainObjectBaseINS_5ArrayINS_6MatrixIdLin1ELi1ELi0ELin1ELi1EEELin1ELi1ELi0ELin1ELi1EEEEEEC2ERKS7_"
 "_ZN5Eigen8internal9evaluatorINS_15PlainObjectBaseINS_5ArrayINS_6MatrixIdLin1ELi1ELi0ELin1ELi1EEELin1ELi1ELi0ELin1ELi1EEEEEED2Ev"
 "_ZN5Eigen8internal9evaluatorINS_15PlainObjectBaseINS_5ArrayIPKcLin1ELi1ELi0ELin1ELi1EEEEEE8coeffRefEx"
 "_ZN5Eigen8internal9evaluatorINS_15PlainObjectBaseINS_5ArrayIPKcLin1ELi1ELi0ELin1ELi1EEEEEEC2ERKS7_"
 "_ZN5Eigen8internal9evaluatorINS_15PlainObjectBaseINS_5ArrayIPKcLin1ELi1ELi0ELin1ELi1EEEEEED2Ev"
 "_ZN5Eigen8internal9evaluatorINS_15PlainObjectBaseINS_5ArrayIPN5CppAD5ADFunIdEELin1ELi1ELi0ELin1ELi1EEEEEE8coeffRefEx"
 "_ZN5Eigen8internal9evaluatorINS_15PlainObjectBaseINS_5ArrayIPN5CppAD5ADFunIdEELin1ELi1ELi0ELin1ELi1EEEEEEC2ERKS9_"
 "_ZN5Eigen8internal9evaluatorINS_15PlainObjectBaseINS_5ArrayIPN5CppAD5ADFunIdEELin1ELi1ELi0ELin1ELi1EEEEEED2Ev"
 "_ZN5Eigen8internal9evaluatorINS_15PlainObjectBaseINS_5ArrayIyLin1ELi1ELi0ELin1ELi1EEEEEE8coeffRefEx"
 "_ZN5Eigen8internal9evaluatorINS_15PlainObjectBaseINS_5ArrayIyLin1ELi1ELi0ELin1ELi1EEEEEEC2ERKS5_"
 "_ZN5Eigen8internal9evaluatorINS_15PlainObjectBaseINS_5ArrayIyLin1ELi1ELi0ELin1ELi1EEEEEED2Ev"
 "_ZN5Eigen8internal9evaluatorINS_15PlainObjectBaseINS_6MatrixIbLin1ELi1ELi0ELin1ELi1EEEEEE8coeffRefEx"
 "_ZN5Eigen8internal9evaluatorINS_15PlainObjectBaseINS_6MatrixIbLin1ELi1ELi0ELin1ELi1EEEEEEC2ERKS5_"
 "_ZN5Eigen8internal9evaluatorINS_15PlainObjectBaseINS_6MatrixIbLin1ELi1ELi0ELin1ELi1EEEEEED2Ev"
 "_ZN5Eigen8internal9evaluatorINS_15PlainObjectBaseINS_6MatrixIdLin1ELi1ELi0ELin1ELi1EEEEEE8coeffRefEx"
 "_ZN5Eigen8internal9evaluatorINS_15PlainObjectBaseINS_6MatrixIdLin1ELi1ELi0ELin1ELi1EEEEEEC2ERKS5_"
 "_ZN5Eigen8internal9evaluatorINS_15PlainObjectBaseINS_6MatrixIdLin1ELi1ELi0ELin1ELi1EEEEEED2Ev"
 "_ZN5Eigen8internal9evaluatorINS_15PlainObjectBaseINS_6MatrixIdLin1ELin1ELi0ELin1ELin1EEEEEE8coeffRefEx"
 "_ZN5Eigen8internal9evaluatorINS_15PlainObjectBaseINS_6MatrixIdLin1ELin1ELi0ELin1ELin1EEEEEE8coeffRefExx"
 "_ZN5Eigen8internal9evaluatorINS_15PlainObjectBaseINS_6MatrixIdLin1ELin1ELi0ELin1ELin1EEEEEEC2ERKS5_"
 "_ZN5Eigen8internal9evaluatorINS_15PlainObjectBaseINS_6MatrixIdLin1ELin1ELi0ELin1ELin1EEEEEED2Ev"
 "_ZN5Eigen8internal9evaluatorINS_15PlainObjectBaseINS_6MatrixIiLin1ELin1ELi0ELin1ELin1EEEEEE8coeffRefEx"
 "_ZN5Eigen8internal9evaluatorINS_15PlainObjectBaseINS_6MatrixIiLin1ELin1ELi0ELin1ELin1EEEEEEC2ERKS5_"
 "_ZN5Eigen8internal9evaluatorINS_15PlainObjectBaseINS_6MatrixIiLin1ELin1ELi0ELin1ELin1EEEEEED2Ev"
 "_ZN5Eigen8internal9evaluatorINS_15PlainObjectBaseINS_6MatrixIN5CppAD2ADIdEELin1ELin1ELi0ELin1ELin1EEEEEE8coeffRefExx"
 "_ZN5Eigen8internal9evaluatorINS_15PlainObjectBaseINS_6MatrixIN5CppAD2ADIdEELin1ELin1ELi0ELin1ELin1EEEEEEC2ERKS8_"
 "_ZN5Eigen8internal9evaluatorINS_15PlainObjectBaseINS_6MatrixIN5CppAD2ADIdEELin1ELin1ELi0ELin1ELin1EEEEEED2Ev"
 "_ZN5Eigen8internal9evaluatorINS_15PlainObjectBaseINS_6MatrixIN5CppAD2ADINS5_IdEEEELin1ELin1ELi0ELin1ELin1EEEEEE8coeffRefExx"
 "_ZN5Eigen8internal9evaluatorINS_15PlainObjectBaseINS_6MatrixIN5CppAD2ADINS5_IdEEEELin1ELin1ELi0ELin1ELin1EEEEEEC2ERKS9_"
 "_ZN5Eigen8internal9evaluatorINS_15PlainObjectBaseINS_6MatrixIN5CppAD2ADINS5_IdEEEELin1ELin1ELi0ELin1ELin1EEEEEED2Ev"
 "_ZN5Eigen8internal9evaluatorINS_15PlainObjectBaseINS_6MatrixIN5CppAD2ADINS5_INS5_IdEEEEEELin1ELin1ELi0ELin1ELin1EEEEEE8coeffRefExx"
 "_ZN5Eigen8internal9evaluatorINS_15PlainObjectBaseINS_6MatrixIN5CppAD2ADINS5_INS5_IdEEEEEELin1ELin1ELi0ELin1ELin1EEEEEEC2ERKSA_"
 "_ZN5Eigen8internal9evaluatorINS_15PlainObjectBaseINS_6MatrixIN5CppAD2ADINS5_INS5_IdEEEEEELin1ELin1ELi0ELin1ELin1EEEEEED2Ev"
 "_ZN5Eigen8internal9evaluatorINS_16PartialReduxExprIKNS_12CwiseUnaryOpINS0_13scalar_abs_opIdEEKNS_6MatrixIdLin1ELin1ELi0ELin1ELin1EEEEENS0_10member_sumIdEELi0EEEEC1ESD_"
 "_ZN5Eigen8internal9evaluatorINS_16PartialReduxExprIKNS_12CwiseUnaryOpINS0_13scalar_abs_opIdEEKNS_6MatrixIdLin1ELin1ELi0ELin1ELin1EEEEENS0_10member_sumIdEELi0EEEED1Ev"
 "_ZN5Eigen8internal9evaluatorINS_16PartialReduxExprINS_6MatrixIdLin1ELin1ELi0ELin1ELin1EEENS0_10member_sumIdEELi1EEEEC1ES7_"
 "_ZN5Eigen8internal9evaluatorINS_16PartialReduxExprINS_6MatrixIdLin1ELin1ELi0ELin1ELin1EEENS0_10member_sumIdEELi1EEEED1Ev"
 "_ZN5Eigen8internal9evaluatorINS_3MapINS_6MatrixIdLin1ELi1ELi0ELin1ELi1EEELi0ENS_6StrideILi0ELi0EEEEEEC1ERKS7_"
 "_ZN5Eigen8internal9evaluatorINS_3MapINS_6MatrixIdLin1ELi1ELi0ELin1ELi1EEELi0ENS_6StrideILi0ELi0EEEEEEC2ERKS7_"
 "_ZN5Eigen8internal9evaluatorINS_3MapINS_6MatrixIdLin1ELi1ELi0ELin1ELi1EEELi0ENS_6StrideILi0ELi0EEEEEED1Ev"
 "_ZN5Eigen8internal9evaluatorINS_3MapINS_6MatrixIdLin1ELi1ELi0ELin1ELi1EEELi0ENS_6StrideILi0ELi0EEEEEED2Ev"
 "_ZN5Eigen8internal9evaluatorINS_5ArrayIbLin1ELi1ELi0ELin1ELi1EEEEC1ERKS3_"
 "_ZN5Eigen8internal9evaluatorINS_5ArrayIbLin1ELi1ELi0ELin1ELi1EEEEC2ERKS3_"
 "_ZN5Eigen8internal9evaluatorINS_5ArrayIbLin1ELi1ELi0ELin1ELi1EEEED1Ev"
 "_ZN5Eigen8internal9evaluatorINS_5ArrayIbLin1ELi1ELi0ELin1ELi1EEEED2Ev"
 "_ZN5Eigen8internal9evaluatorINS_5ArrayIdLin1ELi1ELi0ELin1ELi1EEEEC1ERKS3_"
 "_ZN5Eigen8internal9evaluatorINS_5ArrayIdLin1ELi1ELi0ELin1ELi1EEEEC2ERKS3_"
 "_ZN5Eigen8internal9evaluatorINS_5ArrayIdLin1ELi1ELi0ELin1ELi1EEEED1Ev"
 "_ZN5Eigen8internal9evaluatorINS_5ArrayIdLin1ELi1ELi0ELin1ELi1EEEED2Ev"
 "_ZN5Eigen8internal9evaluatorINS_5ArrayIdLin1ELin1ELi0ELin1ELin1EEEEC1ERKS3_"
 "_ZN5Eigen8internal9evaluatorINS_5ArrayIdLin1ELin1ELi0ELin1ELin1EEEED1Ev"
 "_ZN5Eigen8internal9evaluatorINS_5ArrayIiLin1ELi1ELi0ELin1ELi1EEEEC1ERKS3_"
 "_ZN5Eigen8internal9evaluatorINS_5ArrayIiLin1ELi1ELi0ELin1ELi1EEEED1Ev"
 "_ZN5Eigen8internal9evaluatorINS_5ArrayIN5CppAD2ADIdEELin1ELi1ELi0ELin1ELi1EEEEC1ERKS6_"
 "_ZN5Eigen8internal9evaluatorINS_5ArrayIN5CppAD2ADIdEELin1ELi1ELi0ELin1ELi1EEEEC2ERKS6_"
 "_ZN5Eigen8internal9evaluatorINS_5ArrayIN5CppAD2ADIdEELin1ELi1ELi0ELin1ELi1EEEED1Ev"
 "_ZN5Eigen8internal9evaluatorINS_5ArrayIN5CppAD2ADIdEELin1ELi1ELi0ELin1ELi1EEEED2Ev"
 "_ZN5Eigen8internal9evaluatorINS_5ArrayIN5CppAD2ADIdEELin1ELin1ELi0ELin1ELin1EEEEC1ERKS6_"
 "_ZN5Eigen8internal9evaluatorINS_5ArrayIN5CppAD2ADIdEELin1ELin1ELi0ELin1ELin1EEEED1Ev"
 "_ZN5Eigen8internal9evaluatorINS_5ArrayIN5CppAD2ADINS4_IdEEEELin1ELi1ELi0ELin1ELi1EEEEC1ERKS7_"
 "_ZN5Eigen8internal9evaluatorINS_5ArrayIN5CppAD2ADINS4_IdEEEELin1ELi1ELi0ELin1ELi1EEEEC2ERKS7_"
 "_ZN5Eigen8internal9evaluatorINS_5ArrayIN5CppAD2ADINS4_IdEEEELin1ELi1ELi0ELin1ELi1EEEED1Ev"
 "_ZN5Eigen8internal9evaluatorINS_5ArrayIN5CppAD2ADINS4_IdEEEELin1ELi1ELi0ELin1ELi1EEEED2Ev"
 "_ZN5Eigen8internal9evaluatorINS_5ArrayIN5CppAD2ADINS4_IdEEEELin1ELin1ELi0ELin1ELin1EEEEC1ERKS7_"
 "_ZN5Eigen8internal9evaluatorINS_5ArrayIN5CppAD2ADINS4_IdEEEELin1ELin1ELi0ELin1ELin1EEEED1Ev"
 "_ZN5Eigen8internal9evaluatorINS_5ArrayIN5CppAD2ADINS4_INS4_IdEEEEEELin1ELi1ELi0ELin1ELi1EEEEC1ERKS8_"
 "_ZN5Eigen8internal9evaluatorINS_5ArrayIN5CppAD2ADINS4_INS4_IdEEEEEELin1ELi1ELi0ELin1ELi1EEEEC2ERKS8_"
 "_ZN5Eigen8internal9evaluatorINS_5ArrayIN5CppAD2ADINS4_INS4_IdEEEEEELin1ELi1ELi0ELin1ELi1EEEED1Ev"
 "_ZN5Eigen8internal9evaluatorINS_5ArrayIN5CppAD2ADINS4_INS4_IdEEEEEELin1ELi1ELi0ELin1ELi1EEEED2Ev"
 "_ZN5Eigen8internal9evaluatorINS_5ArrayIN5CppAD2ADINS4_INS4_IdEEEEEELin1ELin1ELi0ELin1ELin1EEEEC1ERKS8_"
 "_ZN5Eigen8internal9evaluatorINS_5ArrayIN5CppAD2ADINS4_INS4_IdEEEEEELin1ELin1ELi0ELin1ELin1EEEED1Ev"
 "_ZN5Eigen8internal9evaluatorINS_5ArrayIN8tmbutils6matrixIdEELin1ELi1ELi0ELin1ELi1EEEEC1ERKS6_"
 "_ZN5Eigen8internal9evaluatorINS_5ArrayIN8tmbutils6matrixIdEELin1ELi1ELi0ELin1ELi1EEEED1Ev"
 "_ZN5Eigen8internal9evaluatorINS_5ArrayIN8tmbutils6vectorIdEELin1ELi1ELi0ELin1ELi1EEEEC1ERKS6_"
 "_ZN5Eigen8internal9evaluatorINS_5ArrayIN8tmbutils6vectorIdEELin1ELi1ELi0ELin1ELi1EEEED1Ev"
 "_ZN5Eigen8internal9evaluatorINS_5ArrayIN8tmbutils6vectorIiEELin1ELi1ELi0ELin1ELi1EEEEC1ERKS6_"
 "_ZN5Eigen8internal9evaluatorINS_5ArrayIN8tmbutils6vectorIiEELin1ELi1ELi0ELin1ELi1EEEED1Ev"
 "_ZN5Eigen8internal9evaluatorINS_5ArrayIN8tmbutils6vectorIyEELin1ELi1ELi0ELin1ELi1EEEEC1ERKS6_"
 "_ZN5Eigen8internal9evaluatorINS_5ArrayIN8tmbutils6vectorIyEELin1ELi1ELi0ELin1ELi1EEEED1Ev"
 "_ZN5Eigen8internal9evaluatorINS_5ArrayINS_6MatrixIdLin1ELi1ELi0ELin1ELi1EEELin1ELi1ELi0ELin1ELi1EEEEC1ERKS5_"
 "_ZN5Eigen8internal9evaluatorINS_5ArrayINS_6MatrixIdLin1ELi1ELi0ELin1ELi1EEELin1ELi1ELi0ELin1ELi1EEEED1Ev"
 "_ZN5Eigen8internal9evaluatorINS_5ArrayIPKcLin1ELi1ELi0ELin1ELi1EEEEC1ERKS5_"
 "_ZN5Eigen8internal9evaluatorINS_5ArrayIPKcLin1ELi1ELi0ELin1ELi1EEEED1Ev"
 "_ZN5Eigen8internal9evaluatorINS_5ArrayIPN5CppAD5ADFunIdEELin1ELi1ELi0ELin1ELi1EEEEC1ERKS7_"
 "_ZN5Eigen8internal9evaluatorINS_5ArrayIPN5CppAD5ADFunIdEELin1ELi1ELi0ELin1ELi1EEEED1Ev"
 "_ZN5Eigen8internal9evaluatorINS_5ArrayIyLin1ELi1ELi0ELin1ELi1EEEEC1ERKS3_"
 "_ZN5Eigen8internal9evaluatorINS_5ArrayIyLin1ELi1ELi0ELin1ELi1EEEED1Ev"
 "_ZN5Eigen8internal9evaluatorINS_5BlockIKNS_12CwiseUnaryOpINS0_13scalar_abs_opIdEEKNS_6MatrixIdLin1ELin1ELi0ELin1ELin1EEEEELin1ELi1ELb1EEEEC1ERKSB_"
 "_ZN5Eigen8internal9evaluatorINS_5BlockIKNS_12CwiseUnaryOpINS0_13scalar_abs_opIdEEKNS_6MatrixIdLin1ELin1ELi0ELin1ELin1EEEEELin1ELi1ELb1EEEED1Ev"
 "_ZN5Eigen8internal9evaluatorINS_5BlockIKNS_14CwiseNullaryOpINS0_18scalar_identity_opIdEENS_6MatrixIdLin1ELin1ELi0ELin1ELin1EEEEELi1ELin1ELb0EEEEC1ERKSA_"
 "_ZN5Eigen8internal9evaluatorINS_5BlockIKNS_14CwiseNullaryOpINS0_18scalar_identity_opIdEENS_6MatrixIdLin1ELin1ELi0ELin1ELin1EEEEELi1ELin1ELb0EEEED1Ev"
 "_ZN5Eigen8internal9evaluatorINS_5BlockIKNS_6MatrixIdLin1ELin1ELi0ELin1ELin1EEELi1ELin1ELb0EEEEC1ERKS6_"
 "_ZN5Eigen8internal9evaluatorINS_5BlockIKNS_6MatrixIdLin1ELin1ELi0ELin1ELin1EEELi1ELin1ELb0EEEEC2ERKS6_"
 "_ZN5Eigen8internal9evaluatorINS_5BlockIKNS_6MatrixIdLin1ELin1ELi0ELin1ELin1EEELi1ELin1ELb0EEEED1Ev"
 "_ZN5Eigen8internal9evaluatorINS_5BlockIKNS_6MatrixIdLin1ELin1ELi0ELin1ELin1EEELi1ELin1ELb0EEEED2Ev"
 "_ZN5Eigen8internal9evaluatorINS_5BlockIKNS_6MatrixIdLin1ELin1ELi0ELin1ELin1EEELin1ELi1ELb1EEEEC2ERKS6_"
 "_ZN5Eigen8internal9evaluatorINS_5BlockIKNS_6MatrixIdLin1ELin1ELi0ELin1ELin1EEELin1ELi1ELb1EEEED2Ev"
 "_ZN5Eigen8internal9evaluatorINS_5BlockIKNS_6MatrixIdLin1ELin1ELi0ELin1ELin1EEELin1ELin1ELb0EEEEC1ERKS6_"
 "_ZN5Eigen8internal9evaluatorINS_5BlockIKNS_6MatrixIdLin1ELin1ELi0ELin1ELin1EEELin1ELin1ELb0EEEED1Ev"
 "_ZN5Eigen8internal9evaluatorINS_5BlockIKNS2_INS2_INS_3MapINS_6MatrixIdLin1ELin1ELi0ELin1ELin1EEELi0ENS_6StrideILi0ELi0EEEEELin1ELin1ELb0EEELin1ELin1ELb0EEELi1ELin1ELb0EEEEC2ERKSC_"
 "_ZN5Eigen8internal9evaluatorINS_5BlockIKNS2_INS2_INS_3MapINS_6MatrixIdLin1ELin1ELi0ELin1ELin1EEELi0ENS_6StrideILi0ELi0EEEEELin1ELin1ELb0EEELin1ELin1ELb0EEELi1ELin1ELb0EEEED2Ev"
 "_ZN5Eigen8internal9evaluatorINS_5BlockIKNS2_INS2_INS_3MapINS_6MatrixIdLin1ELin1ELi0ELin1ELin1EEELi0ENS_6StrideILi0ELi0EEEEELin1ELin1ELb0EEELin1ELin1ELb0EEELin1ELi1ELb1EEEEC2ERKSC_"
 "_ZN5Eigen8internal9evaluatorINS_5BlockIKNS2_INS2_INS_3MapINS_6MatrixIdLin1ELin1ELi0ELin1ELin1EEELi0ENS_6StrideILi0ELi0EEEEELin1ELin1ELb0EEELin1ELin1ELb0EEELin1ELi1ELb1EEEED2Ev"
 "_ZN5Eigen8internal9evaluatorINS_5BlockINS_5ArrayIdLin1ELi1ELi0ELin1ELi1EEELin1ELi1ELb0EEEEC1ERKS5_"
 "_ZN5Eigen8internal9evaluatorINS_5BlockINS_5ArrayIdLin1ELi1ELi0ELin1ELi1EEELin1ELi1ELb0EEEED1Ev"
 "_ZN5Eigen8internal9evaluatorINS_5BlockINS_5ArrayIN5CppAD2ADIdEELin1ELi1ELi0ELin1ELi1EEELin1ELi1ELb0EEEEC1ERKS8_"
 "_ZN5Eigen8internal9evaluatorINS_5BlockINS_5ArrayIN5CppAD2ADIdEELin1ELi1ELi0ELin1ELi1EEELin1ELi1ELb0EEEED1Ev"
 "_ZN5Eigen8internal9evaluatorINS_5BlockINS_5ArrayIN5CppAD2ADINS5_IdEEEELin1ELi1ELi0ELin1ELi1EEELin1ELi1ELb0EEEEC1ERKS9_"
 "_ZN5Eigen8internal9evaluatorINS_5BlockINS_5ArrayIN5CppAD2ADINS5_IdEEEELin1ELi1ELi0ELin1ELi1EEELin1ELi1ELb0EEEED1Ev"
 "_ZN5Eigen8internal9evaluatorINS_5BlockINS_5ArrayIN5CppAD2ADINS5_INS5_IdEEEEEELin1ELi1ELi0ELin1ELi1EEELin1ELi1ELb0EEEEC1ERKSA_"
 "_ZN5Eigen8internal9evaluatorINS_5BlockINS_5ArrayIN5CppAD2ADINS5_INS5_IdEEEEEELin1ELi1ELi0ELin1ELi1EEELin1ELi1ELb0EEEED1Ev"
 "_ZN5Eigen8internal9evaluatorINS_5BlockINS_5ArrayIN8tmbutils6matrixIdEELin1ELi1ELi0ELin1ELi1EEELin1ELi1ELb0EEEEC1ERKS8_"
 "_ZN5Eigen8internal9evaluatorINS_5BlockINS_5ArrayIN8tmbutils6matrixIdEELin1ELi1ELi0ELin1ELi1EEELin1ELi1ELb0EEEED1Ev"
 "_ZN5Eigen8internal9evaluatorINS_5BlockINS_6MatrixIdLin1ELin1ELi0ELin1ELin1EEELi1ELin1ELb0EEEEC1ERKS5_"
 "_ZN5Eigen8internal9evaluatorINS_5BlockINS_6MatrixIdLin1ELin1ELi0ELin1ELin1EEELi1ELin1ELb0EEEED1Ev"
 "_ZN5Eigen8internal9evaluatorINS_5BlockINS2_INS_3MapINS_6MatrixIdLin1ELin1ELi0ELin1ELin1EEELi0ENS_6StrideILi0ELi0EEEEELin1ELin1ELb0EEELi1ELin1ELb0EEEEC1ERKSA_"
 "_ZN5Eigen8internal9evaluatorINS_5BlockINS2_INS_3MapINS_6MatrixIdLin1ELin1ELi0ELin1ELin1EEELi0ENS_6StrideILi0ELi0EEEEELin1ELin1ELb0EEELi1ELin1ELb0EEEED1Ev"
 "_ZN5Eigen8internal9evaluatorINS_5BlockINS2_INS_3MapINS_6MatrixIdLin1ELin1ELi0ELin1ELin1EEELi0ENS_6StrideILi0ELi0EEEEELin1ELin1ELb0EEELin1ELin1ELb0EEEEC1ERKSA_"
 "_ZN5Eigen8internal9evaluatorINS_5BlockINS2_INS_3MapINS_6MatrixIdLin1ELin1ELi0ELin1ELin1EEELi0ENS_6StrideILi0ELi0EEEEELin1ELin1ELb0EEELin1ELin1ELb0EEEED1Ev"
 "_ZN5Eigen8internal9evaluatorINS_5BlockINS2_INS2_INS_3MapINS_6MatrixIdLin1ELin1ELi0ELin1ELin1EEELi0ENS_6StrideILi0ELi0EEEEELin1ELin1ELb0EEELi1ELin1ELb0EEELi1ELin1ELb0EEEEC1ERKSB_"
 "_ZN5Eigen8internal9evaluatorINS_5BlockINS2_INS2_INS_3MapINS_6MatrixIdLin1ELin1ELi0ELin1ELin1EEELi0ENS_6StrideILi0ELi0EEEEELin1ELin1ELb0EEELi1ELin1ELb0EEELi1ELin1ELb0EEEED1Ev"
 "_ZN5Eigen8internal9evaluatorINS_5BlockINS2_INS2_INS_3MapINS_6MatrixIdLin1ELin1ELi0ELin1ELin1EEELi0ENS_6StrideILi0ELi0EEEEELin1ELin1ELb0EEELin1ELi1ELb1EEELin1ELi1ELb0EEEEC1ERKSB_"
 "_ZN5Eigen8internal9evaluatorINS_5BlockINS2_INS2_INS_3MapINS_6MatrixIdLin1ELin1ELi0ELin1ELin1EEELi0ENS_6StrideILi0ELi0EEEEELin1ELin1ELb0EEELin1ELi1ELb1EEELin1ELi1ELb0EEEEC2ERKSB_"
 "_ZN5Eigen8internal9evaluatorINS_5BlockINS2_INS2_INS_3MapINS_6MatrixIdLin1ELin1ELi0ELin1ELin1EEELi0ENS_6StrideILi0ELi0EEEEELin1ELin1ELb0EEELin1ELi1ELb1EEELin1ELi1ELb0EEEED1Ev"
 "_ZN5Eigen8internal9evaluatorINS_5BlockINS2_INS2_INS_3MapINS_6MatrixIdLin1ELin1ELi0ELin1ELin1EEELi0ENS_6StrideILi0ELi0EEEEELin1ELin1ELb0EEELin1ELi1ELb1EEELin1ELi1ELb0EEEED2Ev"
 "_ZN5Eigen8internal9evaluatorINS_5BlockINS2_INS2_INS_3MapINS_6MatrixIdLin1ELin1ELi0ELin1ELin1EEELi0ENS_6StrideILi0ELi0EEEEELin1ELin1ELb0EEELin1ELin1ELb0EEELi1ELin1ELb0EEEEC1ERKSB_"
 "_ZN5Eigen8internal9evaluatorINS_5BlockINS2_INS2_INS_3MapINS_6MatrixIdLin1ELin1ELi0ELin1ELin1EEELi0ENS_6StrideILi0ELi0EEEEELin1ELin1ELb0EEELin1ELin1ELb0EEELi1ELin1ELb0EEEED1Ev"
 "_ZN5Eigen8internal9evaluatorINS_5BlockINS2_INS2_INS_3MapINS_6MatrixIdLin1ELin1ELi0ELin1ELin1EEELi0ENS_6StrideILi0ELi0EEEEELin1ELin1ELb0EEELin1ELin1ELb0EEELin1ELi1ELb1EEEEC1ERKSB_"
 "_ZN5Eigen8internal9evaluatorINS_5BlockINS2_INS2_INS_3MapINS_6MatrixIdLin1ELin1ELi0ELin1ELin1EEELi0ENS_6StrideILi0ELi0EEEEELin1ELin1ELb0EEELin1ELin1ELb0EEELin1ELi1ELb1EEEED1Ev"
 "_ZN5Eigen8internal9evaluatorINS_6MatrixIbLin1ELi1ELi0ELin1ELi1EEEEC1ERKS3_"
 "_ZN5Eigen8internal9evaluatorINS_6MatrixIbLin1ELi1ELi0ELin1ELi1EEEED1Ev"
 "_ZN5Eigen8internal9evaluatorINS_6MatrixIdLin1ELi1ELi0ELin1ELi1EEEEC1ERKS3_"
 "_ZN5Eigen8internal9evaluatorINS_6MatrixIdLin1ELi1ELi0ELin1ELi1EEEEC2ERKS3_"
 "_ZN5Eigen8internal9evaluatorINS_6MatrixIdLin1ELi1ELi0ELin1ELi1EEEED1Ev"
 "_ZN5Eigen8internal9evaluatorINS_6MatrixIdLin1ELi1ELi0ELin1ELi1EEEED2Ev"
 "_ZN5Eigen8internal9evaluatorINS_6MatrixIdLin1ELin1ELi0ELin1ELin1EEEEC1ERKS3_"
 "_ZN5Eigen8internal9evaluatorINS_6MatrixIdLin1ELin1ELi0ELin1ELin1EEEEC2ERKS3_"
 "_ZN5Eigen8internal9evaluatorINS_6MatrixIdLin1ELin1ELi0ELin1ELin1EEEED1Ev"
 "_ZN5Eigen8internal9evaluatorINS_6MatrixIdLin1ELin1ELi0ELin1ELin1EEEED2Ev"
 "_ZN5Eigen8internal9evaluatorINS_6MatrixIiLin1ELin1ELi0ELin1ELin1EEEEC1ERKS3_"
 "_ZN5Eigen8internal9evaluatorINS_6MatrixIiLin1ELin1ELi0ELin1ELin1EEEED1Ev"
 "_ZN5Eigen8internal9evaluatorINS_6MatrixIN5CppAD2ADIdEELin1ELin1ELi0ELin1ELin1EEEEC1ERKS6_"
 "_ZN5Eigen8internal9evaluatorINS_6MatrixIN5CppAD2ADIdEELin1ELin1ELi0ELin1ELin1EEEED1Ev"
 "_ZN5Eigen8internal9evaluatorINS_6MatrixIN5CppAD2ADINS4_IdEEEELin1ELin1ELi0ELin1ELin1EEEEC1ERKS7_"
 "_ZN5Eigen8internal9evaluatorINS_6MatrixIN5CppAD2ADINS4_IdEEEELin1ELin1ELi0ELin1ELin1EEEED1Ev"
 "_ZN5Eigen8internal9evaluatorINS_6MatrixIN5CppAD2ADINS4_INS4_IdEEEEEELin1ELin1ELi0ELin1ELin1EEEEC1ERKS8_"
 "_ZN5Eigen8internal9evaluatorINS_6MatrixIN5CppAD2ADINS4_INS4_IdEEEEEELin1ELin1ELi0ELin1ELin1EEEED1Ev"
 "_ZN5Eigen8internal9evaluatorINS_7ProductINS_5BlockINS3_INS_3MapINS_6MatrixIdLin1ELin1ELi0ELin1ELin1EEELi0ENS_6StrideILi0ELi0EEEEELin1ELin1ELb0EEELin1ELin1ELb0EEESB_Li1EEEEC1ERKSC_"
 "_ZN5Eigen8internal9evaluatorINS_7ProductINS_5BlockINS3_INS_3MapINS_6MatrixIdLin1ELin1ELi0ELin1ELin1EEELi0ENS_6StrideILi0ELi0EEEEELin1ELin1ELb0EEELin1ELin1ELb0EEESB_Li1EEEED1Ev"
 "_ZN5Eigen8internal9evaluatorINS_7ProductINS_6MatrixIdLin1ELin1ELi0ELin1ELin1EEES4_Li1EEEEC1ERKS5_"
 "_ZN5Eigen8internal9evaluatorINS_7ProductINS_6MatrixIdLin1ELin1ELi0ELin1ELin1EEES4_Li1EEEED1Ev"
 "_ZN5Eigen8internal9evaluatorINS_9TransposeIKNS_5BlockIKNS_6MatrixIdLin1ELin1ELi0ELin1ELin1EEELi1ELin1ELb0EEEEEEC2ERKS9_"
 "_ZN5Eigen8internal9evaluatorINS_9TransposeIKNS_5BlockIKNS_6MatrixIdLin1ELin1ELi0ELin1ELin1EEELi1ELin1ELb0EEEEEED2Ev"
 "_ZN5Eigen8internal9evaluatorINS_9TransposeIKNS_5BlockIKNS3_INS3_INS_3MapINS_6MatrixIdLin1ELin1ELi0ELin1ELin1EEELi0ENS_6StrideILi0ELi0EEEEELin1ELin1ELb0EEELin1ELin1ELb0EEELi1ELin1ELb0EEEEEEC2ERKSF_"
 "_ZN5Eigen8internal9evaluatorINS_9TransposeIKNS_5BlockIKNS3_INS3_INS_3MapINS_6MatrixIdLin1ELin1ELi0ELin1ELin1EEELi0ENS_6StrideILi0ELi0EEEEELin1ELin1ELb0EEELin1ELin1ELb0EEELi1ELin1ELb0EEEEEED2Ev"
 "_ZN5Eigen8internal9evaluatorINS_9TransposeINS_5BlockINS_6MatrixIdLin1ELin1ELi0ELin1ELin1EEELi1ELin1ELb0EEEEEEC1ERKS7_"
 "_ZN5Eigen8internal9evaluatorINS_9TransposeINS_5BlockINS_6MatrixIdLin1ELin1ELi0ELin1ELin1EEELi1ELin1ELb0EEEEEED1Ev"
 "_ZN5Eigen8internal9gebp_maddINS0_11conj_helperIddLb0ELb0EEEddddEEvRKT_RT0_RT1_RT2_RT3_"
 "_ZN5Eigen9ArrayBaseINS_12ArrayWrapperIKNS_5BlockIKNS_6MatrixIdLin1ELin1ELi0ELin1ELin1EEELin1ELin1ELb0EEEEEEC2Ev"
 "_ZN5Eigen9ArrayBaseINS_12ArrayWrapperIKNS_6MatrixIdLin1ELin1ELi0ELin1ELin1EEEEEEC2Ev"
 "_ZN5Eigen9ArrayBaseINS_12ArrayWrapperINS_6MatrixIdLin1ELin1ELi0ELin1ELin1EEEEEEC2Ev"
 "_ZN5Eigen9ArrayBaseINS_12CwiseUnaryOpINS_8internal13scalar_abs_opIdEEKNS_12ArrayWrapperINS_6MatrixIdLin1ELin1ELi0ELin1ELin1EEEEEEEEC2Ev"
 "_ZN5Eigen9ArrayBaseINS_12CwiseUnaryOpINS_8internal14scalar_cast_opIbiEEKNS_5ArrayIbLin1ELi1ELi0ELin1ELi1EEEEEEC2Ev"
 "_ZN5Eigen9ArrayBaseINS_13CwiseBinaryOpINS_8internal13scalar_sum_opIddEEKNS_5ArrayIdLin1ELi1ELi0ELin1ELi1EEES7_EEEC2Ev"
 "_ZN5Eigen9ArrayBaseINS_13CwiseBinaryOpINS_8internal17scalar_product_opIddEEKNS_12ArrayWrapperIKNS_5BlockIKNS_6MatrixIdLin1ELin1ELi0ELin1ELin1EEELin1ELin1ELb0EEEEEKNS5_IS9_EEEEEC2Ev"
 "_ZN5Eigen9ArrayBaseINS_13CwiseBinaryOpINS_8internal17scalar_product_opIN5CppAD2ADIdEES6_EEKNS_5ArrayIS6_Lin1ELi1ELi0ELin1ELi1EEESA_EEEC2Ev"
 "_ZN5Eigen9ArrayBaseINS_13CwiseBinaryOpINS_8internal17scalar_product_opIN5CppAD2ADINS5_IdEEEES7_EEKNS_5ArrayIS7_Lin1ELi1ELi0ELin1ELi1EEESB_EEEC2Ev"
 "_ZN5Eigen9ArrayBaseINS_13CwiseBinaryOpINS_8internal17scalar_product_opIN5CppAD2ADINS5_INS5_IdEEEEEES8_EEKNS_5ArrayIS8_Lin1ELi1ELi0ELin1ELi1EEESC_EEEC2Ev"
 "_ZN5Eigen9ArrayBaseINS_14CwiseNullaryOpINS_8internal18scalar_constant_opIdEENS_5ArrayIdLin1ELi1ELi0ELin1ELi1EEEEEEC2Ev"
 "_ZN5Eigen9ArrayBaseINS_5ArrayIbLin1ELi1ELi0ELin1ELi1EEEEC2Ev"
 "_ZN5Eigen9ArrayBaseINS_5ArrayIdLin1ELi1ELi0ELin1ELi1EEEEC2Ev"
 "_ZN5Eigen9ArrayBaseINS_5ArrayIdLin1ELin1ELi0ELin1ELin1EEEEC2Ev"
 "_ZN5Eigen9ArrayBaseINS_5ArrayIiLin1ELi1ELi0ELin1ELi1EEEEC2Ev"
 "_ZN5Eigen9ArrayBaseINS_5ArrayIN5CppAD2ADIdEELin1ELi1ELi0ELin1ELi1EEEEC2Ev"
 "_ZN5Eigen9ArrayBaseINS_5ArrayIN5CppAD2ADIdEELin1ELin1ELi0ELin1ELin1EEEEC2Ev"
 "_ZN5Eigen9ArrayBaseINS_5ArrayIN5CppAD2ADINS3_IdEEEELin1ELi1ELi0ELin1ELi1EEEEC2Ev"
 "_ZN5Eigen9ArrayBaseINS_5ArrayIN5CppAD2ADINS3_IdEEEELin1ELin1ELi0ELin1ELin1EEEEC2Ev"
 "_ZN5Eigen9ArrayBaseINS_5ArrayIN5CppAD2ADINS3_INS3_IdEEEEEELin1ELi1ELi0ELin1ELi1EEEEC2Ev"
 "_ZN5Eigen9ArrayBaseINS_5ArrayIN5CppAD2ADINS3_INS3_IdEEEEEELin1ELin1ELi0ELin1ELin1EEEEC2Ev"
 "_ZN5Eigen9ArrayBaseINS_5ArrayIN8tmbutils6matrixIdEELin1ELi1ELi0ELin1ELi1EEEEC2Ev"
 "_ZN5Eigen9ArrayBaseINS_5ArrayIN8tmbutils6vectorIdEELin1ELi1ELi0ELin1ELi1EEEEC2Ev"
 "_ZN5Eigen9ArrayBaseINS_5ArrayIN8tmbutils6vectorIiEELin1ELi1ELi0ELin1ELi1EEEEC2Ev"
 "_ZN5Eigen9ArrayBaseINS_5ArrayINS_6MatrixIdLin1ELi1ELi0ELin1ELi1EEELin1ELi1ELi0ELin1ELi1EEEEC2Ev"
 "_ZN5Eigen9ArrayBaseINS_5ArrayIPKcLin1ELi1ELi0ELin1ELi1EEEEC2Ev"
 "_ZN5Eigen9ArrayBaseINS_5ArrayIyLin1ELi1ELi0ELin1ELi1EEEEC2Ev"
 "_ZN5Eigen9ArrayBaseINS_5BlockINS_5ArrayIdLin1ELi1ELi0ELin1ELi1EEELin1ELi1ELb0EEEEC2Ev"
 "_ZN5Eigen9ArrayBaseINS_5BlockINS_5ArrayIN5CppAD2ADIdEELin1ELi1ELi0ELin1ELi1EEELin1ELi1ELb0EEEEC2Ev"
 "_ZN5Eigen9ArrayBaseINS_5BlockINS_5ArrayIN5CppAD2ADINS4_IdEEEELin1ELi1ELi0ELin1ELi1EEELin1ELi1ELb0EEEEC2Ev"
 "_ZN5Eigen9ArrayBaseINS_5BlockINS_5ArrayIN5CppAD2ADINS4_INS4_IdEEEEEELin1ELi1ELi0ELin1ELi1EEELin1ELi1ELb0EEEEC2Ev"
 "_ZN5Eigen9ArrayBaseINS_5BlockINS_5ArrayIN8tmbutils6matrixIdEELin1ELi1ELi0ELin1ELi1EEELin1ELi1ELb0EEEEC2Ev"
 "_ZN5Eigen9BlockImplIKNS_12CwiseUnaryOpINS_8internal13scalar_abs_opIdEEKNS_6MatrixIdLin1ELin1ELi0ELin1ELin1EEEEELin1ELi1ELb1ENS_5DenseEEC2ERS9_x"
 "_ZN5Eigen9BlockImplIKNS_14CwiseNullaryOpINS_8internal18scalar_identity_opIdEENS_6MatrixIdLin1ELin1ELi0ELin1ELin1EEEEELi1ELin1ELb0ENS_5DenseEEC2ERS8_x"
 "_ZN5Eigen9BlockImplIKNS_5BlockINS1_INS_3MapINS_6MatrixIdLin1ELin1ELi0ELin1ELin1EEELi0ENS_6StrideILi0ELi0EEEEELin1ELin1ELb0EEELin1ELin1ELb0EEELi1ELin1ELb0ENS_5DenseEEC2ERKSC_"
 "_ZN5Eigen9BlockImplIKNS_5BlockINS1_INS_3MapINS_6MatrixIdLin1ELin1ELi0ELin1ELin1EEELi0ENS_6StrideILi0ELi0EEEEELin1ELin1ELb0EEELin1ELin1ELb0EEELi1ELin1ELb0ENS_5DenseEEC2ERSA_x"
 "_ZN5Eigen9BlockImplIKNS_5BlockINS1_INS_3MapINS_6MatrixIdLin1ELin1ELi0ELin1ELin1EEELi0ENS_6StrideILi0ELi0EEEEELin1ELin1ELb0EEELin1ELin1ELb0EEELin1ELi1ELb1ENS_5DenseEEC2ERKSC_"
 "_ZN5Eigen9BlockImplIKNS_5BlockINS1_INS_3MapINS_6MatrixIdLin1ELin1ELi0ELin1ELin1EEELi0ENS_6StrideILi0ELi0EEEEELin1ELin1ELb0EEELin1ELin1ELb0EEELin1ELi1ELb1ENS_5DenseEEC2ERSA_x"
 "_ZN5Eigen9BlockImplIKNS_6MatrixIdLin1ELin1ELi0ELin1ELin1EEELi1ELin1ELb0ENS_5DenseEEC2ERKS5_"
 "_ZN5Eigen9BlockImplIKNS_6MatrixIdLin1ELin1ELi0ELin1ELin1EEELi1ELin1ELb0ENS_5DenseEEC2ERS3_x"
 "_ZN5Eigen9BlockImplIKNS_6MatrixIdLin1ELin1ELi0ELin1ELin1EEELin1ELi1ELb1ENS_5DenseEEC2ERKS5_"
 "_ZN5Eigen9BlockImplIKNS_6MatrixIdLin1ELin1ELi0ELin1ELin1EEELin1ELi1ELb1ENS_5DenseEEC2ERS3_x"
 "_ZN5Eigen9BlockImplIKNS_6MatrixIdLin1ELin1ELi0ELin1ELin1EEELin1ELin1ELb0ENS_5DenseEEC2ERS3_xxxx"
 "_ZN5Eigen9BlockImplINS_3MapINS_6MatrixIdLin1ELin1ELi0ELin1ELin1EEELi0ENS_6StrideILi0ELi0EEEEELin1ELin1ELb0ENS_5DenseEEC2ERKS8_"
 "_ZN5Eigen9BlockImplINS_3MapINS_6MatrixIdLin1ELin1ELi0ELin1ELin1EEELi0ENS_6StrideILi0ELi0EEEEELin1ELin1ELb0ENS_5DenseEEC2ERS6_xxxx"
 "_ZN5Eigen9BlockImplINS_5ArrayIdLin1ELi1ELi0ELin1ELi1EEELin1ELi1ELb0ENS_5DenseEEC2ERS2_xxxx"
 "_ZN5Eigen9BlockImplINS_5ArrayIN5CppAD2ADIdEELin1ELi1ELi0ELin1ELi1EEELin1ELi1ELb0ENS_5DenseEEC2ERS5_xxxx"
 "_ZN5Eigen9BlockImplINS_5ArrayIN5CppAD2ADINS3_IdEEEELin1ELi1ELi0ELin1ELi1EEELin1ELi1ELb0ENS_5DenseEEC2ERS6_xxxx"
 "_ZN5Eigen9BlockImplINS_5ArrayIN5CppAD2ADINS3_INS3_IdEEEEEELin1ELi1ELi0ELin1ELi1EEELin1ELi1ELb0ENS_5DenseEEC2ERS7_xxxx"
 "_ZN5Eigen9BlockImplINS_5ArrayIN8tmbutils6matrixIdEELin1ELi1ELi0ELin1ELi1EEELin1ELi1ELb0ENS_5DenseEEC2ERS5_xxxx"
 "_ZN5Eigen9BlockImplINS_5BlockINS_3MapINS_6MatrixIdLin1ELin1ELi0ELin1ELin1EEELi0ENS_6StrideILi0ELi0EEEEELin1ELin1ELb0EEELi1ELin1ELb0ENS_5DenseEEC2ERKSA_"
 "_ZN5Eigen9BlockImplINS_5BlockINS_3MapINS_6MatrixIdLin1ELin1ELi0ELin1ELin1EEELi0ENS_6StrideILi0ELi0EEEEELin1ELin1ELb0EEELi1ELin1ELb0ENS_5DenseEEC2ERS8_x"
 "_ZN5Eigen9BlockImplINS_5BlockINS_3MapINS_6MatrixIdLin1ELin1ELi0ELin1ELin1EEELi0ENS_6StrideILi0ELi0EEEEELin1ELin1ELb0EEELin1ELi1ELb1ENS_5DenseEEC2ERKSA_"
 "_ZN5Eigen9BlockImplINS_5BlockINS_3MapINS_6MatrixIdLin1ELin1ELi0ELin1ELin1EEELi0ENS_6StrideILi0ELi0EEEEELin1ELin1ELb0EEELin1ELi1ELb1ENS_5DenseEEC2ERS8_x"
 "_ZN5Eigen9BlockImplINS_5BlockINS_3MapINS_6MatrixIdLin1ELin1ELi0ELin1ELin1EEELi0ENS_6StrideILi0ELi0EEEEELin1ELin1ELb0EEELin1ELin1ELb0ENS_5DenseEEC2ERKSA_"
 "_ZN5Eigen9BlockImplINS_5BlockINS_3MapINS_6MatrixIdLin1ELin1ELi0ELin1ELin1EEELi0ENS_6StrideILi0ELi0EEEEELin1ELin1ELb0EEELin1ELin1ELb0ENS_5DenseEEC2ERS8_xxxx"
 "_ZN5Eigen9BlockImplINS_5BlockINS1_INS_3MapINS_6MatrixIdLin1ELin1ELi0ELin1ELin1EEELi0ENS_6StrideILi0ELi0EEEEELin1ELin1ELb0EEELi1ELin1ELb0EEELi1ELin1ELb0ENS_5DenseEEC2ERKSB_"
 "_ZN5Eigen9BlockImplINS_5BlockINS1_INS_3MapINS_6MatrixIdLin1ELin1ELi0ELin1ELin1EEELi0ENS_6StrideILi0ELi0EEEEELin1ELin1ELb0EEELi1ELin1ELb0EEELi1ELin1ELb0ENS_5DenseEEC2ERS9_xxxx"
 "_ZN5Eigen9BlockImplINS_5BlockINS1_INS_3MapINS_6MatrixIdLin1ELin1ELi0ELin1ELin1EEELi0ENS_6StrideILi0ELi0EEEEELin1ELin1ELb0EEELin1ELi1ELb1EEELin1ELi1ELb0ENS_5DenseEEC2ERKSB_"
 "_ZN5Eigen9BlockImplINS_5BlockINS1_INS_3MapINS_6MatrixIdLin1ELin1ELi0ELin1ELin1EEELi0ENS_6StrideILi0ELi0EEEEELin1ELin1ELb0EEELin1ELi1ELb1EEELin1ELi1ELb0ENS_5DenseEEC2ERS9_xxxx"
 "_ZN5Eigen9BlockImplINS_5BlockINS1_INS_3MapINS_6MatrixIdLin1ELin1ELi0ELin1ELin1EEELi0ENS_6StrideILi0ELi0EEEEELin1ELin1ELb0EEELin1ELin1ELb0EEELi1ELin1ELb0ENS_5DenseEEC2ERS9_x"
 "_ZN5Eigen9BlockImplINS_5BlockINS1_INS_3MapINS_6MatrixIdLin1ELin1ELi0ELin1ELin1EEELi0ENS_6StrideILi0ELi0EEEEELin1ELin1ELb0EEELin1ELin1ELb0EEELin1ELi1ELb1ENS_5DenseEEC2ERS9_x"
 "_ZN5Eigen9BlockImplINS_6MatrixIdLin1ELin1ELi0ELin1ELin1EEELi1ELin1ELb0ENS_5DenseEEC2ERKS4_"
 "_ZN5Eigen9BlockImplINS_6MatrixIdLin1ELin1ELi0ELin1ELin1EEELi1ELin1ELb0ENS_5DenseEEC2ERS2_x"
 "_ZN5Eigen9DenseBaseINS_12ArrayWrapperIKNS_5BlockIKNS_6MatrixIdLin1ELin1ELi0ELin1ELin1EEELin1ELin1ELb0EEEEEEC2Ev"
 "_ZN5Eigen9DenseBaseINS_12ArrayWrapperIKNS_6MatrixIdLin1ELin1ELi0ELin1ELin1EEEEEEC2Ev"
 "_ZN5Eigen9DenseBaseINS_12ArrayWrapperINS_6MatrixIdLin1ELin1ELi0ELin1ELin1EEEEEEC2Ev"
 "_ZN5Eigen9DenseBaseINS_12CwiseUnaryOpINS_8internal13scalar_abs_opIdEEKNS_12ArrayWrapperINS_6MatrixIdLin1ELin1ELi0ELin1ELin1EEEEEEEEC2Ev"
 "_ZN5Eigen9DenseBaseINS_12CwiseUnaryOpINS_8internal13scalar_abs_opIdEEKNS_6MatrixIdLin1ELin1ELi0ELin1ELin1EEEEEEC2Ev"
 "_ZN5Eigen9DenseBaseINS_12CwiseUnaryOpINS_8internal14scalar_cast_opIbiEEKNS_5ArrayIbLin1ELi1ELi0ELin1ELi1EEEEEEC2Ev"
 "_ZN5Eigen9DenseBaseINS_12CwiseUnaryOpINS_8internal14scalar_cast_opIdiEEKNS_3MapINS_6MatrixIdLin1ELi1ELi0ELin1ELi1EEELi0ENS_6StrideILi0ELi0EEEEEEEEC2Ev"
 "_ZN5Eigen9DenseBaseINS_12CwiseUnaryOpINS_8internal14scalar_cast_opIdN5CppAD2ADIdEEEEKNS_3MapINS_6MatrixIdLin1ELi1ELi0ELin1ELi1EEELi0ENS_6StrideILi0ELi0EEEEEEEEC2Ev"
 "_ZN5Eigen9DenseBaseINS_12CwiseUnaryOpINS_8internal14scalar_cast_opIdN5CppAD2ADINS5_IdEEEEEEKNS_3MapINS_6MatrixIdLin1ELi1ELi0ELin1ELi1EEELi0ENS_6StrideILi0ELi0EEEEEEEEC2Ev"
 "_ZN5Eigen9DenseBaseINS_12CwiseUnaryOpINS_8internal14scalar_cast_opIdN5CppAD2ADINS5_INS5_IdEEEEEEEEKNS_3MapINS_6MatrixIdLin1ELi1ELi0ELin1ELi1EEELi0ENS_6StrideILi0ELi0EEEEEEEEC2Ev"
 "_ZN5Eigen9DenseBaseINS_12CwiseUnaryOpINS_8internal21scalar_score_coeff_opIdEEKNS_5BlockINS5_INS5_INS_3MapINS_6MatrixIdLin1ELin1ELi0ELin1ELin1EEELi0ENS_6StrideILi0ELi0EEEEELin1ELin1ELb0EEELin1ELi1ELb1EEELin1ELi1ELb0EEEEEEC2Ev"
 "_ZN5Eigen9DenseBaseINS_13CwiseBinaryOpINS_8internal13scalar_sum_opIddEEKNS_5ArrayIdLin1ELi1ELi0ELin1ELi1EEES7_EEEC2Ev"
 "_ZN5Eigen9DenseBaseINS_13CwiseBinaryOpINS_8internal13scalar_sum_opIddEEKNS_6MatrixIdLin1ELi1ELi0ELin1ELi1EEES7_EEEC2Ev"
 "_ZN5Eigen9DenseBaseINS_13CwiseBinaryOpINS_8internal13scalar_sum_opIddEEKNS_6MatrixIdLin1ELin1ELi0ELin1ELin1EEES7_EEEC2Ev"
 "_ZN5Eigen9DenseBaseINS_13CwiseBinaryOpINS_8internal17scalar_product_opIddEEKNS_12ArrayWrapperIKNS_5BlockIKNS_6MatrixIdLin1ELin1ELi0ELin1ELin1EEELin1ELin1ELb0EEEEEKNS5_IS9_EEEEEC2Ev"
 "_ZN5Eigen9DenseBaseINS_13CwiseBinaryOpINS_8internal17scalar_product_opIddEEKNS_14CwiseNullaryOpINS2_18scalar_constant_opIdEEKNS_6MatrixIdLin1ELi1ELi0ELin1ELi1EEEEEKNS_5BlockINSD_INSD_INS_3MapINS8_IdLin1ELin1ELi0ELin1ELin1EEELi0ENS_6StrideILi0ELi0EEEEELin1ELin1ELb0EEELin1ELi1ELb1EEELin1ELi1ELb0EEEEEEC2Ev"
 "_ZN5Eigen9DenseBaseINS_13CwiseBinaryOpINS_8internal17scalar_product_opIddEEKNS_14CwiseNullaryOpINS2_18scalar_constant_opIdEEKNS_6MatrixIdLin1ELin1ELi0ELin1ELin1EEEEESA_EEEC2Ev"
 "_ZN5Eigen9DenseBaseINS_13CwiseBinaryOpINS_8internal17scalar_product_opIddEEKNS_6MatrixIdLin1ELin1ELi0ELin1ELin1EEEKNS_14CwiseNullaryOpINS2_18scalar_constant_opIdEES7_EEEEEC2Ev"
 "_ZN5Eigen9DenseBaseINS_13CwiseBinaryOpINS_8internal17scalar_product_opIddEEKNS_9TransposeIKNS_5BlockIKNS_6MatrixIdLin1ELin1ELi0ELin1ELin1EEELi1ELin1ELb0EEEEEKNS6_IS9_Lin1ELi1ELb1EEEEEEC2Ev"
 "_ZN5Eigen9DenseBaseINS_13CwiseBinaryOpINS_8internal17scalar_product_opIddEEKNS_9TransposeIKNS_5BlockIKNS6_INS6_INS_3MapINS_6MatrixIdLin1ELin1ELi0ELin1ELin1EEELi0ENS_6StrideILi0ELi0EEEEELin1ELin1ELb0EEELin1ELin1ELb0EEELi1ELin1ELb0EEEEEKNS6_ISF_Lin1ELi1ELb1EEEEEEC2Ev"
 "_ZN5Eigen9DenseBaseINS_13CwiseBinaryOpINS_8internal17scalar_product_opIN5CppAD2ADIdEES6_EEKNS_5ArrayIS6_Lin1ELi1ELi0ELin1ELi1EEESA_EEEC2Ev"
 "_ZN5Eigen9DenseBaseINS_13CwiseBinaryOpINS_8internal17scalar_product_opIN5CppAD2ADINS5_IdEEEES7_EEKNS_5ArrayIS7_Lin1ELi1ELi0ELin1ELi1EEESB_EEEC2Ev"
 "_ZN5Eigen9DenseBaseINS_13CwiseBinaryOpINS_8internal17scalar_product_opIN5CppAD2ADINS5_INS5_IdEEEEEES8_EEKNS_5ArrayIS8_Lin1ELi1ELi0ELin1ELi1EEESC_EEEC2Ev"
 "_ZN5Eigen9DenseBaseINS_13MatrixWrapperIKNS_5ArrayIdLin1ELi1ELi0ELin1ELi1EEEEEEC2Ev"
 "_ZN5Eigen9DenseBaseINS_13MatrixWrapperIKNS_5ArrayIiLin1ELi1ELi0ELin1ELi1EEEEEEC2Ev"
 "_ZN5Eigen9DenseBaseINS_14CwiseNullaryOpINS_8internal18scalar_constant_opIbEENS_6MatrixIbLin1ELi1ELi0ELin1ELi1EEEEEEC2Ev"
 "_ZN5Eigen9DenseBaseINS_14CwiseNullaryOpINS_8internal18scalar_constant_opIdEEKNS_6MatrixIdLin1ELi1ELi0ELin1ELi1EEEEEEC2Ev"
 "_ZN5Eigen9DenseBaseINS_14CwiseNullaryOpINS_8internal18scalar_constant_opIdEEKNS_6MatrixIdLin1ELin1ELi0ELin1ELin1EEEEEEC2Ev"
 "_ZN5Eigen9DenseBaseINS_14CwiseNullaryOpINS_8internal18scalar_constant_opIdEENS_5ArrayIdLin1ELi1ELi0ELin1ELi1EEEEEEC2Ev"
 "_ZN5Eigen9DenseBaseINS_14CwiseNullaryOpINS_8internal18scalar_constant_opIdEENS_6MatrixIdLin1ELi1ELi0ELin1ELi1EEEEEEC2Ev"
 "_ZN5Eigen9DenseBaseINS_14CwiseNullaryOpINS_8internal18scalar_constant_opIdEENS_6MatrixIdLin1ELin1ELi0ELin1ELin1EEEEEEC2Ev"
 "_ZN5Eigen9DenseBaseINS_14CwiseNullaryOpINS_8internal18scalar_identity_opIdEENS_6MatrixIdLin1ELin1ELi0ELin1ELin1EEEEEEC2Ev"
 "_ZN5Eigen9DenseBaseINS_16PartialReduxExprIKNS_12CwiseUnaryOpINS_8internal13scalar_abs_opIdEEKNS_6MatrixIdLin1ELin1ELi0ELin1ELin1EEEEENS3_10member_sumIdEELi0EEEEC2Ev"
 "_ZN5Eigen9DenseBaseINS_16PartialReduxExprINS_6MatrixIdLin1ELin1ELi0ELin1ELin1EEENS_8internal10member_sumIdEELi1EEEEC2Ev"
 "_ZN5Eigen9DenseBaseINS_3MapINS_6MatrixIdLin1ELi1ELi0ELin1ELi1EEELi0ENS_6StrideILi0ELi0EEEEEEC2Ev"
 "_ZN5Eigen9DenseBaseINS_3MapINS_6MatrixIdLin1ELin1ELi0ELin1ELin1EEELi0ENS_6StrideILi0ELi0EEEEEEC2Ev"
 "_ZN5Eigen9DenseBaseINS_5ArrayIbLin1ELi1ELi0ELin1ELi1EEEEC2Ev"
 "_ZN5Eigen9DenseBaseINS_5ArrayIdLin1ELi1ELi0ELin1ELi1EEEE11NullaryExprINS_8internal18scalar_constant_opIdEEEEKNS_14CwiseNullaryOpIT_S2_EExxRKS9_"
 "_ZN5Eigen9DenseBaseINS_5ArrayIdLin1ELi1ELi0ELin1ELi1EEEE11setConstantERKd"
 "_ZN5Eigen9DenseBaseINS_5ArrayIdLin1ELi1ELi0ELin1ELi1EEEE7segmentExx"
 "_ZN5Eigen9DenseBaseINS_5ArrayIdLin1ELi1ELi0ELin1ELi1EEEE7setZeroEv"
 "_ZN5Eigen9DenseBaseINS_5ArrayIdLin1ELi1ELi0ELin1ELi1EEEE8ConstantExxRKd"
 "_ZN5Eigen9DenseBaseINS_5ArrayIdLin1ELi1ELi0ELin1ELi1EEEEC2Ev"
 "_ZN5Eigen9DenseBaseINS_5ArrayIdLin1ELin1ELi0ELin1ELin1EEEEC2Ev"
 "_ZN5Eigen9DenseBaseINS_5ArrayIiLin1ELi1ELi0ELin1ELi1EEEEC2Ev"
 "_ZN5Eigen9DenseBaseINS_5ArrayIiLin1ELi1ELi0ELin1ELi1EEEElsERKi"
 "_ZN5Eigen9DenseBaseINS_5ArrayIN5CppAD2ADIdEELin1ELi1ELi0ELin1ELi1EEEE7segmentExx"
 "_ZN5Eigen9DenseBaseINS_5ArrayIN5CppAD2ADIdEELin1ELi1ELi0ELin1ELi1EEEEC2Ev"
 "_ZN5Eigen9DenseBaseINS_5ArrayIN5CppAD2ADIdEELin1ELin1ELi0ELin1ELin1EEEEC2Ev"
 "_ZN5Eigen9DenseBaseINS_5ArrayIN5CppAD2ADINS3_IdEEEELin1ELi1ELi0ELin1ELi1EEEE7segmentExx"
 "_ZN5Eigen9DenseBaseINS_5ArrayIN5CppAD2ADINS3_IdEEEELin1ELi1ELi0ELin1ELi1EEEEC2Ev"
 "_ZN5Eigen9DenseBaseINS_5ArrayIN5CppAD2ADINS3_IdEEEELin1ELin1ELi0ELin1ELin1EEEEC2Ev"
 "_ZN5Eigen9DenseBaseINS_5ArrayIN5CppAD2ADINS3_INS3_IdEEEEEELin1ELi1ELi0ELin1ELi1EEEE7segmentExx"
 "_ZN5Eigen9DenseBaseINS_5ArrayIN5CppAD2ADINS3_INS3_IdEEEEEELin1ELi1ELi0ELin1ELi1EEEEC2Ev"
 "_ZN5Eigen9DenseBaseINS_5ArrayIN5CppAD2ADINS3_INS3_IdEEEEEELin1ELin1ELi0ELin1ELin1EEEEC2Ev"
 "_ZN5Eigen9DenseBaseINS_5ArrayIN8tmbutils6matrixIdEELin1ELi1ELi0ELin1ELi1EEEE4headEx"
 "_ZN5Eigen9DenseBaseINS_5ArrayIN8tmbutils6matrixIdEELin1ELi1ELi0ELin1ELi1EEEEC2Ev"
 "_ZN5Eigen9DenseBaseINS_5ArrayIN8tmbutils6vectorIdEELin1ELi1ELi0ELin1ELi1EEEEC2Ev"
 "_ZN5Eigen9DenseBaseINS_5ArrayIN8tmbutils6vectorIiEELin1ELi1ELi0ELin1ELi1EEEEC2Ev"
 "_ZN5Eigen9DenseBaseINS_5ArrayINS_6MatrixIdLin1ELi1ELi0ELin1ELi1EEELin1ELi1ELi0ELin1ELi1EEEEC2Ev"
 "_ZN5Eigen9DenseBaseINS_5ArrayIPKcLin1ELi1ELi0ELin1ELi1EEEEC2Ev"
 "_ZN5Eigen9DenseBaseINS_5ArrayIyLin1ELi1ELi0ELin1ELi1EEEEC2Ev"
 "_ZN5Eigen9DenseBaseINS_5BlockIKNS_12CwiseUnaryOpINS_8internal13scalar_abs_opIdEEKNS_6MatrixIdLin1ELin1ELi0ELin1ELin1EEEEELin1ELi1ELb1EEEEC2Ev"
 "_ZN5Eigen9DenseBaseINS_5BlockIKNS_14CwiseNullaryOpINS_8internal18scalar_identity_opIdEENS_6MatrixIdLin1ELin1ELi0ELin1ELin1EEEEELi1ELin1ELb0EEEEC2Ev"
 "_ZN5Eigen9DenseBaseINS_5BlockIKNS_6MatrixIdLin1ELin1ELi0ELin1ELin1EEELi1ELin1ELb0EEEEC2Ev"
 "_ZN5Eigen9DenseBaseINS_5BlockIKNS_6MatrixIdLin1ELin1ELi0ELin1ELin1EEELin1ELi1ELb1EEEEC2Ev"
 "_ZN5Eigen9DenseBaseINS_5BlockIKNS_6MatrixIdLin1ELin1ELi0ELin1ELin1EEELin1ELin1ELb0EEEEC2Ev"
 "_ZN5Eigen9DenseBaseINS_5BlockIKNS1_INS1_INS_3MapINS_6MatrixIdLin1ELin1ELi0ELin1ELin1EEELi0ENS_6StrideILi0ELi0EEEEELin1ELin1ELb0EEELin1ELin1ELb0EEELi1ELin1ELb0EEEEC2Ev"
 "_ZN5Eigen9DenseBaseINS_5BlockIKNS1_INS1_INS_3MapINS_6MatrixIdLin1ELin1ELi0ELin1ELin1EEELi0ENS_6StrideILi0ELi0EEEEELin1ELin1ELb0EEELin1ELin1ELb0EEELin1ELi1ELb1EEEEC2Ev"
 "_ZN5Eigen9DenseBaseINS_5BlockINS_3MapINS_6MatrixIdLin1ELin1ELi0ELin1ELin1EEELi0ENS_6StrideILi0ELi0EEEEELin1ELin1ELb0EEEE17bottomRightCornerExx"
 "_ZN5Eigen9DenseBaseINS_5BlockINS_3MapINS_6MatrixIdLin1ELin1ELi0ELin1ELin1EEELi0ENS_6StrideILi0ELi0EEEEELin1ELin1ELb0EEEE3colEx"
 "_ZN5Eigen9DenseBaseINS_5BlockINS_3MapINS_6MatrixIdLin1ELin1ELi0ELin1ELin1EEELi0ENS_6StrideILi0ELi0EEEEELin1ELin1ELb0EEEE3rowEx"
 "_ZN5Eigen9DenseBaseINS_5BlockINS_3MapINS_6MatrixIdLin1ELin1ELi0ELin1ELin1EEELi0ENS_6StrideILi0ELi0EEEEELin1ELin1ELb0EEEEC2Ev"
 "_ZN5Eigen9DenseBaseINS_5BlockINS_5ArrayIdLin1ELi1ELi0ELin1ELi1EEELin1ELi1ELb0EEEE6resizeExx"
 "_ZN5Eigen9DenseBaseINS_5BlockINS_5ArrayIdLin1ELi1ELi0ELin1ELi1EEELin1ELi1ELb0EEEEaSINS2_IdLin1ELin1ELi0ELin1ELin1EEEEERS4_RKNS0_IT_EE"
 "_ZN5Eigen9DenseBaseINS_5BlockINS_5ArrayIdLin1ELi1ELi0ELin1ELi1EEELin1ELi1ELb0EEEEC2Ev"
 "_ZN5Eigen9DenseBaseINS_5BlockINS_5ArrayIN5CppAD2ADIdEELin1ELi1ELi0ELin1ELi1EEELin1ELi1ELb0EEEE6resizeExx"
 "_ZN5Eigen9DenseBaseINS_5BlockINS_5ArrayIN5CppAD2ADIdEELin1ELi1ELi0ELin1ELi1EEELin1ELi1ELb0EEEEaSINS2_IS5_Lin1ELin1ELi0ELin1ELin1EEEEERS7_RKNS0_IT_EE"
 "_ZN5Eigen9DenseBaseINS_5BlockINS_5ArrayIN5CppAD2ADIdEELin1ELi1ELi0ELin1ELi1EEELin1ELi1ELb0EEEEC2Ev"
 "_ZN5Eigen9DenseBaseINS_5BlockINS_5ArrayIN5CppAD2ADINS4_IdEEEELin1ELi1ELi0ELin1ELi1EEELin1ELi1ELb0EEEE6resizeExx"
 "_ZN5Eigen9DenseBaseINS_5BlockINS_5ArrayIN5CppAD2ADINS4_IdEEEELin1ELi1ELi0ELin1ELi1EEELin1ELi1ELb0EEEEaSINS2_IS6_Lin1ELin1ELi0ELin1ELin1EEEEERS8_RKNS0_IT_EE"
 "_ZN5Eigen9DenseBaseINS_5BlockINS_5ArrayIN5CppAD2ADINS4_IdEEEELin1ELi1ELi0ELin1ELi1EEELin1ELi1ELb0EEEEC2Ev"
 "_ZN5Eigen9DenseBaseINS_5BlockINS_5ArrayIN5CppAD2ADINS4_INS4_IdEEEEEELin1ELi1ELi0ELin1ELi1EEELin1ELi1ELb0EEEE6resizeExx"
 "_ZN5Eigen9DenseBaseINS_5BlockINS_5ArrayIN5CppAD2ADINS4_INS4_IdEEEEEELin1ELi1ELi0ELin1ELi1EEELin1ELi1ELb0EEEEaSINS2_IS7_Lin1ELin1ELi0ELin1ELin1EEEEERS9_RKNS0_IT_EE"
 "_ZN5Eigen9DenseBaseINS_5BlockINS_5ArrayIN5CppAD2ADINS4_INS4_IdEEEEEELin1ELi1ELi0ELin1ELi1EEELin1ELi1ELb0EEEEC2Ev"
 "_ZN5Eigen9DenseBaseINS_5BlockINS_5ArrayIN8tmbutils6matrixIdEELin1ELi1ELi0ELin1ELi1EEELin1ELi1ELb0EEEEC2Ev"
 "_ZN5Eigen9DenseBaseINS_5BlockINS_6MatrixIdLin1ELin1ELi0ELin1ELin1EEELi1ELin1ELb0EEEE4swapIS4_EEvRKNS0_IT_EE"
 "_ZN5Eigen9DenseBaseINS_5BlockINS_6MatrixIdLin1ELin1ELi0ELin1ELin1EEELi1ELin1ELb0EEEE6resizeExx"
 "_ZN5Eigen9DenseBaseINS_5BlockINS_6MatrixIdLin1ELin1ELi0ELin1ELin1EEELi1ELin1ELb0EEEEC2Ev"
 "_ZN5Eigen9DenseBaseINS_5BlockINS1_INS_3MapINS_6MatrixIdLin1ELin1ELi0ELin1ELin1EEELi0ENS_6StrideILi0ELi0EEEEELin1ELin1ELb0EEELi1ELin1ELb0EEEE4swapIS9_EEvRKNS0_IT_EE"
 "_ZN5Eigen9DenseBaseINS_5BlockINS1_INS_3MapINS_6MatrixIdLin1ELin1ELi0ELin1ELin1EEELi0ENS_6StrideILi0ELi0EEEEELin1ELin1ELb0EEELi1ELin1ELb0EEEE4tailEx"
 "_ZN5Eigen9DenseBaseINS_5BlockINS1_INS_3MapINS_6MatrixIdLin1ELin1ELi0ELin1ELin1EEELi0ENS_6StrideILi0ELi0EEEEELin1ELin1ELb0EEELi1ELin1ELb0EEEEC2Ev"
 "_ZN5Eigen9DenseBaseINS_5BlockINS1_INS_3MapINS_6MatrixIdLin1ELin1ELi0ELin1ELin1EEELi0ENS_6StrideILi0ELi0EEEEELin1ELin1ELb0EEELin1ELi1ELb1EEEE4tailEx"
 "_ZN5Eigen9DenseBaseINS_5BlockINS1_INS_3MapINS_6MatrixIdLin1ELin1ELi0ELin1ELin1EEELi0ENS_6StrideILi0ELi0EEEEELin1ELin1ELb0EEELin1ELi1ELb1EEEEC2Ev"
 "_ZN5Eigen9DenseBaseINS_5BlockINS1_INS_3MapINS_6MatrixIdLin1ELin1ELi0ELin1ELin1EEELi0ENS_6StrideILi0ELi0EEEEELin1ELin1ELb0EEELin1ELin1ELb0EEEE3colEx"
 "_ZN5Eigen9DenseBaseINS_5BlockINS1_INS_3MapINS_6MatrixIdLin1ELin1ELi0ELin1ELin1EEELi0ENS_6StrideILi0ELi0EEEEELin1ELin1ELb0EEELin1ELin1ELb0EEEE3rowEx"
 "_ZN5Eigen9DenseBaseINS_5BlockINS1_INS_3MapINS_6MatrixIdLin1ELin1ELi0ELin1ELin1EEELi0ENS_6StrideILi0ELi0EEEEELin1ELin1ELb0EEELin1ELin1ELb0EEEEC2Ev"
 "_ZN5Eigen9DenseBaseINS_5BlockINS1_INS1_INS_3MapINS_6MatrixIdLin1ELin1ELi0ELin1ELin1EEELi0ENS_6StrideILi0ELi0EEEEELin1ELin1ELb0EEELi1ELin1ELb0EEELi1ELin1ELb0EEEEC2Ev"
 "_ZN5Eigen9DenseBaseINS_5BlockINS1_INS1_INS_3MapINS_6MatrixIdLin1ELin1ELi0ELin1ELin1EEELi0ENS_6StrideILi0ELi0EEEEELin1ELin1ELb0EEELin1ELi1ELb1EEELin1ELi1ELb0EEEEC2Ev"
 "_ZN5Eigen9DenseBaseINS_5BlockINS1_INS1_INS_3MapINS_6MatrixIdLin1ELin1ELi0ELin1ELin1EEELi0ENS_6StrideILi0ELi0EEEEELin1ELin1ELb0EEELin1ELi1ELb1EEELin1ELi1ELb0EEEEdVERKd"
 "_ZN5Eigen9DenseBaseINS_5BlockINS1_INS1_INS_3MapINS_6MatrixIdLin1ELin1ELi0ELin1ELin1EEELi0ENS_6StrideILi0ELi0EEEEELin1ELin1ELb0EEELin1ELin1ELb0EEELi1ELin1ELb0EEEE4swapISA_EEvRKNS0_IT_EE"
 "_ZN5Eigen9DenseBaseINS_5BlockINS1_INS1_INS_3MapINS_6MatrixIdLin1ELin1ELi0ELin1ELin1EEELi0ENS_6StrideILi0ELi0EEEEELin1ELin1ELb0EEELin1ELin1ELb0EEELi1ELin1ELb0EEEEC2Ev"
 "_ZN5Eigen9DenseBaseINS_5BlockINS1_INS1_INS_3MapINS_6MatrixIdLin1ELin1ELi0ELin1ELin1EEELi0ENS_6StrideILi0ELi0EEEEELin1ELin1ELb0EEELin1ELin1ELb0EEELin1ELi1ELb1EEEEC2Ev"
 "_ZN5Eigen9DenseBaseINS_5SolveINS_12PartialPivLUINS_6MatrixIdLin1ELin1ELi0ELin1ELin1EEEEENS_14CwiseNullaryOpINS_8internal18scalar_identity_opIdEES4_EEEEEC2Ev"
 "_ZN5Eigen9DenseBaseINS_6MatrixIbLin1ELi1ELi0ELin1ELi1EEEE11NullaryExprINS_8internal18scalar_constant_opIbEEEEKNS_14CwiseNullaryOpIT_S2_EExxRKS9_"
 "_ZN5Eigen9DenseBaseINS_6MatrixIbLin1ELi1ELi0ELin1ELi1EEEE11setConstantERKb"
 "_ZN5Eigen9DenseBaseINS_6MatrixIbLin1ELi1ELi0ELin1ELi1EEEE4fillERKb"
 "_ZN5Eigen9DenseBaseINS_6MatrixIbLin1ELi1ELi0ELin1ELi1EEEE8ConstantExxRKb"
 "_ZN5Eigen9DenseBaseINS_6MatrixIbLin1ELi1ELi0ELin1ELi1EEEEC2Ev"
 "_ZN5Eigen9DenseBaseINS_6MatrixIdLin1ELi1ELi0ELin1ELi1EEEE11NullaryExprINS_8internal18scalar_constant_opIdEEEEKNS_14CwiseNullaryOpIT_S2_EExxRKS9_"
 "_ZN5Eigen9DenseBaseINS_6MatrixIdLin1ELi1ELi0ELin1ELi1EEEE8ConstantExxRKd"
 "_ZN5Eigen9DenseBaseINS_6MatrixIdLin1ELi1ELi0ELin1ELi1EEEEC2Ev"
 "_ZN5Eigen9DenseBaseINS_6MatrixIdLin1ELin1ELi0ELin1ELin1EEEE11NullaryExprINS_8internal18scalar_constant_opIdEEEEKNS_14CwiseNullaryOpIT_S2_EExxRKS9_"
 "_ZN5Eigen9DenseBaseINS_6MatrixIdLin1ELin1ELi0ELin1ELin1EEEE11NullaryExprINS_8internal18scalar_identity_opIdEEEEKNS_14CwiseNullaryOpIT_S2_EExxRKS9_"
 "_ZN5Eigen9DenseBaseINS_6MatrixIdLin1ELin1ELi0ELin1ELin1EEEE11setConstantERKd"
 "_ZN5Eigen9DenseBaseINS_6MatrixIdLin1ELin1ELi0ELin1ELin1EEEE3rowEx"
 "_ZN5Eigen9DenseBaseINS_6MatrixIdLin1ELin1ELi0ELin1ELin1EEEE7rowwiseEv"
 "_ZN5Eigen9DenseBaseINS_6MatrixIdLin1ELin1ELi0ELin1ELin1EEEE7setZeroEv"
 "_ZN5Eigen9DenseBaseINS_6MatrixIdLin1ELin1ELi0ELin1ELin1EEEE8ConstantExxRKd"
 "_ZN5Eigen9DenseBaseINS_6MatrixIdLin1ELin1ELi0ELin1ELin1EEEEC2Ev"
 "_ZN5Eigen9DenseBaseINS_6MatrixIiLin1ELi1ELi0ELin1ELi1EEEEC2Ev"
 "_ZN5Eigen9DenseBaseINS_6MatrixIiLin1ELin1ELi0ELin1ELin1EEEEC2Ev"
 "_ZN5Eigen9DenseBaseINS_6MatrixIN5CppAD2ADIdEELin1ELin1ELi0ELin1ELin1EEEEC2Ev"
 "_ZN5Eigen9DenseBaseINS_6MatrixIN5CppAD2ADINS3_IdEEEELin1ELin1ELi0ELin1ELin1EEEEC2Ev"
 "_ZN5Eigen9DenseBaseINS_6MatrixIN5CppAD2ADINS3_INS3_IdEEEEEELin1ELin1ELi0ELin1ELin1EEEEC2Ev"
 "_ZN5Eigen9DenseBaseINS_7InverseINS_12PartialPivLUINS_6MatrixIdLin1ELin1ELi0ELin1ELin1EEEEEEEEC2Ev"
 "_ZN5Eigen9DenseBaseINS_7InverseINS_6MatrixIdLin1ELin1ELi0ELin1ELin1EEEEEEC2Ev"
 "_ZN5Eigen9DenseBaseINS_7ProductINS_17PermutationMatrixILin1ELin1EiEENS_14CwiseNullaryOpINS_8internal18scalar_identity_opIdEENS_6MatrixIdLin1ELin1ELi0ELin1ELin1EEEEELi2EEEEC2Ev"
 "_ZN5Eigen9DenseBaseINS_7ProductINS_5BlockINS2_INS_3MapINS_6MatrixIdLin1ELin1ELi0ELin1ELin1EEELi0ENS_6StrideILi0ELi0EEEEELin1ELin1ELb0EEELin1ELin1ELb0EEESA_Li0EEEEC2Ev"
 "_ZN5Eigen9DenseBaseINS_7ProductINS_5BlockINS2_INS_3MapINS_6MatrixIdLin1ELin1ELi0ELin1ELin1EEELi0ENS_6StrideILi0ELi0EEEEELin1ELin1ELb0EEELin1ELin1ELb0EEESA_Li1EEEEC2Ev"
 "_ZN5Eigen9DenseBaseINS_7ProductINS_5BlockINS2_INS2_INS_3MapINS_6MatrixIdLin1ELin1ELi0ELin1ELin1EEELi0ENS_6StrideILi0ELi0EEEEELin1ELin1ELb0EEELin1ELi1ELb1EEELin1ELi1ELb0EEENS2_INS2_IS9_Li1ELin1ELb0EEELi1ELin1ELb0EEELi0EEEEC2Ev"
 "_ZN5Eigen9DenseBaseINS_7ProductINS_6MatrixIdLin1ELin1ELi0ELin1ELin1EEES3_Li0EEEEC2Ev"
 "_ZN5Eigen9DenseBaseINS_7ProductINS_6MatrixIdLin1ELin1ELi0ELin1ELin1EEES3_Li1EEEEC2Ev"
 "_ZN5Eigen9DenseBaseINS_9TransposeIKNS_5BlockIKNS_6MatrixIdLin1ELin1ELi0ELin1ELin1EEELi1ELin1ELb0EEEEEEC2Ev"
 "_ZN5Eigen9DenseBaseINS_9TransposeIKNS_5BlockIKNS2_INS2_INS_3MapINS_6MatrixIdLin1ELin1ELi0ELin1ELin1EEELi0ENS_6StrideILi0ELi0EEEEELin1ELin1ELb0EEELin1ELin1ELb0EEELi1ELin1ELb0EEEEEEC2Ev"
 "_ZN5Eigen9DenseBaseINS_9TransposeINS_5BlockINS_6MatrixIdLin1ELin1ELi0ELin1ELin1EEELi1ELin1ELb0EEEEEEC2Ev"
 "_ZN5Eigen9EigenBaseINS_12ArrayWrapperIKNS_5BlockIKNS_6MatrixIdLin1ELin1ELi0ELin1ELin1EEELin1ELin1ELb0EEEEEEC2Ev"
 "_ZN5Eigen9EigenBaseINS_12ArrayWrapperIKNS_6MatrixIdLin1ELin1ELi0ELin1ELin1EEEEEEC2Ev"
 "_ZN5Eigen9EigenBaseINS_12ArrayWrapperINS_6MatrixIdLin1ELin1ELi0ELin1ELin1EEEEEEC2Ev"
 "_ZN5Eigen9EigenBaseINS_12CwiseUnaryOpINS_8internal13scalar_abs_opIdEEKNS_12ArrayWrapperINS_6MatrixIdLin1ELin1ELi0ELin1ELin1EEEEEEEEC2Ev"
 "_ZN5Eigen9EigenBaseINS_12CwiseUnaryOpINS_8internal13scalar_abs_opIdEEKNS_6MatrixIdLin1ELin1ELi0ELin1ELin1EEEEEEC2Ev"
 "_ZN5Eigen9EigenBaseINS_12CwiseUnaryOpINS_8internal14scalar_cast_opIbiEEKNS_5ArrayIbLin1ELi1ELi0ELin1ELi1EEEEEEC2Ev"
 "_ZN5Eigen9EigenBaseINS_12CwiseUnaryOpINS_8internal14scalar_cast_opIdiEEKNS_3MapINS_6MatrixIdLin1ELi1ELi0ELin1ELi1EEELi0ENS_6StrideILi0ELi0EEEEEEEEC2Ev"
 "_ZN5Eigen9EigenBaseINS_12CwiseUnaryOpINS_8internal14scalar_cast_opIdN5CppAD2ADIdEEEEKNS_3MapINS_6MatrixIdLin1ELi1ELi0ELin1ELi1EEELi0ENS_6StrideILi0ELi0EEEEEEEEC2Ev"
 "_ZN5Eigen9EigenBaseINS_12CwiseUnaryOpINS_8internal14scalar_cast_opIdN5CppAD2ADINS5_IdEEEEEEKNS_3MapINS_6MatrixIdLin1ELi1ELi0ELin1ELi1EEELi0ENS_6StrideILi0ELi0EEEEEEEEC2Ev"
 "_ZN5Eigen9EigenBaseINS_12CwiseUnaryOpINS_8internal14scalar_cast_opIdN5CppAD2ADINS5_INS5_IdEEEEEEEEKNS_3MapINS_6MatrixIdLin1ELi1ELi0ELin1ELi1EEELi0ENS_6StrideILi0ELi0EEEEEEEEC2Ev"
 "_ZN5Eigen9EigenBaseINS_12CwiseUnaryOpINS_8internal21scalar_score_coeff_opIdEEKNS_5BlockINS5_INS5_INS_3MapINS_6MatrixIdLin1ELin1ELi0ELin1ELin1EEELi0ENS_6StrideILi0ELi0EEEEELin1ELin1ELb0EEELin1ELi1ELb1EEELin1ELi1ELb0EEEEEEC2Ev"
 "_ZN5Eigen9EigenBaseINS_12PartialPivLUINS_6MatrixIdLin1ELin1ELi0ELin1ELin1EEEEEEC2Ev"
 "_ZN5Eigen9EigenBaseINS_13CwiseBinaryOpINS_8internal13scalar_sum_opIddEEKNS_5ArrayIdLin1ELi1ELi0ELin1ELi1EEES7_EEEC2Ev"
 "_ZN5Eigen9EigenBaseINS_13CwiseBinaryOpINS_8internal13scalar_sum_opIddEEKNS_6MatrixIdLin1ELi1ELi0ELin1ELi1EEES7_EEEC2Ev"
 "_ZN5Eigen9EigenBaseINS_13CwiseBinaryOpINS_8internal13scalar_sum_opIddEEKNS_6MatrixIdLin1ELin1ELi0ELin1ELin1EEES7_EEEC2Ev"
 "_ZN5Eigen9EigenBaseINS_13CwiseBinaryOpINS_8internal17scalar_product_opIddEEKNS_12ArrayWrapperIKNS_5BlockIKNS_6MatrixIdLin1ELin1ELi0ELin1ELin1EEELin1ELin1ELb0EEEEEKNS5_IS9_EEEEEC2Ev"
 "_ZN5Eigen9EigenBaseINS_13CwiseBinaryOpINS_8internal17scalar_product_opIddEEKNS_14CwiseNullaryOpINS2_18scalar_constant_opIdEEKNS_6MatrixIdLin1ELi1ELi0ELin1ELi1EEEEEKNS_5BlockINSD_INSD_INS_3MapINS8_IdLin1ELin1ELi0ELin1ELin1EEELi0ENS_6StrideILi0ELi0EEEEELin1ELin1ELb0EEELin1ELi1ELb1EEELin1ELi1ELb0EEEEEEC2Ev"
 "_ZN5Eigen9EigenBaseINS_13CwiseBinaryOpINS_8internal17scalar_product_opIddEEKNS_14CwiseNullaryOpINS2_18scalar_constant_opIdEEKNS_6MatrixIdLin1ELin1ELi0ELin1ELin1EEEEESA_EEEC2Ev"
 "_ZN5Eigen9EigenBaseINS_13CwiseBinaryOpINS_8internal17scalar_product_opIddEEKNS_6MatrixIdLin1ELin1ELi0ELin1ELin1EEEKNS_14CwiseNullaryOpINS2_18scalar_constant_opIdEES7_EEEEEC2Ev"
 "_ZN5Eigen9EigenBaseINS_13CwiseBinaryOpINS_8internal17scalar_product_opIddEEKNS_9TransposeIKNS_5BlockIKNS_6MatrixIdLin1ELin1ELi0ELin1ELin1EEELi1ELin1ELb0EEEEEKNS6_IS9_Lin1ELi1ELb1EEEEEEC2Ev"
 "_ZN5Eigen9EigenBaseINS_13CwiseBinaryOpINS_8internal17scalar_product_opIddEEKNS_9TransposeIKNS_5BlockIKNS6_INS6_INS_3MapINS_6MatrixIdLin1ELin1ELi0ELin1ELin1EEELi0ENS_6StrideILi0ELi0EEEEELin1ELin1ELb0EEELin1ELin1ELb0EEELi1ELin1ELb0EEEEEKNS6_ISF_Lin1ELi1ELb1EEEEEEC2Ev"
 "_ZN5Eigen9EigenBaseINS_13CwiseBinaryOpINS_8internal17scalar_product_opIN5CppAD2ADIdEES6_EEKNS_5ArrayIS6_Lin1ELi1ELi0ELin1ELi1EEESA_EEEC2Ev"
 "_ZN5Eigen9EigenBaseINS_13CwiseBinaryOpINS_8internal17scalar_product_opIN5CppAD2ADINS5_IdEEEES7_EEKNS_5ArrayIS7_Lin1ELi1ELi0ELin1ELi1EEESB_EEEC2Ev"
 "_ZN5Eigen9EigenBaseINS_13CwiseBinaryOpINS_8internal17scalar_product_opIN5CppAD2ADINS5_INS5_IdEEEEEES8_EEKNS_5ArrayIS8_Lin1ELi1ELi0ELin1ELi1EEESC_EEEC2Ev"
 "_ZN5Eigen9EigenBaseINS_13MatrixWrapperIKNS_5ArrayIdLin1ELi1ELi0ELin1ELi1EEEEEEC2Ev"
 "_ZN5Eigen9EigenBaseINS_13MatrixWrapperIKNS_5ArrayIiLin1ELi1ELi0ELin1ELi1EEEEEEC2Ev"
 "_ZN5Eigen9EigenBaseINS_14CwiseNullaryOpINS_8internal18scalar_constant_opIbEENS_6MatrixIbLin1ELi1ELi0ELin1ELi1EEEEEEC2Ev"
 "_ZN5Eigen9EigenBaseINS_14CwiseNullaryOpINS_8internal18scalar_constant_opIdEEKNS_6MatrixIdLin1ELi1ELi0ELin1ELi1EEEEEEC2Ev"
 "_ZN5Eigen9EigenBaseINS_14CwiseNullaryOpINS_8internal18scalar_constant_opIdEEKNS_6MatrixIdLin1ELin1ELi0ELin1ELin1EEEEEEC2Ev"
 "_ZN5Eigen9EigenBaseINS_14CwiseNullaryOpINS_8internal18scalar_constant_opIdEENS_5ArrayIdLin1ELi1ELi0ELin1ELi1EEEEEEC2Ev"
 "_ZN5Eigen9EigenBaseINS_14CwiseNullaryOpINS_8internal18scalar_constant_opIdEENS_6MatrixIdLin1ELi1ELi0ELin1ELi1EEEEEEC2Ev"
 "_ZN5Eigen9EigenBaseINS_14CwiseNullaryOpINS_8internal18scalar_constant_opIdEENS_6MatrixIdLin1ELin1ELi0ELin1ELin1EEEEEEC2Ev"
 "_ZN5Eigen9EigenBaseINS_14CwiseNullaryOpINS_8internal18scalar_identity_opIdEENS_6MatrixIdLin1ELin1ELi0ELin1ELin1EEEEEEC2Ev"
 "_ZN5Eigen9EigenBaseINS_14TriangularViewIKNS_6MatrixIdLin1ELin1ELi0ELin1ELin1EEELj2EEEEC2Ev"
 "_ZN5Eigen9EigenBaseINS_14TriangularViewIKNS_6MatrixIdLin1ELin1ELi0ELin1ELin1EEELj5EEEEC2Ev"
 "_ZN5Eigen9EigenBaseINS_14TriangularViewINS_5BlockINS2_INS_3MapINS_6MatrixIdLin1ELin1ELi0ELin1ELin1EEELi0ENS_6StrideILi0ELi0EEEEELin1ELin1ELb0EEELin1ELin1ELb0EEELj5EEEEC2Ev"
 "_ZN5Eigen9EigenBaseINS_16PartialReduxExprIKNS_12CwiseUnaryOpINS_8internal13scalar_abs_opIdEEKNS_6MatrixIdLin1ELin1ELi0ELin1ELin1EEEEENS3_10member_sumIdEELi0EEEEC2Ev"
 "_ZN5Eigen9EigenBaseINS_16PartialReduxExprINS_6MatrixIdLin1ELin1ELi0ELin1ELin1EEENS_8internal10member_sumIdEELi1EEEEC2Ev"
 "_ZN5Eigen9EigenBaseINS_17PermutationMatrixILin1ELin1EiEEE7derivedEv"
 "_ZN5Eigen9EigenBaseINS_17PermutationMatrixILin1ELin1EiEEEC2Ev"
 "_ZN5Eigen9EigenBaseINS_3MapINS_6MatrixIdLin1ELi1ELi0ELin1ELi1EEELi0ENS_6StrideILi0ELi0EEEEEEC2Ev"
 "_ZN5Eigen9EigenBaseINS_3MapINS_6MatrixIdLin1ELin1ELi0ELin1ELin1EEELi0ENS_6StrideILi0ELi0EEEEEEC2Ev"
 "_ZN5Eigen9EigenBaseINS_5ArrayIbLin1ELi1ELi0ELin1ELi1EEEE7derivedEv"
 "_ZN5Eigen9EigenBaseINS_5ArrayIbLin1ELi1ELi0ELin1ELi1EEEEC2Ev"
 "_ZN5Eigen9EigenBaseINS_5ArrayIdLin1ELi1ELi0ELin1ELi1EEEE7derivedEv"
 "_ZN5Eigen9EigenBaseINS_5ArrayIdLin1ELi1ELi0ELin1ELi1EEEEC2Ev"
 "_ZN5Eigen9EigenBaseINS_5ArrayIdLin1ELin1ELi0ELin1ELin1EEEE7derivedEv"
 "_ZN5Eigen9EigenBaseINS_5ArrayIdLin1ELin1ELi0ELin1ELin1EEEEC2Ev"
 "_ZN5Eigen9EigenBaseINS_5ArrayIiLin1ELi1ELi0ELin1ELi1EEEE7derivedEv"
 "_ZN5Eigen9EigenBaseINS_5ArrayIiLin1ELi1ELi0ELin1ELi1EEEEC2Ev"
 "_ZN5Eigen9EigenBaseINS_5ArrayIN5CppAD2ADIdEELin1ELi1ELi0ELin1ELi1EEEE7derivedEv"
 "_ZN5Eigen9EigenBaseINS_5ArrayIN5CppAD2ADIdEELin1ELi1ELi0ELin1ELi1EEEEC2Ev"
 "_ZN5Eigen9EigenBaseINS_5ArrayIN5CppAD2ADIdEELin1ELin1ELi0ELin1ELin1EEEE7derivedEv"
 "_ZN5Eigen9EigenBaseINS_5ArrayIN5CppAD2ADIdEELin1ELin1ELi0ELin1ELin1EEEEC2Ev"
 "_ZN5Eigen9EigenBaseINS_5ArrayIN5CppAD2ADINS3_IdEEEELin1ELi1ELi0ELin1ELi1EEEE7derivedEv"
 "_ZN5Eigen9EigenBaseINS_5ArrayIN5CppAD2ADINS3_IdEEEELin1ELi1ELi0ELin1ELi1EEEEC2Ev"
 "_ZN5Eigen9EigenBaseINS_5ArrayIN5CppAD2ADINS3_IdEEEELin1ELin1ELi0ELin1ELin1EEEE7derivedEv"
 "_ZN5Eigen9EigenBaseINS_5ArrayIN5CppAD2ADINS3_IdEEEELin1ELin1ELi0ELin1ELin1EEEEC2Ev"
 "_ZN5Eigen9EigenBaseINS_5ArrayIN5CppAD2ADINS3_INS3_IdEEEEEELin1ELi1ELi0ELin1ELi1EEEE7derivedEv"
 "_ZN5Eigen9EigenBaseINS_5ArrayIN5CppAD2ADINS3_INS3_IdEEEEEELin1ELi1ELi0ELin1ELi1EEEEC2Ev"
 "_ZN5Eigen9EigenBaseINS_5ArrayIN5CppAD2ADINS3_INS3_IdEEEEEELin1ELin1ELi0ELin1ELin1EEEE7derivedEv"
 "_ZN5Eigen9EigenBaseINS_5ArrayIN5CppAD2ADINS3_INS3_IdEEEEEELin1ELin1ELi0ELin1ELin1EEEEC2Ev"
 "_ZN5Eigen9EigenBaseINS_5ArrayIN8tmbutils6matrixIdEELin1ELi1ELi0ELin1ELi1EEEE7derivedEv"
 "_ZN5Eigen9EigenBaseINS_5ArrayIN8tmbutils6matrixIdEELin1ELi1ELi0ELin1ELi1EEEEC2Ev"
 "_ZN5Eigen9EigenBaseINS_5ArrayIN8tmbutils6vectorIdEELin1ELi1ELi0ELin1ELi1EEEE7derivedEv"
 "_ZN5Eigen9EigenBaseINS_5ArrayIN8tmbutils6vectorIdEELin1ELi1ELi0ELin1ELi1EEEEC2Ev"
 "_ZN5Eigen9EigenBaseINS_5ArrayIN8tmbutils6vectorIiEELin1ELi1ELi0ELin1ELi1EEEE7derivedEv"
 "_ZN5Eigen9EigenBaseINS_5ArrayIN8tmbutils6vectorIiEELin1ELi1ELi0ELin1ELi1EEEEC2Ev"
 "_ZN5Eigen9EigenBaseINS_5ArrayIN8tmbutils6vectorIyEELin1ELi1ELi0ELin1ELi1EEEE7derivedEv"
 "_ZN5Eigen9EigenBaseINS_5ArrayINS_6MatrixIdLin1ELi1ELi0ELin1ELi1EEELin1ELi1ELi0ELin1ELi1EEEE7derivedEv"
 "_ZN5Eigen9EigenBaseINS_5ArrayINS_6MatrixIdLin1ELi1ELi0ELin1ELi1EEELin1ELi1ELi0ELin1ELi1EEEEC2Ev"
 "_ZN5Eigen9EigenBaseINS_5ArrayIPKcLin1ELi1ELi0ELin1ELi1EEEE7derivedEv"
 "_ZN5Eigen9EigenBaseINS_5ArrayIPKcLin1ELi1ELi0ELin1ELi1EEEEC2Ev"
 "_ZN5Eigen9EigenBaseINS_5ArrayIPN5CppAD5ADFunIdEELin1ELi1ELi0ELin1ELi1EEEE7derivedEv"
 "_ZN5Eigen9EigenBaseINS_5ArrayIyLin1ELi1ELi0ELin1ELi1EEEE7derivedEv"
 "_ZN5Eigen9EigenBaseINS_5ArrayIyLin1ELi1ELi0ELin1ELi1EEEEC2Ev"
 "_ZN5Eigen9EigenBaseINS_5BlockIKNS_12CwiseUnaryOpINS_8internal13scalar_abs_opIdEEKNS_6MatrixIdLin1ELin1ELi0ELin1ELin1EEEEELin1ELi1ELb1EEEEC2Ev"
 "_ZN5Eigen9EigenBaseINS_5BlockIKNS_14CwiseNullaryOpINS_8internal18scalar_identity_opIdEENS_6MatrixIdLin1ELin1ELi0ELin1ELin1EEEEELi1ELin1ELb0EEEEC2Ev"
 "_ZN5Eigen9EigenBaseINS_5BlockIKNS_6MatrixIdLin1ELin1ELi0ELin1ELin1EEELi1ELin1ELb0EEEEC2Ev"
 "_ZN5Eigen9EigenBaseINS_5BlockIKNS_6MatrixIdLin1ELin1ELi0ELin1ELin1EEELin1ELi1ELb1EEEEC2Ev"
 "_ZN5Eigen9EigenBaseINS_5BlockIKNS_6MatrixIdLin1ELin1ELi0ELin1ELin1EEELin1ELin1ELb0EEEEC2Ev"
 "_ZN5Eigen9EigenBaseINS_5BlockIKNS1_INS1_INS_3MapINS_6MatrixIdLin1ELin1ELi0ELin1ELin1EEELi0ENS_6StrideILi0ELi0EEEEELin1ELin1ELb0EEELin1ELin1ELb0EEELi1ELin1ELb0EEEEC2Ev"
 "_ZN5Eigen9EigenBaseINS_5BlockIKNS1_INS1_INS_3MapINS_6MatrixIdLin1ELin1ELi0ELin1ELin1EEELi0ENS_6StrideILi0ELi0EEEEELin1ELin1ELb0EEELin1ELin1ELb0EEELin1ELi1ELb1EEEEC2Ev"
 "_ZN5Eigen9EigenBaseINS_5BlockINS_3MapINS_6MatrixIdLin1ELin1ELi0ELin1ELin1EEELi0ENS_6StrideILi0ELi0EEEEELin1ELin1ELb0EEEE7derivedEv"
 "_ZN5Eigen9EigenBaseINS_5BlockINS_3MapINS_6MatrixIdLin1ELin1ELi0ELin1ELin1EEELi0ENS_6StrideILi0ELi0EEEEELin1ELin1ELb0EEEEC2Ev"
 "_ZN5Eigen9EigenBaseINS_5BlockINS_5ArrayIdLin1ELi1ELi0ELin1ELi1EEELin1ELi1ELb0EEEE7derivedEv"
 "_ZN5Eigen9EigenBaseINS_5BlockINS_5ArrayIdLin1ELi1ELi0ELin1ELi1EEELin1ELi1ELb0EEEEC2Ev"
 "_ZN5Eigen9EigenBaseINS_5BlockINS_5ArrayIN5CppAD2ADIdEELin1ELi1ELi0ELin1ELi1EEELin1ELi1ELb0EEEE7derivedEv"
 "_ZN5Eigen9EigenBaseINS_5BlockINS_5ArrayIN5CppAD2ADIdEELin1ELi1ELi0ELin1ELi1EEELin1ELi1ELb0EEEEC2Ev"
 "_ZN5Eigen9EigenBaseINS_5BlockINS_5ArrayIN5CppAD2ADINS4_IdEEEELin1ELi1ELi0ELin1ELi1EEELin1ELi1ELb0EEEE7derivedEv"
 "_ZN5Eigen9EigenBaseINS_5BlockINS_5ArrayIN5CppAD2ADINS4_IdEEEELin1ELi1ELi0ELin1ELi1EEELin1ELi1ELb0EEEEC2Ev"
 "_ZN5Eigen9EigenBaseINS_5BlockINS_5ArrayIN5CppAD2ADINS4_INS4_IdEEEEEELin1ELi1ELi0ELin1ELi1EEELin1ELi1ELb0EEEE7derivedEv"
 "_ZN5Eigen9EigenBaseINS_5BlockINS_5ArrayIN5CppAD2ADINS4_INS4_IdEEEEEELin1ELi1ELi0ELin1ELi1EEELin1ELi1ELb0EEEEC2Ev"
 "_ZN5Eigen9EigenBaseINS_5BlockINS_5ArrayIN8tmbutils6matrixIdEELin1ELi1ELi0ELin1ELi1EEELin1ELi1ELb0EEEEC2Ev"
 "_ZN5Eigen9EigenBaseINS_5BlockINS_6MatrixIdLin1ELin1ELi0ELin1ELin1EEELi1ELin1ELb0EEEE7derivedEv"
 "_ZN5Eigen9EigenBaseINS_5BlockINS_6MatrixIdLin1ELin1ELi0ELin1ELin1EEELi1ELin1ELb0EEEEC2Ev"
 "_ZN5Eigen9EigenBaseINS_5BlockINS1_INS_3MapINS_6MatrixIdLin1ELin1ELi0ELin1ELin1EEELi0ENS_6StrideILi0ELi0EEEEELin1ELin1ELb0EEELi1ELin1ELb0EEEE7derivedEv"
 "_ZN5Eigen9EigenBaseINS_5BlockINS1_INS_3MapINS_6MatrixIdLin1ELin1ELi0ELin1ELin1EEELi0ENS_6StrideILi0ELi0EEEEELin1ELin1ELb0EEELi1ELin1ELb0EEEEC2Ev"
 "_ZN5Eigen9EigenBaseINS_5BlockINS1_INS_3MapINS_6MatrixIdLin1ELin1ELi0ELin1ELin1EEELi0ENS_6StrideILi0ELi0EEEEELin1ELin1ELb0EEELin1ELi1ELb1EEEE7derivedEv"
 "_ZN5Eigen9EigenBaseINS_5BlockINS1_INS_3MapINS_6MatrixIdLin1ELin1ELi0ELin1ELin1EEELi0ENS_6StrideILi0ELi0EEEEELin1ELin1ELb0EEELin1ELi1ELb1EEEEC2Ev"
 "_ZN5Eigen9EigenBaseINS_5BlockINS1_INS_3MapINS_6MatrixIdLin1ELin1ELi0ELin1ELin1EEELi0ENS_6StrideILi0ELi0EEEEELin1ELin1ELb0EEELin1ELin1ELb0EEEE7derivedEv"
 "_ZN5Eigen9EigenBaseINS_5BlockINS1_INS_3MapINS_6MatrixIdLin1ELin1ELi0ELin1ELin1EEELi0ENS_6StrideILi0ELi0EEEEELin1ELin1ELb0EEELin1ELin1ELb0EEEEC2Ev"
 "_ZN5Eigen9EigenBaseINS_5BlockINS1_INS1_INS_3MapINS_6MatrixIdLin1ELin1ELi0ELin1ELin1EEELi0ENS_6StrideILi0ELi0EEEEELin1ELin1ELb0EEELi1ELin1ELb0EEELi1ELin1ELb0EEEEC2Ev"
 "_ZN5Eigen9EigenBaseINS_5BlockINS1_INS1_INS_3MapINS_6MatrixIdLin1ELin1ELi0ELin1ELin1EEELi0ENS_6StrideILi0ELi0EEEEELin1ELin1ELb0EEELin1ELi1ELb1EEELin1ELi1ELb0EEEE7derivedEv"
 "_ZN5Eigen9EigenBaseINS_5BlockINS1_INS1_INS_3MapINS_6MatrixIdLin1ELin1ELi0ELin1ELin1EEELi0ENS_6StrideILi0ELi0EEEEELin1ELin1ELb0EEELin1ELi1ELb1EEELin1ELi1ELb0EEEEC2Ev"
 "_ZN5Eigen9EigenBaseINS_5BlockINS1_INS1_INS_3MapINS_6MatrixIdLin1ELin1ELi0ELin1ELin1EEELi0ENS_6StrideILi0ELi0EEEEELin1ELin1ELb0EEELin1ELin1ELb0EEELi1ELin1ELb0EEEE7derivedEv"
 "_ZN5Eigen9EigenBaseINS_5BlockINS1_INS1_INS_3MapINS_6MatrixIdLin1ELin1ELi0ELin1ELin1EEELi0ENS_6StrideILi0ELi0EEEEELin1ELin1ELb0EEELin1ELin1ELb0EEELi1ELin1ELb0EEEEC2Ev"
 "_ZN5Eigen9EigenBaseINS_5BlockINS1_INS1_INS_3MapINS_6MatrixIdLin1ELin1ELi0ELin1ELin1EEELi0ENS_6StrideILi0ELi0EEEEELin1ELin1ELb0EEELin1ELin1ELb0EEELin1ELi1ELb1EEEE7derivedEv"
 "_ZN5Eigen9EigenBaseINS_5BlockINS1_INS1_INS_3MapINS_6MatrixIdLin1ELin1ELi0ELin1ELin1EEELi0ENS_6StrideILi0ELi0EEEEELin1ELin1ELb0EEELin1ELin1ELb0EEELin1ELi1ELb1EEEEC2Ev"
 "_ZN5Eigen9EigenBaseINS_5SolveINS_12PartialPivLUINS_6MatrixIdLin1ELin1ELi0ELin1ELin1EEEEENS_14CwiseNullaryOpINS_8internal18scalar_identity_opIdEES4_EEEEEC2Ev"
 "_ZN5Eigen9EigenBaseINS_6MatrixIbLin1ELi1ELi0ELin1ELi1EEEE7derivedEv"
 "_ZN5Eigen9EigenBaseINS_6MatrixIbLin1ELi1ELi0ELin1ELi1EEEEC2Ev"
 "_ZN5Eigen9EigenBaseINS_6MatrixIdLin1ELi1ELi0ELin1ELi1EEEE7derivedEv"
 "_ZN5Eigen9EigenBaseINS_6MatrixIdLin1ELi1ELi0ELin1ELi1EEEEC2Ev"
 "_ZN5Eigen9EigenBaseINS_6MatrixIdLin1ELin1ELi0ELin1ELin1EEEE7derivedEv"
 "_ZN5Eigen9EigenBaseINS_6MatrixIdLin1ELin1ELi0ELin1ELin1EEEEC2Ev"
 "_ZN5Eigen9EigenBaseINS_6MatrixIiLin1ELi1ELi0ELin1ELi1EEEEC2Ev"
 "_ZN5Eigen9EigenBaseINS_6MatrixIiLin1ELin1ELi0ELin1ELin1EEEE7derivedEv"
 "_ZN5Eigen9EigenBaseINS_6MatrixIiLin1ELin1ELi0ELin1ELin1EEEEC2Ev"
 "_ZN5Eigen9EigenBaseINS_6MatrixIN5CppAD2ADIdEELin1ELin1ELi0ELin1ELin1EEEE7derivedEv"
 "_ZN5Eigen9EigenBaseINS_6MatrixIN5CppAD2ADIdEELin1ELin1ELi0ELin1ELin1EEEEC2Ev"
 "_ZN5Eigen9EigenBaseINS_6MatrixIN5CppAD2ADINS3_IdEEEELin1ELin1ELi0ELin1ELin1EEEE7derivedEv"
 "_ZN5Eigen9EigenBaseINS_6MatrixIN5CppAD2ADINS3_IdEEEELin1ELin1ELi0ELin1ELin1EEEEC2Ev"
 "_ZN5Eigen9EigenBaseINS_6MatrixIN5CppAD2ADINS3_INS3_IdEEEEEELin1ELin1ELi0ELin1ELin1EEEE7derivedEv"
 "_ZN5Eigen9EigenBaseINS_6MatrixIN5CppAD2ADINS3_INS3_IdEEEEEELin1ELin1ELi0ELin1ELin1EEEEC2Ev"
 "_ZN5Eigen9EigenBaseINS_7InverseINS_12PartialPivLUINS_6MatrixIdLin1ELin1ELi0ELin1ELin1EEEEEEEEC2Ev"
 "_ZN5Eigen9EigenBaseINS_7InverseINS_6MatrixIdLin1ELin1ELi0ELin1ELin1EEEEEEC2Ev"
 "_ZN5Eigen9EigenBaseINS_7ProductINS_17PermutationMatrixILin1ELin1EiEENS_14CwiseNullaryOpINS_8internal18scalar_identity_opIdEENS_6MatrixIdLin1ELin1ELi0ELin1ELin1EEEEELi2EEEEC2Ev"
 "_ZN5Eigen9EigenBaseINS_7ProductINS_5BlockINS2_INS_3MapINS_6MatrixIdLin1ELin1ELi0ELin1ELin1EEELi0ENS_6StrideILi0ELi0EEEEELin1ELin1ELb0EEELin1ELin1ELb0EEESA_Li0EEEEC2Ev"
 "_ZN5Eigen9EigenBaseINS_7ProductINS_5BlockINS2_INS_3MapINS_6MatrixIdLin1ELin1ELi0ELin1ELin1EEELi0ENS_6StrideILi0ELi0EEEEELin1ELin1ELb0EEELin1ELin1ELb0EEESA_Li1EEEEC2Ev"
 "_ZN5Eigen9EigenBaseINS_7ProductINS_5BlockINS2_INS2_INS_3MapINS_6MatrixIdLin1ELin1ELi0ELin1ELin1EEELi0ENS_6StrideILi0ELi0EEEEELin1ELin1ELb0EEELin1ELi1ELb1EEELin1ELi1ELb0EEENS2_INS2_IS9_Li1ELin1ELb0EEELi1ELin1ELb0EEELi0EEEEC2Ev"
 "_ZN5Eigen9EigenBaseINS_7ProductINS_6MatrixIdLin1ELin1ELi0ELin1ELin1EEES3_Li0EEEEC2Ev"
 "_ZN5Eigen9EigenBaseINS_7ProductINS_6MatrixIdLin1ELin1ELi0ELin1ELin1EEES3_Li1EEEEC2Ev"
 "_ZN5Eigen9EigenBaseINS_9TransposeIKNS_5BlockIKNS_6MatrixIdLin1ELin1ELi0ELin1ELin1EEELi1ELin1ELb0EEEEEEC2Ev"
 "_ZN5Eigen9EigenBaseINS_9TransposeIKNS_5BlockIKNS2_INS2_INS_3MapINS_6MatrixIdLin1ELin1ELi0ELin1ELin1EEELi0ENS_6StrideILi0ELi0EEEEELin1ELin1ELb0EEELin1ELin1ELb0EEELi1ELin1ELb0EEEEEEC2Ev"
 "_ZN5Eigen9EigenBaseINS_9TransposeINS_5BlockINS_6MatrixIdLin1ELin1ELi0ELin1ELin1EEELi1ELin1ELb0EEEEEEC2Ev"
 "_ZN5Eigen9SolveImplINS_12PartialPivLUINS_6MatrixIdLin1ELin1ELi0ELin1ELin1EEEEENS_14CwiseNullaryOpINS_8internal18scalar_identity_opIdEES3_EENS_5DenseEEC2Ev"
 "_ZN5Eigen9TransposeIKNS_5BlockIKNS_6MatrixIdLin1ELin1ELi0ELin1ELin1EEELi1ELin1ELb0EEEEC1ERKS7_"
 "_ZN5Eigen9TransposeIKNS_5BlockIKNS_6MatrixIdLin1ELin1ELi0ELin1ELin1EEELi1ELin1ELb0EEEEC1ERS6_"
 "_ZN5Eigen9TransposeIKNS_5BlockIKNS1_INS1_INS_3MapINS_6MatrixIdLin1ELin1ELi0ELin1ELin1EEELi0ENS_6StrideILi0ELi0EEEEELin1ELin1ELb0EEELin1ELin1ELb0EEELi1ELin1ELb0EEEEC1ERKSD_"
 "_ZN5Eigen9TransposeIKNS_5BlockIKNS1_INS1_INS_3MapINS_6MatrixIdLin1ELin1ELi0ELin1ELin1EEELi0ENS_6StrideILi0ELi0EEEEELin1ELin1ELb0EEELin1ELin1ELb0EEELi1ELin1ELb0EEEEC1ERSC_"
 "_ZN5Eigen9TransposeINS_5BlockINS_6MatrixIdLin1ELin1ELi0ELin1ELin1EEELi1ELin1ELb0EEEE6resizeExx"
 "_ZN5Eigen9TransposeINS_5BlockINS_6MatrixIdLin1ELin1ELi0ELin1ELin1EEELi1ELin1ELb0EEEEC1ERS4_"
 "_ZN5EigenmlIdEENS_8internal9enable_ifILb1EKNS_13CwiseBinaryOpINS1_17scalar_product_opINS1_18promote_scalar_argIdT_XsrNS1_14has_ReturnTypeINS_20ScalarBinaryOpTraitsIS6_dNS4_IS6_dEEEEEE5valueEE4typeEdEEKNS1_19plain_constant_typeINS_5BlockINSG_INSG_INS_3MapINS_6MatrixIdLin1ELin1ELi0ELin1ELin1EEELi0ENS_6StrideILi0ELi0EEEEELin1ELin1ELb0EEELin1ELi1ELb1EEELin1ELi1ELb0EEESD_E4typeEKSP_EEE4typeERKS6_RKNS_10MatrixBaseISP_EE"
 "_ZN5EigenmlIdEENS_8internal9enable_ifILb1EKNS_13CwiseBinaryOpINS1_17scalar_product_opINS1_18promote_scalar_argIdT_XsrNS1_14has_ReturnTypeINS_20ScalarBinaryOpTraitsIS6_dNS4_IS6_dEEEEEE5valueEE4typeEdEEKNS1_19plain_constant_typeINS_6MatrixIdLin1ELin1ELi0ELin1ELin1EEESD_E4typeEKSH_EEE4typeERKS6_RKNS_10MatrixBaseISH_EE"
 "_ZN5EigenmlINS_17PermutationMatrixILin1ELin1EiEENS_14CwiseNullaryOpINS_8internal18scalar_identity_opIdEENS_6MatrixIdLin1ELin1ELi0ELin1ELin1EEEEEEEKNS_7ProductIT_T0_Li2EEERKNS_15PermutationBaseISB_EERKNS_10MatrixBaseISC_EE"
 "_ZN6atomic12dynamic_data14double_to_sexpEd"
 "_ZN6atomic12dynamic_data14sexp_to_doubleEP7SEXPREC"
 "_ZN6atomic12dynamic_data17charptr_to_doubleEPKc"
 "_ZN6atomic12dynamic_data17double_to_charptrEd"
 "_ZN6atomic12multi_forrevIdEEPN5CppAD5ADFunIdEEPNS2_IT_EEN8tmbutils6vectorIdEE"
 "_ZN6atomic13compois_utils8simulateEdd"
 "_ZN6atomic13convol2d_workERKN5Eigen6MatrixIdLin1ELin1ELi0ELin1ELin1EEES4_"
 "_ZN6atomic14atomicD_lgammaIdE14rev_sparse_jacEyRKN5CppAD6vectorIbEERS4_"
 "_ZN6atomic14atomicD_lgammaIdE14rev_sparse_jacEyRKN5CppAD6vectorISt3setIySt4lessIyESaIyEEEERS9_"
 "_ZN6atomic14atomicD_lgammaIdE7forwardEyyRKN5CppAD6vectorIbEERS4_RKNS3_IdEERS8_"
 "_ZN6atomic14atomicD_lgammaIdE7reverseEyRKN5CppAD6vectorIdEES6_RS4_S6_"
 "_ZN6atomic14atomicD_lgammaIdEC1EPKc"
 "_ZN6atomic14atomicD_lgammaIdED0Ev"
 "_ZN6atomic14atomicD_lgammaIdED1Ev"
 "_ZN6atomic14atomicD_lgammaIN5CppAD2ADIdEEE14rev_sparse_jacEyRKNS1_6vectorIbEERS6_"
 "_ZN6atomic14atomicD_lgammaIN5CppAD2ADIdEEE14rev_sparse_jacEyRKNS1_6vectorISt3setIySt4lessIyESaIyEEEERSB_"
 "_ZN6atomic14atomicD_lgammaIN5CppAD2ADIdEEE7forwardEyyRKNS1_6vectorIbEERS6_RKNS5_IS3_EERSA_"
 "_ZN6atomic14atomicD_lgammaIN5CppAD2ADIdEEE7reverseEyRKNS1_6vectorIS3_EES8_RS6_S8_"
 "_ZN6atomic14atomicD_lgammaIN5CppAD2ADIdEEEC1EPKc"
 "_ZN6atomic14atomicD_lgammaIN5CppAD2ADIdEEED0Ev"
 "_ZN6atomic14atomicD_lgammaIN5CppAD2ADIdEEED1Ev"
 "_ZN6atomic14atomicD_lgammaIN5CppAD2ADINS2_IdEEEEE14rev_sparse_jacEyRKNS1_6vectorIbEERS7_"
 "_ZN6atomic14atomicD_lgammaIN5CppAD2ADINS2_IdEEEEE14rev_sparse_jacEyRKNS1_6vectorISt3setIySt4lessIyESaIyEEEERSC_"
 "_ZN6atomic14atomicD_lgammaIN5CppAD2ADINS2_IdEEEEE7forwardEyyRKNS1_6vectorIbEERS7_RKNS6_IS4_EERSB_"
 "_ZN6atomic14atomicD_lgammaIN5CppAD2ADINS2_IdEEEEE7reverseEyRKNS1_6vectorIS4_EES9_RS7_S9_"
 "_ZN6atomic14atomicD_lgammaIN5CppAD2ADINS2_IdEEEEEC1EPKc"
 "_ZN6atomic14atomicD_lgammaIN5CppAD2ADINS2_IdEEEEED0Ev"
 "_ZN6atomic14atomicD_lgammaIN5CppAD2ADINS2_IdEEEEED1Ev"
 "_ZN6atomic14nestedTriangleILi0EE16bottomLeftCornerEv"
 "_ZN6atomic14nestedTriangleILi0EEaSEOS1_"
 "_ZN6atomic14nestedTriangleILi0EEaSERKS1_"
 "_ZN6atomic14nestedTriangleILi0EEC1EN8tmbutils6vectorINS2_6matrixIdEEEE"
 "_ZN6atomic14nestedTriangleILi0EEC1ENS_5BlockIdEE"
 "_ZN6atomic14nestedTriangleILi0EEC1ERKS1_"
 "_ZN6atomic14nestedTriangleILi0EEC1Ev"
 "_ZN6atomic14nestedTriangleILi0EED1Ev"
 "_ZN6atomic14nestedTriangleILi1EE16bottomLeftCornerEv"
 "_ZN6atomic14nestedTriangleILi1EEaSEOS1_"
 "_ZN6atomic14nestedTriangleILi1EEaSERKS1_"
 "_ZN6atomic14nestedTriangleILi1EEC1EN8tmbutils6vectorINS2_6matrixIdEEEE"
 "_ZN6atomic14nestedTriangleILi1EEC1ENS_8TriangleINS0_ILi0EEEEE"
 "_ZN6atomic14nestedTriangleILi1EEC1ERKS1_"
 "_ZN6atomic14nestedTriangleILi1EEC1Ev"
 "_ZN6atomic14nestedTriangleILi1EED1Ev"
 "_ZN6atomic14nestedTriangleILi2EE16bottomLeftCornerEv"
 "_ZN6atomic14nestedTriangleILi2EEaSEOS1_"
 "_ZN6atomic14nestedTriangleILi2EEaSERKS1_"
 "_ZN6atomic14nestedTriangleILi2EEC1EN8tmbutils6vectorINS2_6matrixIdEEEE"
 "_ZN6atomic14nestedTriangleILi2EEC1ENS_8TriangleINS0_ILi1EEEEE"
 "_ZN6atomic14nestedTriangleILi2EEC1ERKS1_"
 "_ZN6atomic14nestedTriangleILi2EEC1Ev"
 "_ZN6atomic14nestedTriangleILi2EED1Ev"
 "_ZN6atomic14nestedTriangleILi3EE16bottomLeftCornerEv"
 "_ZN6atomic14nestedTriangleILi3EEaSEOS1_"
 "_ZN6atomic14nestedTriangleILi3EEC1EN8tmbutils6vectorINS2_6matrixIdEEEE"
 "_ZN6atomic14nestedTriangleILi3EEC1ENS_8TriangleINS0_ILi2EEEEE"
 "_ZN6atomic14nestedTriangleILi3EEC1ERKS1_"
 "_ZN6atomic14nestedTriangleILi3EED1Ev"
 "_ZN6atomic23atomicFunctionGeneratedE"
 "_ZN6atomic4expmEN8tmbutils6vectorINS0_6matrixIdEEEE"
 "_ZN6atomic4expmINS_14nestedTriangleILi0EEEEET_S3_"
 "_ZN6atomic4expmINS_14nestedTriangleILi1EEEEET_S3_"
 "_ZN6atomic4expmINS_14nestedTriangleILi2EEEEET_S3_"
 "_ZN6atomic4expmINS_14nestedTriangleILi3EEEEET_S3_"
 "_ZN6atomic5BlockIdE11addIdentityEv"
 "_ZN6atomic5BlockIdE4normEv"
 "_ZN6atomic5BlockIdE5scaleEd"
 "_ZN6atomic5BlockIdE7inverseEv"
 "_ZN6atomic5BlockIdEaSEOS1_"
 "_ZN6atomic5BlockIdEaSERKS1_"
 "_ZN6atomic5BlockIdEC1EN8tmbutils6matrixIdEE"
 "_ZN6atomic5BlockIdEC1ERKS1_"
 "_ZN6atomic5BlockIdEC2EN8tmbutils6matrixIdEE"
 "_ZN6atomic5BlockIdEC2ERKS1_"
 "_ZN6atomic5BlockIdEC2Ev"
 "_ZN6atomic5BlockIdED1Ev"
 "_ZN6atomic5BlockIdED2Ev"
 "_ZN6atomic5BlockIdEmIES1_"
 "_ZN6atomic5BlockIdEmlES1_"
 "_ZN6atomic5BlockIdEpLES1_"
 "_ZN6atomic5Rmath15inv_incpl_gammaEddd"
 "_ZN6atomic5Rmath19D_incpl_gamma_shapeEdddd"
 "_ZN6atomic5Rmath29integrand_D_incpl_gamma_shapeEPdiPv"
 "_ZN6atomic5Rmath8D_lgammaEdd"
 "_ZN6atomic6matmulIdEEN8tmbutils6matrixIT_EES4_S4_"
 "_ZN6atomic7tiny_ad6lgammaERKd"
 "_ZN6atomic7tiny_ad6lgammaILi0EEEdRKd"
 "_ZN6atomic7tiny_ad8asDoubleEd"
 "_ZN6atomic7tiny_ad8isfiniteERKd"
 "_ZN6atomic7tiny_ad8max_fabsEd"
 "_ZN6atomic8D_lgammaIdEEN5CppAD6vectorIdEERKNS2_IT_EE"
 "_ZN6atomic8D_lgammaIdEEN5CppAD6vectorINS1_2ADIT_EEEERKS6_"
 "_ZN6atomic8D_lgammaIdEEvRKN5CppAD6vectorINS1_2ADIT_EEEERS6_"
 "_ZN6atomic8D_lgammaIdEEvRKN5CppAD6vectorIT_EERS4_"
 "_ZN6atomic8D_lgammaIN5CppAD2ADIdEEEENS1_6vectorINS2_IT_EEEERKS7_"
 "_ZN6atomic8D_lgammaIN5CppAD2ADIdEEEEvRKNS1_6vectorINS2_IT_EEEERS7_"
 "_ZN6atomic8D_lgammaIN5CppAD2ADINS2_IdEEEEEENS1_6vectorINS2_IT_EEEERKS8_"
 "_ZN6atomic8D_lgammaIN5CppAD2ADINS2_IdEEEEEEvRKNS1_6vectorINS2_IT_EEEERS8_"
 "_ZN6atomic8TriangleINS_14nestedTriangleILi0EEEE11addIdentityEv"
 "_ZN6atomic8TriangleINS_14nestedTriangleILi0EEEE4normEv"
 "_ZN6atomic8TriangleINS_14nestedTriangleILi0EEEE5scaleEd"
 "_ZN6atomic8TriangleINS_14nestedTriangleILi0EEEE7inverseEv"
 "_ZN6atomic8TriangleINS_14nestedTriangleILi0EEEEaSEOS3_"
 "_ZN6atomic8TriangleINS_14nestedTriangleILi0EEEEaSERKS3_"
 "_ZN6atomic8TriangleINS_14nestedTriangleILi0EEEEC1ERKS3_"
 "_ZN6atomic8TriangleINS_14nestedTriangleILi0EEEEC1ES2_S2_"
 "_ZN6atomic8TriangleINS_14nestedTriangleILi0EEEEC2ERKS3_"
 "_ZN6atomic8TriangleINS_14nestedTriangleILi0EEEEC2Ev"
 "_ZN6atomic8TriangleINS_14nestedTriangleILi0EEEED1Ev"
 "_ZN6atomic8TriangleINS_14nestedTriangleILi0EEEED2Ev"
 "_ZN6atomic8TriangleINS_14nestedTriangleILi0EEEEmIES3_"
 "_ZN6atomic8TriangleINS_14nestedTriangleILi0EEEEmlES3_"
 "_ZN6atomic8TriangleINS_14nestedTriangleILi0EEEEpLES3_"
 "_ZN6atomic8TriangleINS_14nestedTriangleILi1EEEE11addIdentityEv"
 "_ZN6atomic8TriangleINS_14nestedTriangleILi1EEEE4normEv"
 "_ZN6atomic8TriangleINS_14nestedTriangleILi1EEEE5scaleEd"
 "_ZN6atomic8TriangleINS_14nestedTriangleILi1EEEE7inverseEv"
 "_ZN6atomic8TriangleINS_14nestedTriangleILi1EEEEaSEOS3_"
 "_ZN6atomic8TriangleINS_14nestedTriangleILi1EEEEaSERKS3_"
 "_ZN6atomic8TriangleINS_14nestedTriangleILi1EEEEC1ERKS3_"
 "_ZN6atomic8TriangleINS_14nestedTriangleILi1EEEEC1ES2_S2_"
 "_ZN6atomic8TriangleINS_14nestedTriangleILi1EEEEC2ERKS3_"
 "_ZN6atomic8TriangleINS_14nestedTriangleILi1EEEEC2Ev"
 "_ZN6atomic8TriangleINS_14nestedTriangleILi1EEEED1Ev"
 "_ZN6atomic8TriangleINS_14nestedTriangleILi1EEEED2Ev"
 "_ZN6atomic8TriangleINS_14nestedTriangleILi1EEEEmIES3_"
 "_ZN6atomic8TriangleINS_14nestedTriangleILi1EEEEmlES3_"
 "_ZN6atomic8TriangleINS_14nestedTriangleILi1EEEEpLES3_"
 "_ZN6atomic8TriangleINS_14nestedTriangleILi2EEEE11addIdentityEv"
 "_ZN6atomic8TriangleINS_14nestedTriangleILi2EEEE4normEv"
 "_ZN6atomic8TriangleINS_14nestedTriangleILi2EEEE5scaleEd"
 "_ZN6atomic8TriangleINS_14nestedTriangleILi2EEEE7inverseEv"
 "_ZN6atomic8TriangleINS_14nestedTriangleILi2EEEEaSEOS3_"
 "_ZN6atomic8TriangleINS_14nestedTriangleILi2EEEEC1ERKS3_"
 "_ZN6atomic8TriangleINS_14nestedTriangleILi2EEEEC1ES2_S2_"
 "_ZN6atomic8TriangleINS_14nestedTriangleILi2EEEEC2ERKS3_"
 "_ZN6atomic8TriangleINS_14nestedTriangleILi2EEEEC2Ev"
 "_ZN6atomic8TriangleINS_14nestedTriangleILi2EEEED1Ev"
 "_ZN6atomic8TriangleINS_14nestedTriangleILi2EEEED2Ev"
 "_ZN6atomic8TriangleINS_14nestedTriangleILi2EEEEmIES3_"
 "_ZN6atomic8TriangleINS_14nestedTriangleILi2EEEEmlES3_"
 "_ZN6atomic8TriangleINS_14nestedTriangleILi2EEEEpLES3_"
 "_ZN8RostreamILb0EEC1Ev"
 "_ZN8RostreamILb0EED0Ev"
 "_ZN8RostreamILb0EED1Ev"
 "_ZN8RostreamILb1EEC1Ev"
 "_ZN8RostreamILb1EED0Ev"
 "_ZN8RostreamILb1EED1Ev"
 "_ZN8sphess_tIN5CppAD5ADFunIdEEEC1EPS2_N8tmbutils6vectorIiEES7_"
 "_ZN8sphess_tIN5CppAD5ADFunIdEEED1Ev"
 "_ZN8tmbutils6matrixIdEaSEOS1_"
 "_ZN8tmbutils6matrixIdEaSERKS1_"
 "_ZN8tmbutils6matrixIdEaSIN5Eigen12CwiseUnaryOpINS3_8internal13scalar_abs_opIdEEKNS3_12ArrayWrapperINS3_6MatrixIdLin1ELin1ELi0ELin1ELin1EEEEEEEEERS1_RKT_"
 "_ZN8tmbutils6matrixIdEC1ERKS1_"
 "_ZN8tmbutils6matrixIdEC1Ev"
 "_ZN8tmbutils6matrixIdEC1IiiEET_T0_"
 "_ZN8tmbutils6matrixIdEC1IN5Eigen13CwiseBinaryOpINS3_8internal13scalar_sum_opIddEEKNS3_6MatrixIdLin1ELin1ELi0ELin1ELin1EEESA_EEEET_"
 "_ZN8tmbutils6matrixIdEC1IN5Eigen13CwiseBinaryOpINS3_8internal17scalar_product_opIddEEKNS3_14CwiseNullaryOpINS5_18scalar_constant_opIdEEKNS3_6MatrixIdLin1ELin1ELi0ELin1ELin1EEEEESD_EEEET_"
 "_ZN8tmbutils6matrixIdEC1IN5Eigen13CwiseBinaryOpINS3_8internal17scalar_product_opIddEEKNS3_6MatrixIdLin1ELin1ELi0ELin1ELin1EEEKNS3_14CwiseNullaryOpINS5_18scalar_constant_opIdEESA_EEEEEET_"
 "_ZN8tmbutils6matrixIdEC1IN5Eigen13MatrixWrapperIKNS3_5ArrayIdLin1ELi1ELi0ELin1ELi1EEEEEEET_"
 "_ZN8tmbutils6matrixIdEC1IN5Eigen7InverseINS3_6MatrixIdLin1ELin1ELi0ELin1ELin1EEEEEEET_"
 "_ZN8tmbutils6matrixIdEC1IN5Eigen7ProductINS3_6MatrixIdLin1ELin1ELi0ELin1ELin1EEES6_Li0EEEEET_"
 "_ZN8tmbutils6matrixIdEC1IxxEET_T0_"
 "_ZN8tmbutils6matrixIdED1Ev"
 "_ZN8tmbutils6matrixIiEC1IN5Eigen13MatrixWrapperIKNS3_5ArrayIiLin1ELi1ELi0ELin1ELi1EEEEEEET_"
 "_ZN8tmbutils6matrixIiED1Ev"
 "_ZN8tmbutils6matrixIN5CppAD2ADIdEEEC1IiiEET_T0_"
 "_ZN8tmbutils6matrixIN5CppAD2ADIdEEED1Ev"
 "_ZN8tmbutils6matrixIN5CppAD2ADINS2_IdEEEEEC1IiiEET_T0_"
 "_ZN8tmbutils6matrixIN5CppAD2ADINS2_IdEEEEED1Ev"
 "_ZN8tmbutils6matrixIN5CppAD2ADINS2_INS2_IdEEEEEEEC1IiiEET_T0_"
 "_ZN8tmbutils6matrixIN5CppAD2ADINS2_INS2_IdEEEEEEED1Ev"
 "_ZN8tmbutils6vectorIbEC1Ev"
 "_ZN8tmbutils6vectorIbEC1IiEET_"
 "_ZN8tmbutils6vectorIbEcvN5CppAD6vectorIT_EEIbEEv"
 "_ZN8tmbutils6vectorIbED1Ev"
 "_ZN8tmbutils6vectorIdEaSEOS1_"
 "_ZN8tmbutils6vectorIdEaSERKS1_"
 "_ZN8tmbutils6vectorIdEaSIN5Eigen13CwiseBinaryOpINS3_8internal13scalar_sum_opIddEEKNS3_5ArrayIdLin1ELi1ELi0ELin1ELi1EEESA_EEEERS1_RKT_"
 "_ZN8tmbutils6vectorIdEC1EOS1_"
 "_ZN8tmbutils6vectorIdEC1ERKS1_"
 "_ZN8tmbutils6vectorIdEC1Ev"
 "_ZN8tmbutils6vectorIdEC1IiEET_"
 "_ZN8tmbutils6vectorIdEC1IN5Eigen16PartialReduxExprINS3_6MatrixIdLin1ELin1ELi0ELin1ELin1EEENS3_8internal10member_sumIdEELi1EEEEET_"
 "_ZN8tmbutils6vectorIdEC1IN5Eigen3MapINS3_6MatrixIdLin1ELi1ELi0ELin1ELi1EEELi0ENS3_6StrideILi0ELi0EEEEEEET_"
 "_ZN8tmbutils6vectorIdEC1IyEET_"
 "_ZN8tmbutils6vectorIdED1Ev"
 "_ZN8tmbutils6vectorIiEaSERKS1_"
 "_ZN8tmbutils6vectorIiEC1ERKS1_"
 "_ZN8tmbutils6vectorIiEC1Ev"
 "_ZN8tmbutils6vectorIiEC1IiEET_"
 "_ZN8tmbutils6vectorIiEC1IN5Eigen12CwiseUnaryOpINS3_8internal14scalar_cast_opIbiEEKNS3_5ArrayIbLin1ELi1ELi0ELin1ELi1EEEEEEET_"
 "_ZN8tmbutils6vectorIiEC1IN5Eigen12CwiseUnaryOpINS3_8internal14scalar_cast_opIdiEEKNS3_3MapINS3_6MatrixIdLin1ELi1ELi0ELin1ELi1EEELi0ENS3_6StrideILi0ELi0EEEEEEEEET_"
 "_ZN8tmbutils6vectorIiED1Ev"
 "_ZN8tmbutils6vectorIN5CppAD2ADIdEEEaSEOS4_"
 "_ZN8tmbutils6vectorIN5CppAD2ADIdEEEC1EOS4_"
 "_ZN8tmbutils6vectorIN5CppAD2ADIdEEEC1ERKS4_"
 "_ZN8tmbutils6vectorIN5CppAD2ADIdEEEC1Ev"
 "_ZN8tmbutils6vectorIN5CppAD2ADIdEEEC1IiEET_"
 "_ZN8tmbutils6vectorIN5CppAD2ADIdEEEC1IN5Eigen12CwiseUnaryOpINS6_8internal14scalar_cast_opIdS3_EEKNS6_3MapINS6_6MatrixIdLin1ELi1ELi0ELin1ELi1EEELi0ENS6_6StrideILi0ELi0EEEEEEEEET_"
 "_ZN8tmbutils6vectorIN5CppAD2ADIdEEEC1IyEET_"
 "_ZN8tmbutils6vectorIN5CppAD2ADIdEEED1Ev"
 "_ZN8tmbutils6vectorIN5CppAD2ADINS2_IdEEEEEaSEOS5_"
 "_ZN8tmbutils6vectorIN5CppAD2ADINS2_IdEEEEEC1EOS5_"
 "_ZN8tmbutils6vectorIN5CppAD2ADINS2_IdEEEEEC1ERKS5_"
 "_ZN8tmbutils6vectorIN5CppAD2ADINS2_IdEEEEEC1Ev"
 "_ZN8tmbutils6vectorIN5CppAD2ADINS2_IdEEEEEC1IiEET_"
 "_ZN8tmbutils6vectorIN5CppAD2ADINS2_IdEEEEEC1IN5Eigen12CwiseUnaryOpINS7_8internal14scalar_cast_opIdS4_EEKNS7_3MapINS7_6MatrixIdLin1ELi1ELi0ELin1ELi1EEELi0ENS7_6StrideILi0ELi0EEEEEEEEET_"
 "_ZN8tmbutils6vectorIN5CppAD2ADINS2_IdEEEEEC1IyEET_"
 "_ZN8tmbutils6vectorIN5CppAD2ADINS2_IdEEEEED1Ev"
 "_ZN8tmbutils6vectorIN5CppAD2ADINS2_INS2_IdEEEEEEEaSEOS6_"
 "_ZN8tmbutils6vectorIN5CppAD2ADINS2_INS2_IdEEEEEEEC1EOS6_"
 "_ZN8tmbutils6vectorIN5CppAD2ADINS2_INS2_IdEEEEEEEC1ERKS6_"
 "_ZN8tmbutils6vectorIN5CppAD2ADINS2_INS2_IdEEEEEEEC1Ev"
 "_ZN8tmbutils6vectorIN5CppAD2ADINS2_INS2_IdEEEEEEEC1IiEET_"
 "_ZN8tmbutils6vectorIN5CppAD2ADINS2_INS2_IdEEEEEEEC1IN5Eigen12CwiseUnaryOpINS8_8internal14scalar_cast_opIdS5_EEKNS8_3MapINS8_6MatrixIdLin1ELi1ELi0ELin1ELi1EEELi0ENS8_6StrideILi0ELi0EEEEEEEEET_"
 "_ZN8tmbutils6vectorIN5CppAD2ADINS2_INS2_IdEEEEEEED1Ev"
 "_ZN8tmbutils6vectorIN5Eigen6MatrixIdLin1ELi1ELi0ELin1ELi1EEEEC1IiEET_"
 "_ZN8tmbutils6vectorIN5Eigen6MatrixIdLin1ELi1ELi0ELin1ELi1EEEED1Ev"
 "_ZN8tmbutils6vectorINS_6matrixIdEEEC1ERKS3_"
 "_ZN8tmbutils6vectorINS_6matrixIdEEEC1IiEET_"
 "_ZN8tmbutils6vectorINS_6matrixIdEEEC1IN5Eigen11VectorBlockINS5_5ArrayIS2_Lin1ELi1ELi0ELin1ELi1EEELin1EEEEET_"
 "_ZN8tmbutils6vectorINS_6matrixIdEEED1Ev"
 "_ZN8tmbutils6vectorINS0_IdEEEC1IiEET_"
 "_ZN8tmbutils6vectorINS0_IdEEED1Ev"
 "_ZN8tmbutils6vectorINS0_IiEEEC1Ev"
 "_ZN8tmbutils6vectorINS0_IiEEED1Ev"
 "_ZN8tmbutils6vectorINS0_IyEEED1Ev"
 "_ZN8tmbutils6vectorIP8sphess_tIN5CppAD5ADFunIdEEEED1Ev"
 "_ZN8tmbutils6vectorIPKcEC1Ev"
 "_ZN8tmbutils6vectorIPKcED1Ev"
 "_ZN8tmbutils6vectorIPN5CppAD5ADFunIdEEED1Ev"
 "_ZN8tmbutils6vectorIyEC1IiEET_"
 "_ZN8tmbutils6vectorIyED1Ev"
 "_ZN9__gnu_cxx13new_allocatorIN5CppAD8optimize20struct_csum_variableEE10deallocateEPS3_y"
 "_ZN9__gnu_cxx13new_allocatorIN5CppAD8optimize20struct_csum_variableEE7destroyIS3_EEvPT_"
 "_ZN9__gnu_cxx13new_allocatorIN5CppAD8optimize20struct_csum_variableEE8allocateEyPKv"
 "_ZN9__gnu_cxx13new_allocatorIN5CppAD8optimize20struct_csum_variableEE9constructIS3_IRKS3_EEEvPT_DpOT0_"
 "_ZN9__gnu_cxx13new_allocatorIN5CppAD8optimize20struct_csum_variableEEC2ERKS4_"
 "_ZN9__gnu_cxx13new_allocatorIN5CppAD8optimize20struct_csum_variableEEC2Ev"
 "_ZN9__gnu_cxx13new_allocatorIN5CppAD8optimize20struct_csum_variableEED2Ev"
 "_ZN9__gnu_cxx13new_allocatorIPN5CppAD11atomic_baseIdEEE10deallocateEPS4_y"
 "_ZN9__gnu_cxx13new_allocatorIPN5CppAD11atomic_baseIdEEE7destroyIS4_EEvPT_"
 "_ZN9__gnu_cxx13new_allocatorIPN5CppAD11atomic_baseIdEEE8allocateEyPKv"
 "_ZN9__gnu_cxx13new_allocatorIPN5CppAD11atomic_baseIdEEE9constructIS4_IS4_EEEvPT_DpOT0_"
 "_ZN9__gnu_cxx13new_allocatorIPN5CppAD11atomic_baseIdEEEC2Ev"
 "_ZN9__gnu_cxx13new_allocatorIPN5CppAD11atomic_baseIdEEED2Ev"
 "_ZN9__gnu_cxx13new_allocatorIPN5CppAD11atomic_baseINS1_2ADIdEEEEE10deallocateEPS6_y"
 "_ZN9__gnu_cxx13new_allocatorIPN5CppAD11atomic_baseINS1_2ADIdEEEEE7destroyIS6_EEvPT_"
 "_ZN9__gnu_cxx13new_allocatorIPN5CppAD11atomic_baseINS1_2ADIdEEEEE8allocateEyPKv"
 "_ZN9__gnu_cxx13new_allocatorIPN5CppAD11atomic_baseINS1_2ADIdEEEEE9constructIS6_IS6_EEEvPT_DpOT0_"
 "_ZN9__gnu_cxx13new_allocatorIPN5CppAD11atomic_baseINS1_2ADIdEEEEEC2Ev"
 "_ZN9__gnu_cxx13new_allocatorIPN5CppAD11atomic_baseINS1_2ADIdEEEEED2Ev"
 "_ZN9__gnu_cxx13new_allocatorIPN5CppAD11atomic_baseINS1_2ADINS3_IdEEEEEEE10deallocateEPS7_y"
 "_ZN9__gnu_cxx13new_allocatorIPN5CppAD11atomic_baseINS1_2ADINS3_IdEEEEEEE7destroyIS7_EEvPT_"
 "_ZN9__gnu_cxx13new_allocatorIPN5CppAD11atomic_baseINS1_2ADINS3_IdEEEEEEE8allocateEyPKv"
 "_ZN9__gnu_cxx13new_allocatorIPN5CppAD11atomic_baseINS1_2ADINS3_IdEEEEEEE9constructIS7_IS7_EEEvPT_DpOT0_"
 "_ZN9__gnu_cxx13new_allocatorIPN5CppAD11atomic_baseINS1_2ADINS3_IdEEEEEEEC2Ev"
 "_ZN9__gnu_cxx13new_allocatorIPN5CppAD11atomic_baseINS1_2ADINS3_IdEEEEEEED2Ev"
 "_ZN9__gnu_cxx13new_allocatorIPN5CppAD8discreteIdEEE10deallocateEPS4_y"
 "_ZN9__gnu_cxx13new_allocatorIPN5CppAD8discreteIdEEEC2Ev"
 "_ZN9__gnu_cxx13new_allocatorIPN5CppAD8discreteIdEEED2Ev"
 "_ZN9__gnu_cxx13new_allocatorIPN5CppAD8discreteINS1_2ADIdEEEEE10deallocateEPS6_y"
 "_ZN9__gnu_cxx13new_allocatorIPN5CppAD8discreteINS1_2ADIdEEEEEC2Ev"
 "_ZN9__gnu_cxx13new_allocatorIPN5CppAD8discreteINS1_2ADIdEEEEED2Ev"
 "_ZN9__gnu_cxx13new_allocatorIPN5CppAD8discreteINS1_2ADINS3_IdEEEEEEE10deallocateEPS7_y"
 "_ZN9__gnu_cxx13new_allocatorIPN5CppAD8discreteINS1_2ADINS3_IdEEEEEEEC2Ev"
 "_ZN9__gnu_cxx13new_allocatorIPN5CppAD8discreteINS1_2ADINS3_IdEEEEEEED2Ev"
 "_ZN9__gnu_cxx13new_allocatorIPN5CppAD8optimize20struct_csum_variableEE10deallocateEPS4_y"
 "_ZN9__gnu_cxx13new_allocatorIPN5CppAD8optimize20struct_csum_variableEE8allocateEyPKv"
 "_ZN9__gnu_cxx13new_allocatorIPN5CppAD8optimize20struct_csum_variableEEC2Ev"
 "_ZN9__gnu_cxx13new_allocatorIPN5CppAD8optimize20struct_csum_variableEED2Ev"
 "_ZN9__gnu_cxx13new_allocatorIPyE10deallocateEPS1_y"
 "_ZN9__gnu_cxx13new_allocatorIPyE8allocateEyPKv"
 "_ZN9__gnu_cxx13new_allocatorIPyEC2Ev"
 "_ZN9__gnu_cxx13new_allocatorIPyED2Ev"
 "_ZN9__gnu_cxx13new_allocatorISsE10deallocateEPSsy"
 "_ZN9__gnu_cxx13new_allocatorISsE7destroyISsEEvPT_"
 "_ZN9__gnu_cxx13new_allocatorISsE8allocateEyPKv"
 "_ZN9__gnu_cxx13new_allocatorISsE9constructISsIRKSsEEEvPT_DpOT0_"
 "_ZN9__gnu_cxx13new_allocatorISsEC2Ev"
 "_ZN9__gnu_cxx13new_allocatorISsED2Ev"
 "_ZN9__gnu_cxx13new_allocatorISt13_Rb_tree_nodeIN5CppAD8optimize15class_cexp_pairEEE10deallocateEPS5_y"
 "_ZN9__gnu_cxx13new_allocatorISt13_Rb_tree_nodeIN5CppAD8optimize15class_cexp_pairEEE7destroyIS4_EEvPT_"
 "_ZN9__gnu_cxx13new_allocatorISt13_Rb_tree_nodeIN5CppAD8optimize15class_cexp_pairEEE8allocateEyPKv"
 "_ZN9__gnu_cxx13new_allocatorISt13_Rb_tree_nodeIN5CppAD8optimize15class_cexp_pairEEE9constructIS4_IRKS4_EEEvPT_DpOT0_"
 "_ZN9__gnu_cxx13new_allocatorISt13_Rb_tree_nodeIN5CppAD8optimize15class_cexp_pairEEEC2Ev"
 "_ZN9__gnu_cxx13new_allocatorISt13_Rb_tree_nodeIN5CppAD8optimize15class_cexp_pairEEED2Ev"
 "_ZN9__gnu_cxx13new_allocatorISt13_Rb_tree_nodeIP7SEXPRECEE10deallocateEPS4_y"
 "_ZN9__gnu_cxx13new_allocatorISt13_Rb_tree_nodeIP7SEXPRECEE7destroyIS3_EEvPT_"
 "_ZN9__gnu_cxx13new_allocatorISt13_Rb_tree_nodeIP7SEXPRECEE8allocateEyPKv"
 "_ZN9__gnu_cxx13new_allocatorISt13_Rb_tree_nodeIP7SEXPRECEE9constructIS3_IRKS3_EEEvPT_DpOT0_"
 "_ZN9__gnu_cxx13new_allocatorISt13_Rb_tree_nodeIP7SEXPRECEEC2Ev"
 "_ZN9__gnu_cxx13new_allocatorISt13_Rb_tree_nodeIP7SEXPRECEED2Ev"
 "_ZN9__gnu_cxx13new_allocatorISt13_Rb_tree_nodeIyEE10deallocateEPS2_y"
 "_ZN9__gnu_cxx13new_allocatorISt13_Rb_tree_nodeIyEE7destroyIyEEvPT_"
 "_ZN9__gnu_cxx13new_allocatorISt13_Rb_tree_nodeIyEE8allocateEyPKv"
 "_ZN9__gnu_cxx13new_allocatorISt13_Rb_tree_nodeIyEE9constructIyIRKyEEEvPT_DpOT0_"
 "_ZN9__gnu_cxx13new_allocatorISt13_Rb_tree_nodeIyEE9constructIyIyEEEvPT_DpOT0_"
 "_ZN9__gnu_cxx13new_allocatorISt13_Rb_tree_nodeIyEEC2Ev"
 "_ZN9__gnu_cxx13new_allocatorISt13_Rb_tree_nodeIyEED2Ev"
 "_ZN9__gnu_cxx13new_allocatorIyE10deallocateEPyy"
 "_ZN9__gnu_cxx13new_allocatorIyE7destroyIyEEvPT_"
 "_ZN9__gnu_cxx13new_allocatorIyE8allocateEyPKv"
 "_ZN9__gnu_cxx13new_allocatorIyE9constructIyIRKyEEEvPT_DpOT0_"
 "_ZN9__gnu_cxx13new_allocatorIyE9constructIyIyEEEvPT_DpOT0_"
 "_ZN9__gnu_cxx13new_allocatorIyEC2ERKS1_"
 "_ZN9__gnu_cxx13new_allocatorIyEC2Ev"
 "_ZN9__gnu_cxx13new_allocatorIyED2Ev"
 "_ZN9__gnu_cxx14__alloc_traitsISaISt13_Rb_tree_nodeIN5CppAD8optimize15class_cexp_pairEEEE15_S_always_equalEv"
 "_ZN9__gnu_cxx14__alloc_traitsISaISt13_Rb_tree_nodeIN5CppAD8optimize15class_cexp_pairEEEE27_S_propagate_on_copy_assignEv"
 "_ZN9__gnu_cxx16__aligned_bufferIN5CppAD8optimize15class_cexp_pairEE6_M_ptrEv"
 "_ZN9__gnu_cxx16__aligned_bufferIN5CppAD8optimize15class_cexp_pairEE7_M_addrEv"
 "_ZN9__gnu_cxx16__aligned_bufferIP7SEXPRECE6_M_ptrEv"
 "_ZN9__gnu_cxx16__aligned_bufferIP7SEXPRECE7_M_addrEv"
 "_ZN9__gnu_cxx16__aligned_bufferIyE6_M_ptrEv"
 "_ZN9__gnu_cxx16__aligned_bufferIyE7_M_addrEv"
 "_ZN9__gnu_cxx17__normal_iteratorIPySt6vectorIySaIyEEEC1ERKS1_"
 "_ZN9__gnu_cxx17__normal_iteratorIPySt6vectorIySaIyEEEC1Ev"
 "_ZN9__gnu_cxx17__normal_iteratorIPySt6vectorIySaIyEEEmmEv"
 "_ZN9__gnu_cxx17__normal_iteratorIPySt6vectorIySaIyEEEppEi"
 "_ZN9__gnu_cxx17__normal_iteratorIPySt6vectorIySaIyEEEppEv"
 "_ZN9__gnu_cxx5__ops15__iter_comp_valENS0_15_Iter_less_iterE"
 "_ZN9__gnu_cxx5__ops15__val_comp_iterENS0_15_Iter_less_iterE"
 "_ZN9__gnu_cxx5__ops16__iter_less_iterEv"
 "_ZN9__gnu_cxxeqIPySt6vectorIySaIyEEEEbRKNS_17__normal_iteratorIT_T0_EESA_"
 "_ZN9__gnu_cxxltIPySt6vectorIySaIyEEEEbRKNS_17__normal_iteratorIT_T0_EESA_"
 "_ZN9__gnu_cxxmiIPySt6vectorIySaIyEEEENS_17__normal_iteratorIT_T0_E15difference_typeERKS8_SB_"
 "_ZN9__gnu_cxxneIPySt6vectorIySaIyEEEEbRKNS_17__normal_iteratorIT_T0_EESA_"
 "_ZNK5CppAD10pod_vectorIcE4dataEv"
 "_ZNK5CppAD10pod_vectorIcE4sizeEv"
 "_ZNK5CppAD10pod_vectorIdE4dataEv"
 "_ZNK5CppAD10pod_vectorIdE4sizeEv"
 "_ZNK5CppAD10pod_vectorIdEixEy"
 "_ZNK5CppAD10pod_vectorIhE4sizeEv"
 "_ZNK5CppAD10pod_vectorIjE4dataEv"
 "_ZNK5CppAD10pod_vectorIjE4sizeEv"
 "_ZNK5CppAD10pod_vectorIjEixEy"
 "_ZNK5CppAD10pod_vectorINS_11sparse_list11pair_size_tEEixEy"
 "_ZNK5CppAD10pod_vectorINS_2ADIdEEE4dataEv"
 "_ZNK5CppAD10pod_vectorINS_2ADIdEEE4sizeEv"
 "_ZNK5CppAD10pod_vectorINS_2ADIdEEEixEy"
 "_ZNK5CppAD10pod_vectorINS_2ADINS1_IdEEEEE4dataEv"
 "_ZNK5CppAD10pod_vectorINS_2ADINS1_IdEEEEE4sizeEv"
 "_ZNK5CppAD10pod_vectorIyEixEy"
 "_ZNK5CppAD11atomic_baseIdE8sparsityEv"
 "_ZNK5CppAD11atomic_baseINS_2ADIdEEE8sparsityEv"
 "_ZNK5CppAD11sparse_list15number_elementsEv"
 "_ZNK5CppAD11sparse_list15number_elementsEy"
 "_ZNK5CppAD11sparse_pack3endEv"
 "_ZNK5CppAD11sparse_pack6memoryEv"
 "_ZNK5CppAD18index_sort_elementIyE9get_indexEv"
 "_ZNK5CppAD18index_sort_elementIyEltERKS1_"
 "_ZNK5CppAD2ADIdE3AbsEv"
 "_ZNK5CppAD2ADIdE3cosEv"
 "_ZNK5CppAD2ADIdE3expEv"
 "_ZNK5CppAD2ADIdE3logEv"
 "_ZNK5CppAD2ADIdE3sinEv"
 "_ZNK5CppAD2ADIdE3tanEv"
 "_ZNK5CppAD2ADIdE4acosEv"
 "_ZNK5CppAD2ADIdE4asinEv"
 "_ZNK5CppAD2ADIdE4atanEv"
 "_ZNK5CppAD2ADIdE4coshEv"
 "_ZNK5CppAD2ADIdE4SignEv"
 "_ZNK5CppAD2ADIdE4sinhEv"
 "_ZNK5CppAD2ADIdE4sqrtEv"
 "_ZNK5CppAD2ADIdE4tanhEv"
 "_ZNK5CppAD2ADIdE9tape_thisEv"
 "_ZNK5CppAD2ADIdEngEv"
 "_ZNK5CppAD2ADINS0_IdEEE3AbsEv"
 "_ZNK5CppAD2ADINS0_IdEEE3cosEv"
 "_ZNK5CppAD2ADINS0_IdEEE3expEv"
 "_ZNK5CppAD2ADINS0_IdEEE3logEv"
 "_ZNK5CppAD2ADINS0_IdEEE3sinEv"
 "_ZNK5CppAD2ADINS0_IdEEE3tanEv"
 "_ZNK5CppAD2ADINS0_IdEEE4acosEv"
 "_ZNK5CppAD2ADINS0_IdEEE4asinEv"
 "_ZNK5CppAD2ADINS0_IdEEE4atanEv"
 "_ZNK5CppAD2ADINS0_IdEEE4coshEv"
 "_ZNK5CppAD2ADINS0_IdEEE4SignEv"
 "_ZNK5CppAD2ADINS0_IdEEE4sinhEv"
 "_ZNK5CppAD2ADINS0_IdEEE4sqrtEv"
 "_ZNK5CppAD2ADINS0_IdEEE4tanhEv"
 "_ZNK5CppAD2ADINS0_IdEEE9tape_thisEv"
 "_ZNK5CppAD2ADINS0_IdEEEngEv"
 "_ZNK5CppAD2ADINS0_INS0_IdEEEEE3expEv"
 "_ZNK5CppAD2ADINS0_INS0_IdEEEEE3logEv"
 "_ZNK5CppAD2ADINS0_INS0_IdEEEEE9tape_thisEv"
 "_ZNK5CppAD2ADINS0_INS0_IdEEEEEngEv"
 "_ZNK5CppAD5ADFunIdE10size_orderEv"
 "_ZNK5CppAD5ADFunIdE10size_VecADEv"
 "_ZNK5CppAD5ADFunIdE11size_op_argEv"
 "_ZNK5CppAD5ADFunIdE11size_op_seqEv"
 "_ZNK5CppAD5ADFunIdE14size_directionEv"
 "_ZNK5CppAD5ADFunIdE5RangeEv"
 "_ZNK5CppAD5ADFunIdE6DomainEv"
 "_ZNK5CppAD5ADFunIdE6MemoryEv"
 "_ZNK5CppAD5ADFunIdE7size_opEv"
 "_ZNK5CppAD5ADFunIdE8size_parEv"
 "_ZNK5CppAD5ADFunIdE8size_varEv"
 "_ZNK5CppAD5ADFunIdE9size_textEv"
 "_ZNK5CppAD5ADFunINS_2ADIdEEE5RangeEv"
 "_ZNK5CppAD5ADFunINS_2ADIdEEE6DomainEv"
 "_ZNK5CppAD5ADFunINS_2ADINS1_IdEEEEE5RangeEv"
 "_ZNK5CppAD5ADFunINS_2ADINS1_IdEEEEE6DomainEv"
 "_ZNK5CppAD6playerIdE10num_op_recEv"
 "_ZNK5CppAD6playerIdE11num_par_recEv"
 "_ZNK5CppAD6playerIdE11num_var_recEv"
 "_ZNK5CppAD6playerIdE12num_text_recEv"
 "_ZNK5CppAD6playerIdE14num_op_arg_recEv"
 "_ZNK5CppAD6playerIdE15num_vec_ind_recEv"
 "_ZNK5CppAD6playerIdE17num_vecad_vec_recEv"
 "_ZNK5CppAD6playerIdE6GetParEv"
 "_ZNK5CppAD6playerIdE6GetParEy"
 "_ZNK5CppAD6playerIdE6GetTxtEy"
 "_ZNK5CppAD6playerIdE6MemoryEv"
 "_ZNK5CppAD6playerIdE9GetVecIndEy"
 "_ZNK5CppAD6playerINS_2ADIdEEE10num_op_recEv"
 "_ZNK5CppAD6playerINS_2ADIdEEE11num_par_recEv"
 "_ZNK5CppAD6playerINS_2ADIdEEE11num_var_recEv"
 "_ZNK5CppAD6playerINS_2ADIdEEE12num_text_recEv"
 "_ZNK5CppAD6playerINS_2ADIdEEE15num_vec_ind_recEv"
 "_ZNK5CppAD6playerINS_2ADIdEEE17num_vecad_vec_recEv"
 "_ZNK5CppAD6playerINS_2ADIdEEE6GetParEv"
 "_ZNK5CppAD6playerINS_2ADIdEEE6GetParEy"
 "_ZNK5CppAD6playerINS_2ADIdEEE6GetTxtEy"
 "_ZNK5CppAD6playerINS_2ADIdEEE9GetVecIndEy"
 "_ZNK5CppAD6playerINS_2ADINS1_IdEEEEE10num_op_recEv"
 "_ZNK5CppAD6playerINS_2ADINS1_IdEEEEE11num_par_recEv"
 "_ZNK5CppAD6playerINS_2ADINS1_IdEEEEE12num_text_recEv"
 "_ZNK5CppAD6playerINS_2ADINS1_IdEEEEE15num_vec_ind_recEv"
 "_ZNK5CppAD6playerINS_2ADINS1_IdEEEEE6GetParEv"
 "_ZNK5CppAD6playerINS_2ADINS1_IdEEEEE6GetTxtEy"
 "_ZNK5CppAD6playerINS_2ADINS1_IdEEEEE9GetVecIndEy"
 "_ZNK5CppAD6vectorIbE4sizeEv"
 "_ZNK5CppAD6vectorIbEixEy"
 "_ZNK5CppAD6vectorIdE4sizeEv"
 "_ZNK5CppAD6vectorIdEixEy"
 "_ZNK5CppAD6vectorIiE4sizeEv"
 "_ZNK5CppAD6vectorINS_10tape_pointEE4sizeEv"
 "_ZNK5CppAD6vectorINS_2ADIdEEE4sizeEv"
 "_ZNK5CppAD6vectorINS_2ADIdEEEixEy"
 "_ZNK5CppAD6vectorINS_2ADINS1_IdEEEEE4sizeEv"
 "_ZNK5CppAD6vectorINS_2ADINS1_IdEEEEEixEy"
 "_ZNK5CppAD6vectorINS_2ADINS1_INS1_IdEEEEEEE4sizeEv"
 "_ZNK5CppAD6vectorINS_2ADINS1_INS1_IdEEEEEEEixEy"
 "_ZNK5CppAD6vectorINS_8optimize16struct_user_infoEE4sizeEv"
 "_ZNK5CppAD6vectorINS_8optimize17struct_cskip_infoEE4sizeEv"
 "_ZNK5CppAD6vectorINS_8optimize19struct_old_variableEEixEy"
 "_ZNK5CppAD6vectorINS0_IiEEE4sizeEv"
 "_ZNK5CppAD6vectorISt3setIySt4lessIyESaIyEEE4sizeEv"
 "_ZNK5CppAD6vectorIyE4sizeEv"
 "_ZNK5CppAD6vectorIyEixEy"
 "_ZNK5CppAD8optimize15class_cexp_pair5indexEv"
 "_ZNK5CppAD8optimize15class_cexp_pair7compareEv"
 "_ZNK5CppAD8optimize15class_cexp_pairltERKS1_"
 "_ZNK5CppAD8optimize19class_set_cexp_pair5emptyEv"
 "_ZNK5CppAD8recorderIdE10num_op_recEv"
 "_ZNK5CppAD8recorderIdE11num_var_recEv"
 "_ZNK5CppAD8recorderIdE15num_load_op_recEv"
 "_ZNK5CppAD8recorderINS_2ADIdEEE10num_op_recEv"
 "_ZNK5CppAD8recorderINS_2ADIdEEE11num_var_recEv"
 "_ZNK5CppAD8recorderINS_2ADIdEEE15num_load_op_recEv"
 "_ZNK5CppAD8recorderINS_2ADINS1_IdEEEEE10num_op_recEv"
 "_ZNK5CppAD8recorderINS_2ADINS1_IdEEEEE11num_var_recEv"
 "_ZNK5CppAD8recorderINS_2ADINS1_IdEEEEE15num_load_op_recEv"
 "_ZNK5Eigen10MatrixBaseINS_3MapINS_6MatrixIdLin1ELi1ELi0ELin1ELi1EEELi0ENS_6StrideILi0ELi0EEEEEE4castIdEENS7_7CastXprIT_E4TypeEv"
 "_ZNK5Eigen10MatrixBaseINS_3MapINS_6MatrixIdLin1ELi1ELi0ELin1ELi1EEELi0ENS_6StrideILi0ELi0EEEEEE4castIiEENS7_7CastXprIT_E4TypeEv"
 "_ZNK5Eigen10MatrixBaseINS_3MapINS_6MatrixIdLin1ELi1ELi0ELin1ELi1EEELi0ENS_6StrideILi0ELi0EEEEEE4castIN5CppAD2ADIdEEEENS7_7CastXprIT_E4TypeEv"
 "_ZNK5Eigen10MatrixBaseINS_3MapINS_6MatrixIdLin1ELi1ELi0ELin1ELi1EEELi0ENS_6StrideILi0ELi0EEEEEE4castIN5CppAD2ADINSA_IdEEEEEENS7_7CastXprIT_E4TypeEv"
 "_ZNK5Eigen10MatrixBaseINS_3MapINS_6MatrixIdLin1ELi1ELi0ELin1ELi1EEELi0ENS_6StrideILi0ELi0EEEEEE4castIN5CppAD2ADINSA_INSA_IdEEEEEEEENS7_7CastXprIT_E4TypeEv"
 "_ZNK5Eigen10MatrixBaseINS_5BlockIKNS_6MatrixIdLin1ELin1ELi0ELin1ELin1EEELin1ELin1ELb0EEEE5arrayEv"
 "_ZNK5Eigen10MatrixBaseINS_5BlockINS1_INS_3MapINS_6MatrixIdLin1ELin1ELi0ELin1ELin1EEELi0ENS_6StrideILi0ELi0EEEEELin1ELin1ELb0EEELin1ELin1ELb0EEEE11lazyProductIS9_EEKNS_7ProductIS9_T_Li1EEERKNS0_ISD_EE"
 "_ZNK5Eigen10MatrixBaseINS_5BlockINS1_INS_3MapINS_6MatrixIdLin1ELin1ELi0ELin1ELin1EEELi0ENS_6StrideILi0ELi0EEEEELin1ELin1ELb0EEELin1ELin1ELb0EEEEmlIS9_EEKNS_7ProductIS9_T_Li0EEERKNS0_ISD_EE"
 "_ZNK5Eigen10MatrixBaseINS_5BlockINS1_INS1_INS_3MapINS_6MatrixIdLin1ELin1ELi0ELin1ELin1EEELi0ENS_6StrideILi0ELi0EEEEELin1ELin1ELb0EEELin1ELi1ELb1EEELin1ELi1ELb0EEEE9unaryExprINS_8internal21scalar_score_coeff_opIdEEEEKNS_12CwiseUnaryOpIT_KSA_EERKSH_"
 "_ZNK5Eigen10MatrixBaseINS_5BlockINS1_INS1_INS_3MapINS_6MatrixIdLin1ELin1ELi0ELin1ELin1EEELi0ENS_6StrideILi0ELi0EEEEELin1ELin1ELb0EEELin1ELi1ELb1EEELin1ELi1ELb0EEEEmlINS1_INS1_IS8_Li1ELin1ELb0EEELi1ELin1ELb0EEEEEKNS_7ProductISA_T_Li0EEERKNS0_ISG_EE"
 "_ZNK5Eigen10MatrixBaseINS_6MatrixIdLin1ELi1ELi0ELin1ELi1EEEEplIS2_EEKNS_13CwiseBinaryOpINS_8internal13scalar_sum_opIdNS6_6traitsIT_E6ScalarEEEKS2_KS9_EERKNS0_IS9_EE"
 "_ZNK5Eigen10MatrixBaseINS_6MatrixIdLin1ELin1ELi0ELin1ELin1EEEE11lazyProductIS2_EEKNS_7ProductIS2_T_Li1EEERKNS0_IS6_EE"
 "_ZNK5Eigen10MatrixBaseINS_6MatrixIdLin1ELin1ELi0ELin1ELin1EEEE12partialPivLuEv"
 "_ZNK5Eigen10MatrixBaseINS_6MatrixIdLin1ELin1ELi0ELin1ELin1EEEE14triangularViewILj2EEENS3_29ConstTriangularViewReturnTypeIXT_EE4TypeEv"
 "_ZNK5Eigen10MatrixBaseINS_6MatrixIdLin1ELin1ELi0ELin1ELin1EEEE14triangularViewILj5EEENS3_29ConstTriangularViewReturnTypeIXT_EE4TypeEv"
 "_ZNK5Eigen10MatrixBaseINS_6MatrixIdLin1ELin1ELi0ELin1ELin1EEEE5arrayEv"
 "_ZNK5Eigen10MatrixBaseINS_6MatrixIdLin1ELin1ELi0ELin1ELin1EEEE7inverseEv"
 "_ZNK5Eigen10MatrixBaseINS_6MatrixIdLin1ELin1ELi0ELin1ELin1EEEE8cwiseAbsEv"
 "_ZNK5Eigen10MatrixBaseINS_6MatrixIdLin1ELin1ELi0ELin1ELin1EEEEmlIdEENS_8internal9enable_ifILb1EKNS_13CwiseBinaryOpINS5_17scalar_product_opIdNS5_18promote_scalar_argIdT_XsrNS5_14has_ReturnTypeINS_20ScalarBinaryOpTraitsIdSA_NS8_IdSA_EEEEEE5valueEE4typeEEEKS2_KNS5_19plain_constant_typeIS2_SH_E4typeEEEE4typeERKSA_"
 "_ZNK5Eigen10MatrixBaseINS_6MatrixIdLin1ELin1ELi0ELin1ELin1EEEEmlIS2_EEKNS_7ProductIS2_T_Li0EEERKNS0_IS6_EE"
 "_ZNK5Eigen10MatrixBaseINS_6MatrixIdLin1ELin1ELi0ELin1ELin1EEEEplIS2_EEKNS_13CwiseBinaryOpINS_8internal13scalar_sum_opIdNS6_6traitsIT_E6ScalarEEEKS2_KS9_EERKNS0_IS9_EE"
 "_ZNK5Eigen10MatrixBaseINS_9TransposeIKNS_5BlockIKNS_6MatrixIdLin1ELin1ELi0ELin1ELin1EEELi1ELin1ELb0EEEEEE12cwiseProductINS2_IS5_Lin1ELi1ELb1EEEEEKNS_13CwiseBinaryOpINS_8internal17scalar_product_opIdNSD_6traitsIT_E6ScalarEEEKS8_KSG_EERKNS0_ISG_EE"
 "_ZNK5Eigen10MatrixBaseINS_9TransposeIKNS_5BlockIKNS2_INS2_INS_3MapINS_6MatrixIdLin1ELin1ELi0ELin1ELin1EEELi0ENS_6StrideILi0ELi0EEEEELin1ELin1ELb0EEELin1ELin1ELb0EEELi1ELin1ELb0EEEEEE12cwiseProductINS2_ISB_Lin1ELi1ELb1EEEEEKNS_13CwiseBinaryOpINS_8internal17scalar_product_opIdNSJ_6traitsIT_E6ScalarEEEKSE_KSM_EERKNS0_ISM_EE"
 "_ZNK5Eigen12ArrayWrapperIKNS_5BlockIKNS_6MatrixIdLin1ELin1ELi0ELin1ELin1EEELin1ELin1ELb0EEEE16nestedExpressionEv"
 "_ZNK5Eigen12ArrayWrapperIKNS_6MatrixIdLin1ELin1ELi0ELin1ELin1EEEE16nestedExpressionEv"
 "_ZNK5Eigen12ArrayWrapperIKNS_6MatrixIdLin1ELin1ELi0ELin1ELin1EEEE4colsEv"
 "_ZNK5Eigen12ArrayWrapperIKNS_6MatrixIdLin1ELin1ELi0ELin1ELin1EEEE4rowsEv"
 "_ZNK5Eigen12ArrayWrapperINS_6MatrixIdLin1ELin1ELi0ELin1ELin1EEEE16nestedExpressionEv"
 "_ZNK5Eigen12ArrayWrapperINS_6MatrixIdLin1ELin1ELi0ELin1ELin1EEEE4colsEv"
 "_ZNK5Eigen12ArrayWrapperINS_6MatrixIdLin1ELin1ELi0ELin1ELin1EEEE4rowsEv"
 "_ZNK5Eigen12CwiseUnaryOpINS_8internal13scalar_abs_opIdEEKNS_12ArrayWrapperINS_6MatrixIdLin1ELin1ELi0ELin1ELin1EEEEEE16nestedExpressionEv"
 "_ZNK5Eigen12CwiseUnaryOpINS_8internal13scalar_abs_opIdEEKNS_12ArrayWrapperINS_6MatrixIdLin1ELin1ELi0ELin1ELin1EEEEEE4colsEv"
 "_ZNK5Eigen12CwiseUnaryOpINS_8internal13scalar_abs_opIdEEKNS_12ArrayWrapperINS_6MatrixIdLin1ELin1ELi0ELin1ELin1EEEEEE4rowsEv"
 "_ZNK5Eigen12CwiseUnaryOpINS_8internal13scalar_abs_opIdEEKNS_12ArrayWrapperINS_6MatrixIdLin1ELin1ELi0ELin1ELin1EEEEEE7functorEv"
 "_ZNK5Eigen12CwiseUnaryOpINS_8internal13scalar_abs_opIdEEKNS_6MatrixIdLin1ELin1ELi0ELin1ELin1EEEE16nestedExpressionEv"
 "_ZNK5Eigen12CwiseUnaryOpINS_8internal13scalar_abs_opIdEEKNS_6MatrixIdLin1ELin1ELi0ELin1ELin1EEEE4colsEv"
 "_ZNK5Eigen12CwiseUnaryOpINS_8internal13scalar_abs_opIdEEKNS_6MatrixIdLin1ELin1ELi0ELin1ELin1EEEE4rowsEv"
 "_ZNK5Eigen12CwiseUnaryOpINS_8internal13scalar_abs_opIdEEKNS_6MatrixIdLin1ELin1ELi0ELin1ELin1EEEE7functorEv"
 "_ZNK5Eigen12CwiseUnaryOpINS_8internal14scalar_cast_opIbiEEKNS_5ArrayIbLin1ELi1ELi0ELin1ELi1EEEE16nestedExpressionEv"
 "_ZNK5Eigen12CwiseUnaryOpINS_8internal14scalar_cast_opIbiEEKNS_5ArrayIbLin1ELi1ELi0ELin1ELi1EEEE4colsEv"
 "_ZNK5Eigen12CwiseUnaryOpINS_8internal14scalar_cast_opIbiEEKNS_5ArrayIbLin1ELi1ELi0ELin1ELi1EEEE4rowsEv"
 "_ZNK5Eigen12CwiseUnaryOpINS_8internal14scalar_cast_opIbiEEKNS_5ArrayIbLin1ELi1ELi0ELin1ELi1EEEE7functorEv"
 "_ZNK5Eigen12CwiseUnaryOpINS_8internal14scalar_cast_opIdiEEKNS_3MapINS_6MatrixIdLin1ELi1ELi0ELin1ELi1EEELi0ENS_6StrideILi0ELi0EEEEEE16nestedExpressionEv"
 "_ZNK5Eigen12CwiseUnaryOpINS_8internal14scalar_cast_opIdiEEKNS_3MapINS_6MatrixIdLin1ELi1ELi0ELin1ELi1EEELi0ENS_6StrideILi0ELi0EEEEEE4colsEv"
 "_ZNK5Eigen12CwiseUnaryOpINS_8internal14scalar_cast_opIdiEEKNS_3MapINS_6MatrixIdLin1ELi1ELi0ELin1ELi1EEELi0ENS_6StrideILi0ELi0EEEEEE4rowsEv"
 "_ZNK5Eigen12CwiseUnaryOpINS_8internal14scalar_cast_opIdiEEKNS_3MapINS_6MatrixIdLin1ELi1ELi0ELin1ELi1EEELi0ENS_6StrideILi0ELi0EEEEEE7functorEv"
 "_ZNK5Eigen12CwiseUnaryOpINS_8internal14scalar_cast_opIdN5CppAD2ADIdEEEEKNS_3MapINS_6MatrixIdLin1ELi1ELi0ELin1ELi1EEELi0ENS_6StrideILi0ELi0EEEEEE16nestedExpressionEv"
 "_ZNK5Eigen12CwiseUnaryOpINS_8internal14scalar_cast_opIdN5CppAD2ADIdEEEEKNS_3MapINS_6MatrixIdLin1ELi1ELi0ELin1ELi1EEELi0ENS_6StrideILi0ELi0EEEEEE4colsEv"
 "_ZNK5Eigen12CwiseUnaryOpINS_8internal14scalar_cast_opIdN5CppAD2ADIdEEEEKNS_3MapINS_6MatrixIdLin1ELi1ELi0ELin1ELi1EEELi0ENS_6StrideILi0ELi0EEEEEE4rowsEv"
 "_ZNK5Eigen12CwiseUnaryOpINS_8internal14scalar_cast_opIdN5CppAD2ADIdEEEEKNS_3MapINS_6MatrixIdLin1ELi1ELi0ELin1ELi1EEELi0ENS_6StrideILi0ELi0EEEEEE7functorEv"
 "_ZNK5Eigen12CwiseUnaryOpINS_8internal14scalar_cast_opIdN5CppAD2ADINS4_IdEEEEEEKNS_3MapINS_6MatrixIdLin1ELi1ELi0ELin1ELi1EEELi0ENS_6StrideILi0ELi0EEEEEE16nestedExpressionEv"
 "_ZNK5Eigen12CwiseUnaryOpINS_8internal14scalar_cast_opIdN5CppAD2ADINS4_IdEEEEEEKNS_3MapINS_6MatrixIdLin1ELi1ELi0ELin1ELi1EEELi0ENS_6StrideILi0ELi0EEEEEE4colsEv"
 "_ZNK5Eigen12CwiseUnaryOpINS_8internal14scalar_cast_opIdN5CppAD2ADINS4_IdEEEEEEKNS_3MapINS_6MatrixIdLin1ELi1ELi0ELin1ELi1EEELi0ENS_6StrideILi0ELi0EEEEEE4rowsEv"
 "_ZNK5Eigen12CwiseUnaryOpINS_8internal14scalar_cast_opIdN5CppAD2ADINS4_IdEEEEEEKNS_3MapINS_6MatrixIdLin1ELi1ELi0ELin1ELi1EEELi0ENS_6StrideILi0ELi0EEEEEE7functorEv"
 "_ZNK5Eigen12CwiseUnaryOpINS_8internal14scalar_cast_opIdN5CppAD2ADINS4_INS4_IdEEEEEEEEKNS_3MapINS_6MatrixIdLin1ELi1ELi0ELin1ELi1EEELi0ENS_6StrideILi0ELi0EEEEEE16nestedExpressionEv"
 "_ZNK5Eigen12CwiseUnaryOpINS_8internal14scalar_cast_opIdN5CppAD2ADINS4_INS4_IdEEEEEEEEKNS_3MapINS_6MatrixIdLin1ELi1ELi0ELin1ELi1EEELi0ENS_6StrideILi0ELi0EEEEEE4colsEv"
 "_ZNK5Eigen12CwiseUnaryOpINS_8internal14scalar_cast_opIdN5CppAD2ADINS4_INS4_IdEEEEEEEEKNS_3MapINS_6MatrixIdLin1ELi1ELi0ELin1ELi1EEELi0ENS_6StrideILi0ELi0EEEEEE4rowsEv"
 "_ZNK5Eigen12CwiseUnaryOpINS_8internal14scalar_cast_opIdN5CppAD2ADINS4_INS4_IdEEEEEEEEKNS_3MapINS_6MatrixIdLin1ELi1ELi0ELin1ELi1EEELi0ENS_6StrideILi0ELi0EEEEEE7functorEv"
 "_ZNK5Eigen12CwiseUnaryOpINS_8internal21scalar_score_coeff_opIdEEKNS_5BlockINS4_INS4_INS_3MapINS_6MatrixIdLin1ELin1ELi0ELin1ELin1EEELi0ENS_6StrideILi0ELi0EEEEELin1ELin1ELb0EEELin1ELi1ELb1EEELin1ELi1ELb0EEEE16nestedExpressionEv"
 "_ZNK5Eigen12CwiseUnaryOpINS_8internal21scalar_score_coeff_opIdEEKNS_5BlockINS4_INS4_INS_3MapINS_6MatrixIdLin1ELin1ELi0ELin1ELin1EEELi0ENS_6StrideILi0ELi0EEEEELin1ELin1ELb0EEELin1ELi1ELb1EEELin1ELi1ELb0EEEE4colsEv"
 "_ZNK5Eigen12CwiseUnaryOpINS_8internal21scalar_score_coeff_opIdEEKNS_5BlockINS4_INS4_INS_3MapINS_6MatrixIdLin1ELin1ELi0ELin1ELin1EEELi0ENS_6StrideILi0ELi0EEEEELin1ELin1ELb0EEELin1ELi1ELb1EEELin1ELi1ELb0EEEE4rowsEv"
 "_ZNK5Eigen12CwiseUnaryOpINS_8internal21scalar_score_coeff_opIdEEKNS_5BlockINS4_INS4_INS_3MapINS_6MatrixIdLin1ELin1ELi0ELin1ELin1EEELi0ENS_6StrideILi0ELi0EEEEELin1ELin1ELb0EEELin1ELi1ELb1EEELin1ELi1ELb0EEEE7functorEv"
 "_ZNK5Eigen12DenseStorageIbLin1ELin1ELi1ELi0EE4dataEv"
 "_ZNK5Eigen12DenseStorageIbLin1ELin1ELi1ELi0EE4rowsEv"
 "_ZNK5Eigen12DenseStorageIdLin1ELin1ELi1ELi0EE4dataEv"
 "_ZNK5Eigen12DenseStorageIdLin1ELin1ELi1ELi0EE4rowsEv"
 "_ZNK5Eigen12DenseStorageIdLin1ELin1ELin1ELi0EE4colsEv"
 "_ZNK5Eigen12DenseStorageIdLin1ELin1ELin1ELi0EE4dataEv"
 "_ZNK5Eigen12DenseStorageIdLin1ELin1ELin1ELi0EE4rowsEv"
 "_ZNK5Eigen12DenseStorageIiLin1ELin1ELi1ELi0EE4dataEv"
 "_ZNK5Eigen12DenseStorageIiLin1ELin1ELi1ELi0EE4rowsEv"
 "_ZNK5Eigen12DenseStorageIiLin1ELin1ELin1ELi0EE4colsEv"
 "_ZNK5Eigen12DenseStorageIiLin1ELin1ELin1ELi0EE4dataEv"
 "_ZNK5Eigen12DenseStorageIiLin1ELin1ELin1ELi0EE4rowsEv"
 "_ZNK5Eigen12DenseStorageIN5CppAD2ADIdEELin1ELin1ELi1ELi0EE4dataEv"
 "_ZNK5Eigen12DenseStorageIN5CppAD2ADIdEELin1ELin1ELi1ELi0EE4rowsEv"
 "_ZNK5Eigen12DenseStorageIN5CppAD2ADIdEELin1ELin1ELin1ELi0EE4colsEv"
 "_ZNK5Eigen12DenseStorageIN5CppAD2ADIdEELin1ELin1ELin1ELi0EE4dataEv"
 "_ZNK5Eigen12DenseStorageIN5CppAD2ADIdEELin1ELin1ELin1ELi0EE4rowsEv"
 "_ZNK5Eigen12DenseStorageIN5CppAD2ADINS2_IdEEEELin1ELin1ELi1ELi0EE4dataEv"
 "_ZNK5Eigen12DenseStorageIN5CppAD2ADINS2_IdEEEELin1ELin1ELi1ELi0EE4rowsEv"
 "_ZNK5Eigen12DenseStorageIN5CppAD2ADINS2_IdEEEELin1ELin1ELin1ELi0EE4colsEv"
 "_ZNK5Eigen12DenseStorageIN5CppAD2ADINS2_IdEEEELin1ELin1ELin1ELi0EE4dataEv"
 "_ZNK5Eigen12DenseStorageIN5CppAD2ADINS2_IdEEEELin1ELin1ELin1ELi0EE4rowsEv"
 "_ZNK5Eigen12DenseStorageIN5CppAD2ADINS2_INS2_IdEEEEEELin1ELin1ELi1ELi0EE4dataEv"
 "_ZNK5Eigen12DenseStorageIN5CppAD2ADINS2_INS2_IdEEEEEELin1ELin1ELi1ELi0EE4rowsEv"
 "_ZNK5Eigen12DenseStorageIN5CppAD2ADINS2_INS2_IdEEEEEELin1ELin1ELin1ELi0EE4colsEv"
 "_ZNK5Eigen12DenseStorageIN5CppAD2ADINS2_INS2_IdEEEEEELin1ELin1ELin1ELi0EE4dataEv"
 "_ZNK5Eigen12DenseStorageIN5CppAD2ADINS2_INS2_IdEEEEEELin1ELin1ELin1ELi0EE4rowsEv"
 "_ZNK5Eigen12DenseStorageIN8tmbutils6matrixIdEELin1ELin1ELi1ELi0EE4dataEv"
 "_ZNK5Eigen12DenseStorageIN8tmbutils6matrixIdEELin1ELin1ELi1ELi0EE4rowsEv"
 "_ZNK5Eigen12DenseStorageIN8tmbutils6vectorIdEELin1ELin1ELi1ELi0EE4dataEv"
 "_ZNK5Eigen12DenseStorageIN8tmbutils6vectorIiEELin1ELin1ELi1ELi0EE4dataEv"
 "_ZNK5Eigen12DenseStorageIN8tmbutils6vectorIiEELin1ELin1ELi1ELi0EE4rowsEv"
 "_ZNK5Eigen12DenseStorageIN8tmbutils6vectorIyEELin1ELin1ELi1ELi0EE4dataEv"
 "_ZNK5Eigen12DenseStorageINS_6MatrixIdLin1ELi1ELi0ELin1ELi1EEELin1ELin1ELi1ELi0EE4dataEv"
 "_ZNK5Eigen12DenseStorageIPKcLin1ELin1ELi1ELi0EE4dataEv"
 "_ZNK5Eigen12DenseStorageIPKcLin1ELin1ELi1ELi0EE4rowsEv"
 "_ZNK5Eigen12DenseStorageIPN5CppAD5ADFunIdEELin1ELin1ELi1ELi0EE4dataEv"
 "_ZNK5Eigen12DenseStorageIPN5CppAD5ADFunIdEELin1ELin1ELi1ELi0EE4rowsEv"
 "_ZNK5Eigen12DenseStorageIyLin1ELin1ELi1ELi0EE4dataEv"
 "_ZNK5Eigen12DenseStorageIyLin1ELin1ELi1ELi0EE4rowsEv"
 "_ZNK5Eigen12PartialPivLUINS_6MatrixIdLin1ELin1ELi0ELin1ELin1EEEE11_solve_implINS_14CwiseNullaryOpINS_8internal18scalar_identity_opIdEES2_EES2_EEvRKT_RT0_"
 "_ZNK5Eigen12PartialPivLUINS_6MatrixIdLin1ELin1ELi0ELin1ELin1EEEE12permutationPEv"
 "_ZNK5Eigen12PartialPivLUINS_6MatrixIdLin1ELin1ELi0ELin1ELin1EEEE4colsEv"
 "_ZNK5Eigen12PartialPivLUINS_6MatrixIdLin1ELin1ELi0ELin1ELin1EEEE4rowsEv"
 "_ZNK5Eigen12PartialPivLUINS_6MatrixIdLin1ELin1ELi0ELin1ELin1EEEE5solveINS_14CwiseNullaryOpINS_8internal18scalar_identity_opIdEES2_EEEEKNS_5SolveIS3_T_EERKNS_10MatrixBaseISB_EE"
 "_ZNK5Eigen12PartialPivLUINS_6MatrixIdLin1ELin1ELi0ELin1ELin1EEEE7inverseEv"
 "_ZNK5Eigen12VectorwiseOpIKNS_12CwiseUnaryOpINS_8internal13scalar_abs_opIdEEKNS_6MatrixIdLin1ELin1ELi0ELin1ELin1EEEEELi0EE11_expressionEv"
 "_ZNK5Eigen12VectorwiseOpIKNS_12CwiseUnaryOpINS_8internal13scalar_abs_opIdEEKNS_6MatrixIdLin1ELin1ELi0ELin1ELin1EEEEELi0EE3sumEv"
 "_ZNK5Eigen12VectorwiseOpINS_6MatrixIdLin1ELin1ELi0ELin1ELin1EEELi1EE11_expressionEv"
 "_ZNK5Eigen12VectorwiseOpINS_6MatrixIdLin1ELin1ELi0ELin1ELin1EEELi1EE3sumEv"
 "_ZNK5Eigen13CwiseBinaryOpINS_8internal13scalar_sum_opIddEEKNS_5ArrayIdLin1ELi1ELi0ELin1ELi1EEES6_E3lhsEv"
 "_ZNK5Eigen13CwiseBinaryOpINS_8internal13scalar_sum_opIddEEKNS_5ArrayIdLin1ELi1ELi0ELin1ELi1EEES6_E3rhsEv"
 "_ZNK5Eigen13CwiseBinaryOpINS_8internal13scalar_sum_opIddEEKNS_5ArrayIdLin1ELi1ELi0ELin1ELi1EEES6_E4colsEv"
 "_ZNK5Eigen13CwiseBinaryOpINS_8internal13scalar_sum_opIddEEKNS_5ArrayIdLin1ELi1ELi0ELin1ELi1EEES6_E4rowsEv"
 "_ZNK5Eigen13CwiseBinaryOpINS_8internal13scalar_sum_opIddEEKNS_5ArrayIdLin1ELi1ELi0ELin1ELi1EEES6_E7functorEv"
 "_ZNK5Eigen13CwiseBinaryOpINS_8internal13scalar_sum_opIddEEKNS_6MatrixIdLin1ELi1ELi0ELin1ELi1EEES6_E3lhsEv"
 "_ZNK5Eigen13CwiseBinaryOpINS_8internal13scalar_sum_opIddEEKNS_6MatrixIdLin1ELi1ELi0ELin1ELi1EEES6_E3rhsEv"
 "_ZNK5Eigen13CwiseBinaryOpINS_8internal13scalar_sum_opIddEEKNS_6MatrixIdLin1ELi1ELi0ELin1ELi1EEES6_E4colsEv"
 "_ZNK5Eigen13CwiseBinaryOpINS_8internal13scalar_sum_opIddEEKNS_6MatrixIdLin1ELi1ELi0ELin1ELi1EEES6_E4rowsEv"
 "_ZNK5Eigen13CwiseBinaryOpINS_8internal13scalar_sum_opIddEEKNS_6MatrixIdLin1ELi1ELi0ELin1ELi1EEES6_E7functorEv"
 "_ZNK5Eigen13CwiseBinaryOpINS_8internal13scalar_sum_opIddEEKNS_6MatrixIdLin1ELin1ELi0ELin1ELin1EEES6_E3lhsEv"
 "_ZNK5Eigen13CwiseBinaryOpINS_8internal13scalar_sum_opIddEEKNS_6MatrixIdLin1ELin1ELi0ELin1ELin1EEES6_E3rhsEv"
 "_ZNK5Eigen13CwiseBinaryOpINS_8internal13scalar_sum_opIddEEKNS_6MatrixIdLin1ELin1ELi0ELin1ELin1EEES6_E4colsEv"
 "_ZNK5Eigen13CwiseBinaryOpINS_8internal13scalar_sum_opIddEEKNS_6MatrixIdLin1ELin1ELi0ELin1ELin1EEES6_E4rowsEv"
 "_ZNK5Eigen13CwiseBinaryOpINS_8internal13scalar_sum_opIddEEKNS_6MatrixIdLin1ELin1ELi0ELin1ELin1EEES6_E7functorEv"
 "_ZNK5Eigen13CwiseBinaryOpINS_8internal17scalar_product_opIddEEKNS_12ArrayWrapperIKNS_5BlockIKNS_6MatrixIdLin1ELin1ELi0ELin1ELin1EEELin1ELin1ELb0EEEEEKNS4_IS8_EEE3lhsEv"
 "_ZNK5Eigen13CwiseBinaryOpINS_8internal17scalar_product_opIddEEKNS_12ArrayWrapperIKNS_5BlockIKNS_6MatrixIdLin1ELin1ELi0ELin1ELin1EEELin1ELin1ELb0EEEEEKNS4_IS8_EEE3rhsEv"
 "_ZNK5Eigen13CwiseBinaryOpINS_8internal17scalar_product_opIddEEKNS_12ArrayWrapperIKNS_5BlockIKNS_6MatrixIdLin1ELin1ELi0ELin1ELin1EEELin1ELin1ELb0EEEEEKNS4_IS8_EEE4colsEv"
 "_ZNK5Eigen13CwiseBinaryOpINS_8internal17scalar_product_opIddEEKNS_12ArrayWrapperIKNS_5BlockIKNS_6MatrixIdLin1ELin1ELi0ELin1ELin1EEELin1ELin1ELb0EEEEEKNS4_IS8_EEE4rowsEv"
 "_ZNK5Eigen13CwiseBinaryOpINS_8internal17scalar_product_opIddEEKNS_12ArrayWrapperIKNS_5BlockIKNS_6MatrixIdLin1ELin1ELi0ELin1ELin1EEELin1ELin1ELb0EEEEEKNS4_IS8_EEE7functorEv"
 "_ZNK5Eigen13CwiseBinaryOpINS_8internal17scalar_product_opIddEEKNS_14CwiseNullaryOpINS1_18scalar_constant_opIdEEKNS_6MatrixIdLin1ELi1ELi0ELin1ELi1EEEEEKNS_5BlockINSC_INSC_INS_3MapINS7_IdLin1ELin1ELi0ELin1ELin1EEELi0ENS_6StrideILi0ELi0EEEEELin1ELin1ELb0EEELin1ELi1ELb1EEELin1ELi1ELb0EEEE3lhsEv"
 "_ZNK5Eigen13CwiseBinaryOpINS_8internal17scalar_product_opIddEEKNS_14CwiseNullaryOpINS1_18scalar_constant_opIdEEKNS_6MatrixIdLin1ELi1ELi0ELin1ELi1EEEEEKNS_5BlockINSC_INSC_INS_3MapINS7_IdLin1ELin1ELi0ELin1ELin1EEELi0ENS_6StrideILi0ELi0EEEEELin1ELin1ELb0EEELin1ELi1ELb1EEELin1ELi1ELb0EEEE3rhsEv"
 "_ZNK5Eigen13CwiseBinaryOpINS_8internal17scalar_product_opIddEEKNS_14CwiseNullaryOpINS1_18scalar_constant_opIdEEKNS_6MatrixIdLin1ELi1ELi0ELin1ELi1EEEEEKNS_5BlockINSC_INSC_INS_3MapINS7_IdLin1ELin1ELi0ELin1ELin1EEELi0ENS_6StrideILi0ELi0EEEEELin1ELin1ELb0EEELin1ELi1ELb1EEELin1ELi1ELb0EEEE7functorEv"
 "_ZNK5Eigen13CwiseBinaryOpINS_8internal17scalar_product_opIddEEKNS_14CwiseNullaryOpINS1_18scalar_constant_opIdEEKNS_6MatrixIdLin1ELin1ELi0ELin1ELin1EEEEES9_E3lhsEv"
 "_ZNK5Eigen13CwiseBinaryOpINS_8internal17scalar_product_opIddEEKNS_14CwiseNullaryOpINS1_18scalar_constant_opIdEEKNS_6MatrixIdLin1ELin1ELi0ELin1ELin1EEEEES9_E3rhsEv"
 "_ZNK5Eigen13CwiseBinaryOpINS_8internal17scalar_product_opIddEEKNS_14CwiseNullaryOpINS1_18scalar_constant_opIdEEKNS_6MatrixIdLin1ELin1ELi0ELin1ELin1EEEEES9_E4colsEv"
 "_ZNK5Eigen13CwiseBinaryOpINS_8internal17scalar_product_opIddEEKNS_14CwiseNullaryOpINS1_18scalar_constant_opIdEEKNS_6MatrixIdLin1ELin1ELi0ELin1ELin1EEEEES9_E4rowsEv"
 "_ZNK5Eigen13CwiseBinaryOpINS_8internal17scalar_product_opIddEEKNS_14CwiseNullaryOpINS1_18scalar_constant_opIdEEKNS_6MatrixIdLin1ELin1ELi0ELin1ELin1EEEEES9_E7functorEv"
 "_ZNK5Eigen13CwiseBinaryOpINS_8internal17scalar_product_opIddEEKNS_6MatrixIdLin1ELin1ELi0ELin1ELin1EEEKNS_14CwiseNullaryOpINS1_18scalar_constant_opIdEES6_EEE3lhsEv"
 "_ZNK5Eigen13CwiseBinaryOpINS_8internal17scalar_product_opIddEEKNS_6MatrixIdLin1ELin1ELi0ELin1ELin1EEEKNS_14CwiseNullaryOpINS1_18scalar_constant_opIdEES6_EEE3rhsEv"
 "_ZNK5Eigen13CwiseBinaryOpINS_8internal17scalar_product_opIddEEKNS_6MatrixIdLin1ELin1ELi0ELin1ELin1EEEKNS_14CwiseNullaryOpINS1_18scalar_constant_opIdEES6_EEE4colsEv"
 "_ZNK5Eigen13CwiseBinaryOpINS_8internal17scalar_product_opIddEEKNS_6MatrixIdLin1ELin1ELi0ELin1ELin1EEEKNS_14CwiseNullaryOpINS1_18scalar_constant_opIdEES6_EEE4rowsEv"
 "_ZNK5Eigen13CwiseBinaryOpINS_8internal17scalar_product_opIddEEKNS_6MatrixIdLin1ELin1ELi0ELin1ELin1EEEKNS_14CwiseNullaryOpINS1_18scalar_constant_opIdEES6_EEE7functorEv"
 "_ZNK5Eigen13CwiseBinaryOpINS_8internal17scalar_product_opIddEEKNS_9TransposeIKNS_5BlockIKNS_6MatrixIdLin1ELin1ELi0ELin1ELin1EEELi1ELin1ELb0EEEEEKNS5_IS8_Lin1ELi1ELb1EEEE3lhsEv"
 "_ZNK5Eigen13CwiseBinaryOpINS_8internal17scalar_product_opIddEEKNS_9TransposeIKNS_5BlockIKNS_6MatrixIdLin1ELin1ELi0ELin1ELin1EEELi1ELin1ELb0EEEEEKNS5_IS8_Lin1ELi1ELb1EEEE3rhsEv"
 "_ZNK5Eigen13CwiseBinaryOpINS_8internal17scalar_product_opIddEEKNS_9TransposeIKNS_5BlockIKNS_6MatrixIdLin1ELin1ELi0ELin1ELin1EEELi1ELin1ELb0EEEEEKNS5_IS8_Lin1ELi1ELb1EEEE4colsEv"
 "_ZNK5Eigen13CwiseBinaryOpINS_8internal17scalar_product_opIddEEKNS_9TransposeIKNS_5BlockIKNS_6MatrixIdLin1ELin1ELi0ELin1ELin1EEELi1ELin1ELb0EEEEEKNS5_IS8_Lin1ELi1ELb1EEEE4rowsEv"
 "_ZNK5Eigen13CwiseBinaryOpINS_8internal17scalar_product_opIddEEKNS_9TransposeIKNS_5BlockIKNS_6MatrixIdLin1ELin1ELi0ELin1ELin1EEELi1ELin1ELb0EEEEEKNS5_IS8_Lin1ELi1ELb1EEEE7functorEv"
 "_ZNK5Eigen13CwiseBinaryOpINS_8internal17scalar_product_opIddEEKNS_9TransposeIKNS_5BlockIKNS5_INS5_INS_3MapINS_6MatrixIdLin1ELin1ELi0ELin1ELin1EEELi0ENS_6StrideILi0ELi0EEEEELin1ELin1ELb0EEELin1ELin1ELb0EEELi1ELin1ELb0EEEEEKNS5_ISE_Lin1ELi1ELb1EEEE3lhsEv"
 "_ZNK5Eigen13CwiseBinaryOpINS_8internal17scalar_product_opIddEEKNS_9TransposeIKNS_5BlockIKNS5_INS5_INS_3MapINS_6MatrixIdLin1ELin1ELi0ELin1ELin1EEELi0ENS_6StrideILi0ELi0EEEEELin1ELin1ELb0EEELin1ELin1ELb0EEELi1ELin1ELb0EEEEEKNS5_ISE_Lin1ELi1ELb1EEEE3rhsEv"
 "_ZNK5Eigen13CwiseBinaryOpINS_8internal17scalar_product_opIddEEKNS_9TransposeIKNS_5BlockIKNS5_INS5_INS_3MapINS_6MatrixIdLin1ELin1ELi0ELin1ELin1EEELi0ENS_6StrideILi0ELi0EEEEELin1ELin1ELb0EEELin1ELin1ELb0EEELi1ELin1ELb0EEEEEKNS5_ISE_Lin1ELi1ELb1EEEE4colsEv"
 "_ZNK5Eigen13CwiseBinaryOpINS_8internal17scalar_product_opIddEEKNS_9TransposeIKNS_5BlockIKNS5_INS5_INS_3MapINS_6MatrixIdLin1ELin1ELi0ELin1ELin1EEELi0ENS_6StrideILi0ELi0EEEEELin1ELin1ELb0EEELin1ELin1ELb0EEELi1ELin1ELb0EEEEEKNS5_ISE_Lin1ELi1ELb1EEEE4rowsEv"
 "_ZNK5Eigen13CwiseBinaryOpINS_8internal17scalar_product_opIddEEKNS_9TransposeIKNS_5BlockIKNS5_INS5_INS_3MapINS_6MatrixIdLin1ELin1ELi0ELin1ELin1EEELi0ENS_6StrideILi0ELi0EEEEELin1ELin1ELb0EEELin1ELin1ELb0EEELi1ELin1ELb0EEEEEKNS5_ISE_Lin1ELi1ELb1EEEE7functorEv"
 "_ZNK5Eigen13CwiseBinaryOpINS_8internal17scalar_product_opIN5CppAD2ADIdEES5_EEKNS_5ArrayIS5_Lin1ELi1ELi0ELin1ELi1EEES9_E3lhsEv"
 "_ZNK5Eigen13CwiseBinaryOpINS_8internal17scalar_product_opIN5CppAD2ADIdEES5_EEKNS_5ArrayIS5_Lin1ELi1ELi0ELin1ELi1EEES9_E3rhsEv"
 "_ZNK5Eigen13CwiseBinaryOpINS_8internal17scalar_product_opIN5CppAD2ADIdEES5_EEKNS_5ArrayIS5_Lin1ELi1ELi0ELin1ELi1EEES9_E4colsEv"
 "_ZNK5Eigen13CwiseBinaryOpINS_8internal17scalar_product_opIN5CppAD2ADIdEES5_EEKNS_5ArrayIS5_Lin1ELi1ELi0ELin1ELi1EEES9_E4rowsEv"
 "_ZNK5Eigen13CwiseBinaryOpINS_8internal17scalar_product_opIN5CppAD2ADIdEES5_EEKNS_5ArrayIS5_Lin1ELi1ELi0ELin1ELi1EEES9_E7functorEv"
 "_ZNK5Eigen13CwiseBinaryOpINS_8internal17scalar_product_opIN5CppAD2ADINS4_IdEEEES6_EEKNS_5ArrayIS6_Lin1ELi1ELi0ELin1ELi1EEESA_E3lhsEv"
 "_ZNK5Eigen13CwiseBinaryOpINS_8internal17scalar_product_opIN5CppAD2ADINS4_IdEEEES6_EEKNS_5ArrayIS6_Lin1ELi1ELi0ELin1ELi1EEESA_E3rhsEv"
 "_ZNK5Eigen13CwiseBinaryOpINS_8internal17scalar_product_opIN5CppAD2ADINS4_IdEEEES6_EEKNS_5ArrayIS6_Lin1ELi1ELi0ELin1ELi1EEESA_E4colsEv"
 "_ZNK5Eigen13CwiseBinaryOpINS_8internal17scalar_product_opIN5CppAD2ADINS4_IdEEEES6_EEKNS_5ArrayIS6_Lin1ELi1ELi0ELin1ELi1EEESA_E4rowsEv"
 "_ZNK5Eigen13CwiseBinaryOpINS_8internal17scalar_product_opIN5CppAD2ADINS4_IdEEEES6_EEKNS_5ArrayIS6_Lin1ELi1ELi0ELin1ELi1EEESA_E7functorEv"
 "_ZNK5Eigen13CwiseBinaryOpINS_8internal17scalar_product_opIN5CppAD2ADINS4_INS4_IdEEEEEES7_EEKNS_5ArrayIS7_Lin1ELi1ELi0ELin1ELi1EEESB_E3lhsEv"
 "_ZNK5Eigen13CwiseBinaryOpINS_8internal17scalar_product_opIN5CppAD2ADINS4_INS4_IdEEEEEES7_EEKNS_5ArrayIS7_Lin1ELi1ELi0ELin1ELi1EEESB_E3rhsEv"
 "_ZNK5Eigen13CwiseBinaryOpINS_8internal17scalar_product_opIN5CppAD2ADINS4_INS4_IdEEEEEES7_EEKNS_5ArrayIS7_Lin1ELi1ELi0ELin1ELi1EEESB_E4colsEv"
 "_ZNK5Eigen13CwiseBinaryOpINS_8internal17scalar_product_opIN5CppAD2ADINS4_INS4_IdEEEEEES7_EEKNS_5ArrayIS7_Lin1ELi1ELi0ELin1ELi1EEESB_E4rowsEv"
 "_ZNK5Eigen13CwiseBinaryOpINS_8internal17scalar_product_opIN5CppAD2ADINS4_INS4_IdEEEEEES7_EEKNS_5ArrayIS7_Lin1ELi1ELi0ELin1ELi1EEESB_E7functorEv"
 "_ZNK5Eigen13MatrixWrapperIKNS_5ArrayIdLin1ELi1ELi0ELin1ELi1EEEE16nestedExpressionEv"
 "_ZNK5Eigen13MatrixWrapperIKNS_5ArrayIdLin1ELi1ELi0ELin1ELi1EEEE4colsEv"
 "_ZNK5Eigen13MatrixWrapperIKNS_5ArrayIdLin1ELi1ELi0ELin1ELi1EEEE4rowsEv"
 "_ZNK5Eigen13MatrixWrapperIKNS_5ArrayIiLin1ELi1ELi0ELin1ELi1EEEE16nestedExpressionEv"
 "_ZNK5Eigen13MatrixWrapperIKNS_5ArrayIiLin1ELi1ELi0ELin1ELi1EEEE4colsEv"
 "_ZNK5Eigen13MatrixWrapperIKNS_5ArrayIiLin1ELi1ELi0ELin1ELi1EEEE4rowsEv"
 "_ZNK5Eigen14CwiseNullaryOpINS_8internal18scalar_constant_opIbEENS_6MatrixIbLin1ELi1ELi0ELin1ELi1EEEE4colsEv"
 "_ZNK5Eigen14CwiseNullaryOpINS_8internal18scalar_constant_opIbEENS_6MatrixIbLin1ELi1ELi0ELin1ELi1EEEE4rowsEv"
 "_ZNK5Eigen14CwiseNullaryOpINS_8internal18scalar_constant_opIbEENS_6MatrixIbLin1ELi1ELi0ELin1ELi1EEEE7functorEv"
 "_ZNK5Eigen14CwiseNullaryOpINS_8internal18scalar_constant_opIdEEKNS_6MatrixIdLin1ELi1ELi0ELin1ELi1EEEE7functorEv"
 "_ZNK5Eigen14CwiseNullaryOpINS_8internal18scalar_constant_opIdEEKNS_6MatrixIdLin1ELin1ELi0ELin1ELin1EEEE4colsEv"
 "_ZNK5Eigen14CwiseNullaryOpINS_8internal18scalar_constant_opIdEEKNS_6MatrixIdLin1ELin1ELi0ELin1ELin1EEEE4rowsEv"
 "_ZNK5Eigen14CwiseNullaryOpINS_8internal18scalar_constant_opIdEEKNS_6MatrixIdLin1ELin1ELi0ELin1ELin1EEEE7functorEv"
 "_ZNK5Eigen14CwiseNullaryOpINS_8internal18scalar_constant_opIdEENS_5ArrayIdLin1ELi1ELi0ELin1ELi1EEEE4colsEv"
 "_ZNK5Eigen14CwiseNullaryOpINS_8internal18scalar_constant_opIdEENS_5ArrayIdLin1ELi1ELi0ELin1ELi1EEEE4rowsEv"
 "_ZNK5Eigen14CwiseNullaryOpINS_8internal18scalar_constant_opIdEENS_5ArrayIdLin1ELi1ELi0ELin1ELi1EEEE7functorEv"
 "_ZNK5Eigen14CwiseNullaryOpINS_8internal18scalar_constant_opIdEENS_6MatrixIdLin1ELi1ELi0ELin1ELi1EEEE7functorEv"
 "_ZNK5Eigen14CwiseNullaryOpINS_8internal18scalar_constant_opIdEENS_6MatrixIdLin1ELin1ELi0ELin1ELin1EEEE4colsEv"
 "_ZNK5Eigen14CwiseNullaryOpINS_8internal18scalar_constant_opIdEENS_6MatrixIdLin1ELin1ELi0ELin1ELin1EEEE4rowsEv"
 "_ZNK5Eigen14CwiseNullaryOpINS_8internal18scalar_constant_opIdEENS_6MatrixIdLin1ELin1ELi0ELin1ELin1EEEE7functorEv"
 "_ZNK5Eigen14CwiseNullaryOpINS_8internal18scalar_identity_opIdEENS_6MatrixIdLin1ELin1ELi0ELin1ELin1EEEE4colsEv"
 "_ZNK5Eigen14CwiseNullaryOpINS_8internal18scalar_identity_opIdEENS_6MatrixIdLin1ELin1ELi0ELin1ELin1EEEE4rowsEv"
 "_ZNK5Eigen14CwiseNullaryOpINS_8internal18scalar_identity_opIdEENS_6MatrixIdLin1ELin1ELi0ELin1ELin1EEEE7functorEv"
 "_ZNK5Eigen14TranspositionsILin1ELin1EiE7indicesEv"
 "_ZNK5Eigen14TriangularBaseINS_14TriangularViewIKNS_6MatrixIdLin1ELin1ELi0ELin1ELin1EEELj2EEEE7derivedEv"
 "_ZNK5Eigen14TriangularBaseINS_14TriangularViewIKNS_6MatrixIdLin1ELin1ELi0ELin1ELin1EEELj5EEEE7derivedEv"
 "_ZNK5Eigen14TriangularBaseINS_14TriangularViewINS_5BlockINS2_INS_3MapINS_6MatrixIdLin1ELin1ELi0ELin1ELin1EEELi0ENS_6StrideILi0ELi0EEEEELin1ELin1ELb0EEELin1ELin1ELb0EEELj5EEEE7derivedEv"
 "_ZNK5Eigen14TriangularViewIKNS_6MatrixIdLin1ELin1ELi0ELin1ELin1EEELj2EE16nestedExpressionEv"
 "_ZNK5Eigen14TriangularViewIKNS_6MatrixIdLin1ELin1ELi0ELin1ELin1EEELj2EE4colsEv"
 "_ZNK5Eigen14TriangularViewIKNS_6MatrixIdLin1ELin1ELi0ELin1ELin1EEELj5EE16nestedExpressionEv"
 "_ZNK5Eigen14TriangularViewIKNS_6MatrixIdLin1ELin1ELi0ELin1ELin1EEELj5EE4colsEv"
 "_ZNK5Eigen14TriangularViewINS_5BlockINS1_INS_3MapINS_6MatrixIdLin1ELin1ELi0ELin1ELin1EEELi0ENS_6StrideILi0ELi0EEEEELin1ELin1ELb0EEELin1ELin1ELb0EEELj5EE16nestedExpressionEv"
 "_ZNK5Eigen14TriangularViewINS_5BlockINS1_INS_3MapINS_6MatrixIdLin1ELin1ELi0ELin1ELin1EEELi0ENS_6StrideILi0ELi0EEEEELin1ELin1ELb0EEELin1ELin1ELb0EEELj5EE4colsEv"
 "_ZNK5Eigen15DenseCoeffsBaseINS_5ArrayIbLin1ELi1ELi0ELin1ELi1EEELi0EE5coeffEx"
 "_ZNK5Eigen15DenseCoeffsBaseINS_5ArrayIbLin1ELi1ELi0ELin1ELi1EEELi0EEixEx"
 "_ZNK5Eigen15DenseCoeffsBaseINS_5ArrayIdLin1ELi1ELi0ELin1ELi1EEELi0EE5coeffEx"
 "_ZNK5Eigen15DenseCoeffsBaseINS_5ArrayIdLin1ELi1ELi0ELin1ELi1EEELi0EEclEx"
 "_ZNK5Eigen15DenseCoeffsBaseINS_5ArrayIdLin1ELi1ELi0ELin1ELi1EEELi0EEixEx"
 "_ZNK5Eigen15DenseCoeffsBaseINS_5ArrayIdLin1ELin1ELi0ELin1ELin1EEELi3EE11outerStrideEv"
 "_ZNK5Eigen15DenseCoeffsBaseINS_5ArrayIiLin1ELi1ELi0ELin1ELi1EEELi0EE5coeffEx"
 "_ZNK5Eigen15DenseCoeffsBaseINS_5ArrayIiLin1ELi1ELi0ELin1ELi1EEELi0EEixEx"
 "_ZNK5Eigen15DenseCoeffsBaseINS_5ArrayIN5CppAD2ADIdEELin1ELi1ELi0ELin1ELi1EEELi0EE5coeffEx"
 "_ZNK5Eigen15DenseCoeffsBaseINS_5ArrayIN5CppAD2ADIdEELin1ELi1ELi0ELin1ELi1EEELi0EEixEx"
 "_ZNK5Eigen15DenseCoeffsBaseINS_5ArrayIN5CppAD2ADIdEELin1ELin1ELi0ELin1ELin1EEELi3EE11outerStrideEv"
 "_ZNK5Eigen15DenseCoeffsBaseINS_5ArrayIN5CppAD2ADINS3_IdEEEELin1ELi1ELi0ELin1ELi1EEELi0EE5coeffEx"
 "_ZNK5Eigen15DenseCoeffsBaseINS_5ArrayIN5CppAD2ADINS3_IdEEEELin1ELi1ELi0ELin1ELi1EEELi0EEixEx"
 "_ZNK5Eigen15DenseCoeffsBaseINS_5ArrayIN5CppAD2ADINS3_IdEEEELin1ELin1ELi0ELin1ELin1EEELi3EE11outerStrideEv"
 "_ZNK5Eigen15DenseCoeffsBaseINS_5ArrayIN5CppAD2ADINS3_INS3_IdEEEEEELin1ELi1ELi0ELin1ELi1EEELi0EE5coeffEx"
 "_ZNK5Eigen15DenseCoeffsBaseINS_5ArrayIN5CppAD2ADINS3_INS3_IdEEEEEELin1ELi1ELi0ELin1ELi1EEELi0EEixEx"
 "_ZNK5Eigen15DenseCoeffsBaseINS_5ArrayIN5CppAD2ADINS3_INS3_IdEEEEEELin1ELin1ELi0ELin1ELin1EEELi3EE11outerStrideEv"
 "_ZNK5Eigen15DenseCoeffsBaseINS_5ArrayIN8tmbutils6vectorIiEELin1ELi1ELi0ELin1ELi1EEELi0EE5coeffEx"
 "_ZNK5Eigen15DenseCoeffsBaseINS_5ArrayIN8tmbutils6vectorIiEELin1ELi1ELi0ELin1ELi1EEELi0EEixEx"
 "_ZNK5Eigen15DenseCoeffsBaseINS_5ArrayIyLin1ELi1ELi0ELin1ELi1EEELi0EE5coeffEx"
 "_ZNK5Eigen15DenseCoeffsBaseINS_5ArrayIyLin1ELi1ELi0ELin1ELi1EEELi0EEixEx"
 "_ZNK5Eigen15DenseCoeffsBaseINS_5BlockINS_3MapINS_6MatrixIdLin1ELin1ELi0ELin1ELin1EEELi0ENS_6StrideILi0ELi0EEEEELin1ELin1ELb0EEELi3EE11innerStrideEv"
 "_ZNK5Eigen15DenseCoeffsBaseINS_5BlockINS_3MapINS_6MatrixIdLin1ELin1ELi0ELin1ELin1EEELi0ENS_6StrideILi0ELi0EEEEELin1ELin1ELb0EEELi3EE11outerStrideEv"
 "_ZNK5Eigen15DenseCoeffsBaseINS_5BlockINS_3MapINS_6MatrixIdLin1ELin1ELi0ELin1ELin1EEELi0ENS_6StrideILi0ELi0EEEEELin1ELin1ELb0EEELi3EE9colStrideEv"
 "_ZNK5Eigen15DenseCoeffsBaseINS_5BlockINS_3MapINS_6MatrixIdLin1ELin1ELi0ELin1ELin1EEELi0ENS_6StrideILi0ELi0EEEEELin1ELin1ELb0EEELi3EE9rowStrideEv"
 "_ZNK5Eigen15DenseCoeffsBaseINS_5BlockINS1_INS_3MapINS_6MatrixIdLin1ELin1ELi0ELin1ELin1EEELi0ENS_6StrideILi0ELi0EEEEELin1ELin1ELb0EEELin1ELin1ELb0EEELi3EE11innerStrideEv"
 "_ZNK5Eigen15DenseCoeffsBaseINS_5BlockINS1_INS_3MapINS_6MatrixIdLin1ELin1ELi0ELin1ELin1EEELi0ENS_6StrideILi0ELi0EEEEELin1ELin1ELb0EEELin1ELin1ELb0EEELi3EE11outerStrideEv"
 "_ZNK5Eigen15DenseCoeffsBaseINS_5BlockINS1_INS_3MapINS_6MatrixIdLin1ELin1ELi0ELin1ELin1EEELi0ENS_6StrideILi0ELi0EEEEELin1ELin1ELb0EEELin1ELin1ELb0EEELi3EE9colStrideEv"
 "_ZNK5Eigen15DenseCoeffsBaseINS_5BlockINS1_INS_3MapINS_6MatrixIdLin1ELin1ELi0ELin1ELin1EEELi0ENS_6StrideILi0ELi0EEEEELin1ELin1ELb0EEELin1ELin1ELb0EEELi3EE9rowStrideEv"
 "_ZNK5Eigen15DenseCoeffsBaseINS_6MatrixIdLin1ELi1ELi0ELin1ELi1EEELi0EE5coeffEx"
 "_ZNK5Eigen15DenseCoeffsBaseINS_6MatrixIdLin1ELi1ELi0ELin1ELi1EEELi0EEclEx"
 "_ZNK5Eigen15DenseCoeffsBaseINS_6MatrixIdLin1ELi1ELi0ELin1ELi1EEELi0EEixEx"
 "_ZNK5Eigen15DenseCoeffsBaseINS_6MatrixIdLin1ELin1ELi0ELin1ELin1EEELi0EE5coeffExx"
 "_ZNK5Eigen15DenseCoeffsBaseINS_6MatrixIdLin1ELin1ELi0ELin1ELin1EEELi0EEclExx"
 "_ZNK5Eigen15DenseCoeffsBaseINS_6MatrixIdLin1ELin1ELi0ELin1ELin1EEELi3EE11outerStrideEv"
 "_ZNK5Eigen15DenseCoeffsBaseINS_6MatrixIiLin1ELin1ELi0ELin1ELin1EEELi0EE5coeffExx"
 "_ZNK5Eigen15DenseCoeffsBaseINS_6MatrixIiLin1ELin1ELi0ELin1ELin1EEELi0EEclExx"
 "_ZNK5Eigen15DenseCoeffsBaseINS_6MatrixIiLin1ELin1ELi0ELin1ELin1EEELi3EE11outerStrideEv"
 "_ZNK5Eigen15DenseCoeffsBaseINS_6MatrixIN5CppAD2ADIdEELin1ELin1ELi0ELin1ELin1EEELi3EE11outerStrideEv"
 "_ZNK5Eigen15DenseCoeffsBaseINS_6MatrixIN5CppAD2ADINS3_IdEEEELin1ELin1ELi0ELin1ELin1EEELi3EE11outerStrideEv"
 "_ZNK5Eigen15DenseCoeffsBaseINS_6MatrixIN5CppAD2ADINS3_INS3_IdEEEEEELin1ELin1ELi0ELin1ELin1EEELi3EE11outerStrideEv"
 "_ZNK5Eigen15PermutationBaseINS_17PermutationMatrixILin1ELin1EiEEE4rowsEv"
 "_ZNK5Eigen15PermutationBaseINS_17PermutationMatrixILin1ELin1EiEEE4sizeEv"
 "_ZNK5Eigen15PermutationBaseINS_17PermutationMatrixILin1ELin1EiEEE7indicesEv"
 "_ZNK5Eigen15PlainObjectBaseINS_5ArrayIbLin1ELi1ELi0ELin1ELi1EEEE4colsEv"
 "_ZNK5Eigen15PlainObjectBaseINS_5ArrayIbLin1ELi1ELi0ELin1ELi1EEEE4dataEv"
 "_ZNK5Eigen15PlainObjectBaseINS_5ArrayIbLin1ELi1ELi0ELin1ELi1EEEE4rowsEv"
 "_ZNK5Eigen15PlainObjectBaseINS_5ArrayIdLin1ELi1ELi0ELin1ELi1EEEE4colsEv"
 "_ZNK5Eigen15PlainObjectBaseINS_5ArrayIdLin1ELi1ELi0ELin1ELi1EEEE4dataEv"
 "_ZNK5Eigen15PlainObjectBaseINS_5ArrayIdLin1ELi1ELi0ELin1ELi1EEEE4rowsEv"
 "_ZNK5Eigen15PlainObjectBaseINS_5ArrayIdLin1ELin1ELi0ELin1ELin1EEEE4colsEv"
 "_ZNK5Eigen15PlainObjectBaseINS_5ArrayIdLin1ELin1ELi0ELin1ELin1EEEE4dataEv"
 "_ZNK5Eigen15PlainObjectBaseINS_5ArrayIdLin1ELin1ELi0ELin1ELin1EEEE4rowsEv"
 "_ZNK5Eigen15PlainObjectBaseINS_5ArrayIiLin1ELi1ELi0ELin1ELi1EEEE4colsEv"
 "_ZNK5Eigen15PlainObjectBaseINS_5ArrayIiLin1ELi1ELi0ELin1ELi1EEEE4dataEv"
 "_ZNK5Eigen15PlainObjectBaseINS_5ArrayIiLin1ELi1ELi0ELin1ELi1EEEE4rowsEv"
 "_ZNK5Eigen15PlainObjectBaseINS_5ArrayIN5CppAD2ADIdEELin1ELi1ELi0ELin1ELi1EEEE4colsEv"
 "_ZNK5Eigen15PlainObjectBaseINS_5ArrayIN5CppAD2ADIdEELin1ELi1ELi0ELin1ELi1EEEE4dataEv"
 "_ZNK5Eigen15PlainObjectBaseINS_5ArrayIN5CppAD2ADIdEELin1ELi1ELi0ELin1ELi1EEEE4rowsEv"
 "_ZNK5Eigen15PlainObjectBaseINS_5ArrayIN5CppAD2ADIdEELin1ELin1ELi0ELin1ELin1EEEE4colsEv"
 "_ZNK5Eigen15PlainObjectBaseINS_5ArrayIN5CppAD2ADIdEELin1ELin1ELi0ELin1ELin1EEEE4dataEv"
 "_ZNK5Eigen15PlainObjectBaseINS_5ArrayIN5CppAD2ADIdEELin1ELin1ELi0ELin1ELin1EEEE4rowsEv"
 "_ZNK5Eigen15PlainObjectBaseINS_5ArrayIN5CppAD2ADINS3_IdEEEELin1ELi1ELi0ELin1ELi1EEEE4colsEv"
 "_ZNK5Eigen15PlainObjectBaseINS_5ArrayIN5CppAD2ADINS3_IdEEEELin1ELi1ELi0ELin1ELi1EEEE4dataEv"
 "_ZNK5Eigen15PlainObjectBaseINS_5ArrayIN5CppAD2ADINS3_IdEEEELin1ELi1ELi0ELin1ELi1EEEE4rowsEv"
 "_ZNK5Eigen15PlainObjectBaseINS_5ArrayIN5CppAD2ADINS3_IdEEEELin1ELin1ELi0ELin1ELin1EEEE4colsEv"
 "_ZNK5Eigen15PlainObjectBaseINS_5ArrayIN5CppAD2ADINS3_IdEEEELin1ELin1ELi0ELin1ELin1EEEE4dataEv"
 "_ZNK5Eigen15PlainObjectBaseINS_5ArrayIN5CppAD2ADINS3_IdEEEELin1ELin1ELi0ELin1ELin1EEEE4rowsEv"
 "_ZNK5Eigen15PlainObjectBaseINS_5ArrayIN5CppAD2ADINS3_INS3_IdEEEEEELin1ELi1ELi0ELin1ELi1EEEE4colsEv"
 "_ZNK5Eigen15PlainObjectBaseINS_5ArrayIN5CppAD2ADINS3_INS3_IdEEEEEELin1ELi1ELi0ELin1ELi1EEEE4dataEv"
 "_ZNK5Eigen15PlainObjectBaseINS_5ArrayIN5CppAD2ADINS3_INS3_IdEEEEEELin1ELi1ELi0ELin1ELi1EEEE4rowsEv"
 "_ZNK5Eigen15PlainObjectBaseINS_5ArrayIN5CppAD2ADINS3_INS3_IdEEEEEELin1ELin1ELi0ELin1ELin1EEEE4colsEv"
 "_ZNK5Eigen15PlainObjectBaseINS_5ArrayIN5CppAD2ADINS3_INS3_IdEEEEEELin1ELin1ELi0ELin1ELin1EEEE4dataEv"
 "_ZNK5Eigen15PlainObjectBaseINS_5ArrayIN5CppAD2ADINS3_INS3_IdEEEEEELin1ELin1ELi0ELin1ELin1EEEE4rowsEv"
 "_ZNK5Eigen15PlainObjectBaseINS_5ArrayIN8tmbutils6matrixIdEELin1ELi1ELi0ELin1ELi1EEEE4colsEv"
 "_ZNK5Eigen15PlainObjectBaseINS_5ArrayIN8tmbutils6matrixIdEELin1ELi1ELi0ELin1ELi1EEEE4dataEv"
 "_ZNK5Eigen15PlainObjectBaseINS_5ArrayIN8tmbutils6matrixIdEELin1ELi1ELi0ELin1ELi1EEEE4rowsEv"
 "_ZNK5Eigen15PlainObjectBaseINS_5ArrayIN8tmbutils6vectorIdEELin1ELi1ELi0ELin1ELi1EEEE4dataEv"
 "_ZNK5Eigen15PlainObjectBaseINS_5ArrayIN8tmbutils6vectorIiEELin1ELi1ELi0ELin1ELi1EEEE4colsEv"
 "_ZNK5Eigen15PlainObjectBaseINS_5ArrayIN8tmbutils6vectorIiEELin1ELi1ELi0ELin1ELi1EEEE4dataEv"
 "_ZNK5Eigen15PlainObjectBaseINS_5ArrayIN8tmbutils6vectorIiEELin1ELi1ELi0ELin1ELi1EEEE4rowsEv"
 "_ZNK5Eigen15PlainObjectBaseINS_5ArrayIN8tmbutils6vectorIyEELin1ELi1ELi0ELin1ELi1EEEE4dataEv"
 "_ZNK5Eigen15PlainObjectBaseINS_5ArrayINS_6MatrixIdLin1ELi1ELi0ELin1ELi1EEELin1ELi1ELi0ELin1ELi1EEEE4dataEv"
 "_ZNK5Eigen15PlainObjectBaseINS_5ArrayIPKcLin1ELi1ELi0ELin1ELi1EEEE4colsEv"
 "_ZNK5Eigen15PlainObjectBaseINS_5ArrayIPKcLin1ELi1ELi0ELin1ELi1EEEE4dataEv"
 "_ZNK5Eigen15PlainObjectBaseINS_5ArrayIPKcLin1ELi1ELi0ELin1ELi1EEEE4rowsEv"
 "_ZNK5Eigen15PlainObjectBaseINS_5ArrayIPN5CppAD5ADFunIdEELin1ELi1ELi0ELin1ELi1EEEE4colsEv"
 "_ZNK5Eigen15PlainObjectBaseINS_5ArrayIPN5CppAD5ADFunIdEELin1ELi1ELi0ELin1ELi1EEEE4dataEv"
 "_ZNK5Eigen15PlainObjectBaseINS_5ArrayIPN5CppAD5ADFunIdEELin1ELi1ELi0ELin1ELi1EEEE4rowsEv"
 "_ZNK5Eigen15PlainObjectBaseINS_5ArrayIyLin1ELi1ELi0ELin1ELi1EEEE4colsEv"
 "_ZNK5Eigen15PlainObjectBaseINS_5ArrayIyLin1ELi1ELi0ELin1ELi1EEEE4dataEv"
 "_ZNK5Eigen15PlainObjectBaseINS_5ArrayIyLin1ELi1ELi0ELin1ELi1EEEE4rowsEv"
 "_ZNK5Eigen15PlainObjectBaseINS_6MatrixIbLin1ELi1ELi0ELin1ELi1EEEE4colsEv"
 "_ZNK5Eigen15PlainObjectBaseINS_6MatrixIbLin1ELi1ELi0ELin1ELi1EEEE4dataEv"
 "_ZNK5Eigen15PlainObjectBaseINS_6MatrixIbLin1ELi1ELi0ELin1ELi1EEEE4rowsEv"
 "_ZNK5Eigen15PlainObjectBaseINS_6MatrixIdLin1ELi1ELi0ELin1ELi1EEEE4colsEv"
 "_ZNK5Eigen15PlainObjectBaseINS_6MatrixIdLin1ELi1ELi0ELin1ELi1EEEE4dataEv"
 "_ZNK5Eigen15PlainObjectBaseINS_6MatrixIdLin1ELi1ELi0ELin1ELi1EEEE4rowsEv"
 "_ZNK5Eigen15PlainObjectBaseINS_6MatrixIdLin1ELin1ELi0ELin1ELin1EEEE4colsEv"
 "_ZNK5Eigen15PlainObjectBaseINS_6MatrixIdLin1ELin1ELi0ELin1ELin1EEEE4dataEv"
 "_ZNK5Eigen15PlainObjectBaseINS_6MatrixIdLin1ELin1ELi0ELin1ELin1EEEE4rowsEv"
 "_ZNK5Eigen15PlainObjectBaseINS_6MatrixIdLin1ELin1ELi0ELin1ELin1EEEE8coeffRefExx"
 "_ZNK5Eigen15PlainObjectBaseINS_6MatrixIiLin1ELi1ELi0ELin1ELi1EEEE4colsEv"
 "_ZNK5Eigen15PlainObjectBaseINS_6MatrixIiLin1ELi1ELi0ELin1ELi1EEEE4rowsEv"
 "_ZNK5Eigen15PlainObjectBaseINS_6MatrixIiLin1ELi1ELi0ELin1ELi1EEEE5coeffEx"
 "_ZNK5Eigen15PlainObjectBaseINS_6MatrixIiLin1ELin1ELi0ELin1ELin1EEEE4colsEv"
 "_ZNK5Eigen15PlainObjectBaseINS_6MatrixIiLin1ELin1ELi0ELin1ELin1EEEE4dataEv"
 "_ZNK5Eigen15PlainObjectBaseINS_6MatrixIiLin1ELin1ELi0ELin1ELin1EEEE4rowsEv"
 "_ZNK5Eigen15PlainObjectBaseINS_6MatrixIN5CppAD2ADIdEELin1ELin1ELi0ELin1ELin1EEEE4dataEv"
 "_ZNK5Eigen15PlainObjectBaseINS_6MatrixIN5CppAD2ADIdEELin1ELin1ELi0ELin1ELin1EEEE4rowsEv"
 "_ZNK5Eigen15PlainObjectBaseINS_6MatrixIN5CppAD2ADINS3_IdEEEELin1ELin1ELi0ELin1ELin1EEEE4dataEv"
 "_ZNK5Eigen15PlainObjectBaseINS_6MatrixIN5CppAD2ADINS3_IdEEEELin1ELin1ELi0ELin1ELin1EEEE4rowsEv"
 "_ZNK5Eigen15PlainObjectBaseINS_6MatrixIN5CppAD2ADINS3_INS3_IdEEEEEELin1ELin1ELi0ELin1ELin1EEEE4dataEv"
 "_ZNK5Eigen15PlainObjectBaseINS_6MatrixIN5CppAD2ADINS3_INS3_IdEEEEEELin1ELin1ELi0ELin1ELin1EEEE4rowsEv"
 "_ZNK5Eigen16PartialReduxExprIKNS_12CwiseUnaryOpINS_8internal13scalar_abs_opIdEEKNS_6MatrixIdLin1ELin1ELi0ELin1ELin1EEEEENS2_10member_sumIdEELi0EE16nestedExpressionEv"
 "_ZNK5Eigen16PartialReduxExprIKNS_12CwiseUnaryOpINS_8internal13scalar_abs_opIdEEKNS_6MatrixIdLin1ELin1ELi0ELin1ELin1EEEEENS2_10member_sumIdEELi0EE4colsEv"
